
target/thumbv6m-none-eabi/release/blink_nrf51822:     file format elf32-littlearm


Disassembly of section .text:

00000090 <_ZN4core3fmt5Write10write_char17h0128e4d60f9539d5E>:
      90:	b5f0      	push	{r4, r5, r6, r7, lr}
      92:	b083      	sub	sp, #12
      94:	4604      	mov	r4, r0
      96:	2980      	cmp	r1, #128	; 0x80
      98:	d204      	bcs.n	a4 <_ZN4core3fmt5Write10write_char17h0128e4d60f9539d5E+0x14>
      9a:	2503      	movs	r5, #3
      9c:	2200      	movs	r2, #0
      9e:	4613      	mov	r3, r2
      a0:	4616      	mov	r6, r2
      a2:	e036      	b.n	112 <_ZN4core3fmt5Write10write_char17h0128e4d60f9539d5E+0x82>
      a4:	0ac8      	lsrs	r0, r1, #11
      a6:	2280      	movs	r2, #128	; 0x80
      a8:	2800      	cmp	r0, #0
      aa:	d10c      	bne.n	c6 <_ZN4core3fmt5Write10write_char17h0128e4d60f9539d5E+0x36>
      ac:	203f      	movs	r0, #63	; 0x3f
      ae:	4008      	ands	r0, r1
      b0:	4310      	orrs	r0, r2
      b2:	0989      	lsrs	r1, r1, #6
      b4:	231f      	movs	r3, #31
      b6:	400b      	ands	r3, r1
      b8:	3240      	adds	r2, #64	; 0x40
      ba:	431a      	orrs	r2, r3
      bc:	2502      	movs	r5, #2
      be:	2300      	movs	r3, #0
      c0:	4601      	mov	r1, r0
      c2:	461e      	mov	r6, r3
      c4:	e025      	b.n	112 <_ZN4core3fmt5Write10write_char17h0128e4d60f9539d5E+0x82>
      c6:	0c08      	lsrs	r0, r1, #16
      c8:	2800      	cmp	r0, #0
      ca:	d10f      	bne.n	ec <_ZN4core3fmt5Write10write_char17h0128e4d60f9539d5E+0x5c>
      cc:	233f      	movs	r3, #63	; 0x3f
      ce:	4608      	mov	r0, r1
      d0:	4018      	ands	r0, r3
      d2:	4310      	orrs	r0, r2
      d4:	098f      	lsrs	r7, r1, #6
      d6:	401f      	ands	r7, r3
      d8:	4317      	orrs	r7, r2
      da:	0b09      	lsrs	r1, r1, #12
      dc:	250f      	movs	r5, #15
      de:	400d      	ands	r5, r1
      e0:	3260      	adds	r2, #96	; 0x60
      e2:	4613      	mov	r3, r2
      e4:	432b      	orrs	r3, r5
      e6:	2501      	movs	r5, #1
      e8:	2600      	movs	r6, #0
      ea:	e010      	b.n	10e <_ZN4core3fmt5Write10write_char17h0128e4d60f9539d5E+0x7e>
      ec:	253f      	movs	r5, #63	; 0x3f
      ee:	4608      	mov	r0, r1
      f0:	4028      	ands	r0, r5
      f2:	4310      	orrs	r0, r2
      f4:	098f      	lsrs	r7, r1, #6
      f6:	402f      	ands	r7, r5
      f8:	4317      	orrs	r7, r2
      fa:	0b0b      	lsrs	r3, r1, #12
      fc:	402b      	ands	r3, r5
      fe:	4313      	orrs	r3, r2
     100:	0c89      	lsrs	r1, r1, #18
     102:	2507      	movs	r5, #7
     104:	400d      	ands	r5, r1
     106:	3270      	adds	r2, #112	; 0x70
     108:	4616      	mov	r6, r2
     10a:	432e      	orrs	r6, r5
     10c:	2500      	movs	r5, #0
     10e:	4601      	mov	r1, r0
     110:	463a      	mov	r2, r7
     112:	a801      	add	r0, sp, #4
     114:	7006      	strb	r6, [r0, #0]
     116:	7043      	strb	r3, [r0, #1]
     118:	7082      	strb	r2, [r0, #2]
     11a:	70c1      	strb	r1, [r0, #3]
     11c:	9502      	str	r5, [sp, #8]
     11e:	f003 faf0 	bl	3702 <_ZN4core4char10EncodeUtf88as_slice17h2d6d8978003edb2dE>
     122:	4602      	mov	r2, r0
     124:	460b      	mov	r3, r1
     126:	4620      	mov	r0, r4
     128:	4611      	mov	r1, r2
     12a:	461a      	mov	r2, r3
     12c:	f003 f8e4 	bl	32f8 <_ZN68_$LT$zinc..hal..nrf51822..uart..Uart$u20$as$u20$core..fmt..Write$GT$9write_str17h3e998e6dc459d9e1E>
     130:	b003      	add	sp, #12
     132:	bdf0      	pop	{r4, r5, r6, r7, pc}

00000134 <_ZN4core3fmt5Write9write_fmt17hee6d9e5d888dde89E>:
     134:	b570      	push	{r4, r5, r6, lr}
     136:	b08e      	sub	sp, #56	; 0x38
     138:	ab08      	add	r3, sp, #32
     13a:	461a      	mov	r2, r3
     13c:	c970      	ldmia	r1!, {r4, r5, r6}
     13e:	c270      	stmia	r2!, {r4, r5, r6}
     140:	c970      	ldmia	r1!, {r4, r5, r6}
     142:	c270      	stmia	r2!, {r4, r5, r6}
     144:	9007      	str	r0, [sp, #28]
     146:	aa01      	add	r2, sp, #4
     148:	4610      	mov	r0, r2
     14a:	cb32      	ldmia	r3!, {r1, r4, r5}
     14c:	c032      	stmia	r0!, {r1, r4, r5}
     14e:	cb32      	ldmia	r3!, {r1, r4, r5}
     150:	c032      	stmia	r0!, {r1, r4, r5}
     152:	a807      	add	r0, sp, #28
     154:	4902      	ldr	r1, [pc, #8]	; (160 <_ZN4core3fmt5Write9write_fmt17hee6d9e5d888dde89E+0x2c>)
     156:	f003 fbf5 	bl	3944 <_ZN4core3fmt5write17h56e3d15cb4a744eaE>
     15a:	b00e      	add	sp, #56	; 0x38
     15c:	bd70      	pop	{r4, r5, r6, pc}
     15e:	46c0      	nop			; (mov r8, r8)
     160:	00006430 	.word	0x00006430

00000164 <_ZN4drop17h6724d85a51cca60bE>:
     164:	4770      	bx	lr

00000166 <_ZN55_$LT$$RF$$u27$a$u20$T$u20$as$u20$core..fmt..Display$GT$3fmt17h89c56492ecb0d40cE>:
     166:	b580      	push	{r7, lr}
     168:	460a      	mov	r2, r1
     16a:	6803      	ldr	r3, [r0, #0]
     16c:	6841      	ldr	r1, [r0, #4]
     16e:	4618      	mov	r0, r3
     170:	f004 f864 	bl	423c <_ZN42_$LT$str$u20$as$u20$core..fmt..Display$GT$3fmt17h44772e7796928d68E>
     174:	bd80      	pop	{r7, pc}

00000176 <_ZN96_$LT$core..fmt..Write..write_fmt..Adapter$LT$$u27$a$C$$u20$T$GT$$u20$as$u20$core..fmt..Write$GT$10write_char17h86637d37ff13ae87E>:
     176:	b580      	push	{r7, lr}
     178:	6800      	ldr	r0, [r0, #0]
     17a:	f7ff ff89 	bl	90 <_ZN4core3fmt5Write10write_char17h0128e4d60f9539d5E>
     17e:	bd80      	pop	{r7, pc}

00000180 <_ZN96_$LT$core..fmt..Write..write_fmt..Adapter$LT$$u27$a$C$$u20$T$GT$$u20$as$u20$core..fmt..Write$GT$9write_fmt17h5745af23a80b4d8dE>:
     180:	b570      	push	{r4, r5, r6, lr}
     182:	b09a      	sub	sp, #104	; 0x68
     184:	aa07      	add	r2, sp, #28
     186:	4613      	mov	r3, r2
     188:	c970      	ldmia	r1!, {r4, r5, r6}
     18a:	c370      	stmia	r3!, {r4, r5, r6}
     18c:	c970      	ldmia	r1!, {r4, r5, r6}
     18e:	c370      	stmia	r3!, {r4, r5, r6}
     190:	6800      	ldr	r0, [r0, #0]
     192:	a901      	add	r1, sp, #4
     194:	460b      	mov	r3, r1
     196:	ca70      	ldmia	r2!, {r4, r5, r6}
     198:	c370      	stmia	r3!, {r4, r5, r6}
     19a:	ca70      	ldmia	r2!, {r4, r5, r6}
     19c:	c370      	stmia	r3!, {r4, r5, r6}
     19e:	ab14      	add	r3, sp, #80	; 0x50
     1a0:	461a      	mov	r2, r3
     1a2:	c970      	ldmia	r1!, {r4, r5, r6}
     1a4:	c270      	stmia	r2!, {r4, r5, r6}
     1a6:	c970      	ldmia	r1!, {r4, r5, r6}
     1a8:	c270      	stmia	r2!, {r4, r5, r6}
     1aa:	9013      	str	r0, [sp, #76]	; 0x4c
     1ac:	aa0d      	add	r2, sp, #52	; 0x34
     1ae:	4610      	mov	r0, r2
     1b0:	cb32      	ldmia	r3!, {r1, r4, r5}
     1b2:	c032      	stmia	r0!, {r1, r4, r5}
     1b4:	cb32      	ldmia	r3!, {r1, r4, r5}
     1b6:	c032      	stmia	r0!, {r1, r4, r5}
     1b8:	a813      	add	r0, sp, #76	; 0x4c
     1ba:	4902      	ldr	r1, [pc, #8]	; (1c4 <_ZN96_$LT$core..fmt..Write..write_fmt..Adapter$LT$$u27$a$C$$u20$T$GT$$u20$as$u20$core..fmt..Write$GT$9write_fmt17h5745af23a80b4d8dE+0x44>)
     1bc:	f003 fbc2 	bl	3944 <_ZN4core3fmt5write17h56e3d15cb4a744eaE>
     1c0:	b01a      	add	sp, #104	; 0x68
     1c2:	bd70      	pop	{r4, r5, r6, pc}
     1c4:	00006430 	.word	0x00006430

000001c8 <_ZN96_$LT$core..fmt..Write..write_fmt..Adapter$LT$$u27$a$C$$u20$T$GT$$u20$as$u20$core..fmt..Write$GT$9write_str17ha09fbcfe950b7de2E>:
     1c8:	b580      	push	{r7, lr}
     1ca:	6800      	ldr	r0, [r0, #0]
     1cc:	f003 f894 	bl	32f8 <_ZN68_$LT$zinc..hal..nrf51822..uart..Uart$u20$as$u20$core..fmt..Write$GT$9write_str17h3e998e6dc459d9e1E>
     1d0:	bd80      	pop	{r7, pc}
     1d2:	Address 0x00000000000001d2 is out of bounds.


000001d4 <_ZN14blink_nrf518227display7fade_to17h8c516a49d9bd70f0E>:
     1d4:	b5f0      	push	{r4, r5, r6, r7, lr}
     1d6:	b085      	sub	sp, #20
     1d8:	9101      	str	r1, [sp, #4]
     1da:	4927      	ldr	r1, [pc, #156]	; (278 <_ZN14blink_nrf518227display7fade_to17h8c516a49d9bd70f0E+0xa4>)
     1dc:	780f      	ldrb	r7, [r1, #0]
     1de:	b2c5      	uxtb	r5, r0
     1e0:	1be8      	subs	r0, r5, r7
     1e2:	13c1      	asrs	r1, r0, #15
     1e4:	1844      	adds	r4, r0, r1
     1e6:	404c      	eors	r4, r1
     1e8:	4620      	mov	r0, r4
     1ea:	f005 f8fb 	bl	53e4 <__aeabi_i2f>
     1ee:	4606      	mov	r6, r0
     1f0:	4628      	mov	r0, r5
     1f2:	f005 f947 	bl	5484 <__aeabi_ui2f>
     1f6:	4605      	mov	r5, r0
     1f8:	9703      	str	r7, [sp, #12]
     1fa:	4638      	mov	r0, r7
     1fc:	f005 f942 	bl	5484 <__aeabi_ui2f>
     200:	4601      	mov	r1, r0
     202:	4628      	mov	r0, r5
     204:	4635      	mov	r5, r6
     206:	4626      	mov	r6, r4
     208:	f004 ff30 	bl	506c <__aeabi_fsub>
     20c:	4629      	mov	r1, r5
     20e:	f004 fc1d 	bl	4a4c <__aeabi_fdiv>
     212:	f005 f8c7 	bl	53a4 <__aeabi_f2iz>
     216:	4604      	mov	r4, r0
     218:	2e01      	cmp	r6, #1
     21a:	db2b      	blt.n	274 <_ZN14blink_nrf518227display7fade_to17h8c516a49d9bd70f0E+0xa0>
     21c:	9801      	ldr	r0, [sp, #4]
     21e:	4629      	mov	r1, r5
     220:	f004 fc14 	bl	4a4c <__aeabi_fdiv>
     224:	4915      	ldr	r1, [pc, #84]	; (27c <_ZN14blink_nrf518227display7fade_to17h8c516a49d9bd70f0E+0xa8>)
     226:	f004 fe01 	bl	4e2c <__aeabi_fmul>
     22a:	f004 fa5d 	bl	46e8 <__aeabi_f2ulz>
     22e:	9001      	str	r0, [sp, #4]
     230:	9100      	str	r1, [sp, #0]
     232:	2700      	movs	r7, #0
     234:	9602      	str	r6, [sp, #8]
     236:	2602      	movs	r6, #2
     238:	4811      	ldr	r0, [pc, #68]	; (280 <_ZN14blink_nrf518227display7fade_to17h8c516a49d9bd70f0E+0xac>)
     23a:	4912      	ldr	r1, [pc, #72]	; (284 <_ZN14blink_nrf518227display7fade_to17h8c516a49d9bd70f0E+0xb0>)
     23c:	4632      	mov	r2, r6
     23e:	f003 f987 	bl	3550 <_ZN4zinc3hal8nrf518223twi3Twi11write_bytes17h0e15bed708b2e767E>
     242:	a904      	add	r1, sp, #16
     244:	2080      	movs	r0, #128	; 0x80
     246:	7008      	strb	r0, [r1, #0]
     248:	4620      	mov	r0, r4
     24a:	4378      	muls	r0, r7
     24c:	9a03      	ldr	r2, [sp, #12]
     24e:	4625      	mov	r5, r4
     250:	1884      	adds	r4, r0, r2
     252:	704c      	strb	r4, [r1, #1]
     254:	480a      	ldr	r0, [pc, #40]	; (280 <_ZN14blink_nrf518227display7fade_to17h8c516a49d9bd70f0E+0xac>)
     256:	4632      	mov	r2, r6
     258:	9e02      	ldr	r6, [sp, #8]
     25a:	f003 f979 	bl	3550 <_ZN4zinc3hal8nrf518223twi3Twi11write_bytes17h0e15bed708b2e767E>
     25e:	4806      	ldr	r0, [pc, #24]	; (278 <_ZN14blink_nrf518227display7fade_to17h8c516a49d9bd70f0E+0xa4>)
     260:	7004      	strb	r4, [r0, #0]
     262:	462c      	mov	r4, r5
     264:	9801      	ldr	r0, [sp, #4]
     266:	9900      	ldr	r1, [sp, #0]
     268:	f003 f9f0 	bl	364c <_ZN4zinc3hal8nrf518228sleep_us17h401a33623f589258E>
     26c:	1c78      	adds	r0, r7, #1
     26e:	b207      	sxth	r7, r0
     270:	42b7      	cmp	r7, r6
     272:	dbe0      	blt.n	236 <_ZN14blink_nrf518227display7fade_to17h8c516a49d9bd70f0E+0x62>
     274:	b005      	add	sp, #20
     276:	bdf0      	pop	{r4, r5, r6, r7, pc}
     278:	20000420 	.word	0x20000420
     27c:	49742400 	.word	0x49742400
     280:	00006469 	.word	0x00006469
     284:	00006469 	.word	0x00006469

00000288 <_ZN14blink_nrf518227display14update_display17h4431b73682dcb2eaE>:
     288:	b5f0      	push	{r4, r5, r6, r7, lr}
     28a:	b083      	sub	sp, #12
     28c:	2001      	movs	r0, #1
     28e:	0284      	lsls	r4, r0, #10
     290:	4f1a      	ldr	r7, [pc, #104]	; (2fc <_ZN14blink_nrf518227display14update_display17h4431b73682dcb2eaE+0x74>)
     292:	5d38      	ldrb	r0, [r7, r4]
     294:	2807      	cmp	r0, #7
     296:	d828      	bhi.n	2ea <_ZN14blink_nrf518227display14update_display17h4431b73682dcb2eaE+0x62>
     298:	4d19      	ldr	r5, [pc, #100]	; (300 <_ZN14blink_nrf518227display14update_display17h4431b73682dcb2eaE+0x78>)
     29a:	491a      	ldr	r1, [pc, #104]	; (304 <_ZN14blink_nrf518227display14update_display17h4431b73682dcb2eaE+0x7c>)
     29c:	2602      	movs	r6, #2
     29e:	4628      	mov	r0, r5
     2a0:	4632      	mov	r2, r6
     2a2:	f003 f955 	bl	3550 <_ZN4zinc3hal8nrf518223twi3Twi11write_bytes17h0e15bed708b2e767E>
     2a6:	5d38      	ldrb	r0, [r7, r4]
     2a8:	a901      	add	r1, sp, #4
     2aa:	2280      	movs	r2, #128	; 0x80
     2ac:	700a      	strb	r2, [r1, #0]
     2ae:	7048      	strb	r0, [r1, #1]
     2b0:	4628      	mov	r0, r5
     2b2:	4632      	mov	r2, r6
     2b4:	f003 f94c 	bl	3550 <_ZN4zinc3hal8nrf518223twi3Twi11write_bytes17h0e15bed708b2e767E>
     2b8:	4913      	ldr	r1, [pc, #76]	; (308 <_ZN14blink_nrf518227display14update_display17h4431b73682dcb2eaE+0x80>)
     2ba:	4628      	mov	r0, r5
     2bc:	4632      	mov	r2, r6
     2be:	f003 f947 	bl	3550 <_ZN4zinc3hal8nrf518223twi3Twi11write_bytes17h0e15bed708b2e767E>
     2c2:	5d38      	ldrb	r0, [r7, r4]
     2c4:	01c0      	lsls	r0, r0, #7
     2c6:	4911      	ldr	r1, [pc, #68]	; (30c <_ZN14blink_nrf518227display14update_display17h4431b73682dcb2eaE+0x84>)
     2c8:	5c79      	ldrb	r1, [r7, r1]
     2ca:	01c9      	lsls	r1, r1, #7
     2cc:	3180      	adds	r1, #128	; 0x80
     2ce:	4281      	cmp	r1, r0
     2d0:	d30d      	bcc.n	2ee <_ZN14blink_nrf518227display14update_display17h4431b73682dcb2eaE+0x66>
     2d2:	42a1      	cmp	r1, r4
     2d4:	d80d      	bhi.n	2f2 <_ZN14blink_nrf518227display14update_display17h4431b73682dcb2eaE+0x6a>
     2d6:	183a      	adds	r2, r7, r0
     2d8:	1a0b      	subs	r3, r1, r0
     2da:	a802      	add	r0, sp, #8
     2dc:	2140      	movs	r1, #64	; 0x40
     2de:	f003 f963 	bl	35a8 <_ZN4zinc3hal8nrf518223twi3Twi18write_bytes_prefix17h233b4f10bdb546a6E>
     2e2:	2008      	movs	r0, #8
     2e4:	5538      	strb	r0, [r7, r4]
     2e6:	4909      	ldr	r1, [pc, #36]	; (30c <_ZN14blink_nrf518227display14update_display17h4431b73682dcb2eaE+0x84>)
     2e8:	5478      	strb	r0, [r7, r1]
     2ea:	b003      	add	sp, #12
     2ec:	bdf0      	pop	{r4, r5, r6, r7, pc}
     2ee:	f003 fa81 	bl	37f4 <_ZN4core5slice22slice_index_order_fail17h645d2e1a34e44416E>
     2f2:	4608      	mov	r0, r1
     2f4:	4621      	mov	r1, r4
     2f6:	f003 fa5f 	bl	37b8 <_ZN4core5slice20slice_index_len_fail17hd87e5524007fa8c3E>
     2fa:	46c0      	nop			; (mov r8, r8)
     2fc:	2000001c 	.word	0x2000001c
     300:	00006469 	.word	0x00006469
     304:	0000646b 	.word	0x0000646b
     308:	0000646d 	.word	0x0000646d
     30c:	00000401 	.word	0x00000401

00000310 <_ZN14blink_nrf518227display11slice_paint17hb4297fb6849e963eE>:
     310:	b5f0      	push	{r4, r5, r6, r7, lr}
     312:	b083      	sub	sp, #12
     314:	9e09      	ldr	r6, [sp, #36]	; 0x24
     316:	9301      	str	r3, [sp, #4]
     318:	18f7      	adds	r7, r6, r3
     31a:	2500      	movs	r5, #0
     31c:	2301      	movs	r3, #1
     31e:	42b7      	cmp	r7, r6
     320:	d200      	bcs.n	324 <_ZN14blink_nrf518227display11slice_paint17hb4297fb6849e963eE+0x14>
     322:	461d      	mov	r5, r3
     324:	2d00      	cmp	r5, #0
     326:	d157      	bne.n	3d8 <_ZN14blink_nrf518227display11slice_paint17hb4297fb6849e963eE+0xc8>
     328:	2401      	movs	r4, #1
     32a:	02a5      	lsls	r5, r4, #10
     32c:	42af      	cmp	r7, r5
     32e:	d857      	bhi.n	3e0 <_ZN14blink_nrf518227display11slice_paint17hb4297fb6849e963eE+0xd0>
     330:	9d08      	ldr	r5, [sp, #32]
     332:	1973      	adds	r3, r6, r5
     334:	2700      	movs	r7, #0
     336:	42b3      	cmp	r3, r6
     338:	d200      	bcs.n	33c <_ZN14blink_nrf518227display11slice_paint17hb4297fb6849e963eE+0x2c>
     33a:	4627      	mov	r7, r4
     33c:	2f00      	cmp	r7, #0
     33e:	d153      	bne.n	3e8 <_ZN14blink_nrf518227display11slice_paint17hb4297fb6849e963eE+0xd8>
     340:	428b      	cmp	r3, r1
     342:	d855      	bhi.n	3f0 <_ZN14blink_nrf518227display11slice_paint17hb4297fb6849e963eE+0xe0>
     344:	1940      	adds	r0, r0, r5
     346:	492c      	ldr	r1, [pc, #176]	; (3f8 <_ZN14blink_nrf518227display11slice_paint17hb4297fb6849e963eE+0xe8>)
     348:	420a      	tst	r2, r1
     34a:	d01f      	beq.n	38c <_ZN14blink_nrf518227display11slice_paint17hb4297fb6849e963eE+0x7c>
     34c:	2e00      	cmp	r6, #0
     34e:	d041      	beq.n	3d4 <_ZN14blink_nrf518227display11slice_paint17hb4297fb6849e963eE+0xc4>
     350:	2107      	movs	r1, #7
     352:	4614      	mov	r4, r2
     354:	400c      	ands	r4, r1
     356:	4255      	negs	r5, r2
     358:	400d      	ands	r5, r1
     35a:	b211      	sxth	r1, r2
     35c:	2900      	cmp	r1, #0
     35e:	db28      	blt.n	3b2 <_ZN14blink_nrf518227display11slice_paint17hb4297fb6849e963eE+0xa2>
     360:	4a26      	ldr	r2, [pc, #152]	; (3fc <_ZN14blink_nrf518227display11slice_paint17hb4297fb6849e963eE+0xec>)
     362:	9901      	ldr	r1, [sp, #4]
     364:	1853      	adds	r3, r2, r1
     366:	9302      	str	r3, [sp, #8]
     368:	4252      	negs	r2, r2
     36a:	1a52      	subs	r2, r2, r1
     36c:	2500      	movs	r5, #0
     36e:	b2e3      	uxtb	r3, r4
     370:	9902      	ldr	r1, [sp, #8]
     372:	194f      	adds	r7, r1, r5
     374:	1c6c      	adds	r4, r5, #1
     376:	42aa      	cmp	r2, r5
     378:	d02c      	beq.n	3d4 <_ZN14blink_nrf518227display11slice_paint17hb4297fb6849e963eE+0xc4>
     37a:	5d45      	ldrb	r5, [r0, r5]
     37c:	409d      	lsls	r5, r3
     37e:	7839      	ldrb	r1, [r7, #0]
     380:	4329      	orrs	r1, r5
     382:	7039      	strb	r1, [r7, #0]
     384:	42b4      	cmp	r4, r6
     386:	4625      	mov	r5, r4
     388:	d3f2      	bcc.n	370 <_ZN14blink_nrf518227display11slice_paint17hb4297fb6849e963eE+0x60>
     38a:	e023      	b.n	3d4 <_ZN14blink_nrf518227display11slice_paint17hb4297fb6849e963eE+0xc4>
     38c:	2e00      	cmp	r6, #0
     38e:	d021      	beq.n	3d4 <_ZN14blink_nrf518227display11slice_paint17hb4297fb6849e963eE+0xc4>
     390:	4a1a      	ldr	r2, [pc, #104]	; (3fc <_ZN14blink_nrf518227display11slice_paint17hb4297fb6849e963eE+0xec>)
     392:	9b01      	ldr	r3, [sp, #4]
     394:	18d1      	adds	r1, r2, r3
     396:	4252      	negs	r2, r2
     398:	1ad2      	subs	r2, r2, r3
     39a:	2300      	movs	r3, #0
     39c:	18cc      	adds	r4, r1, r3
     39e:	429a      	cmp	r2, r3
     3a0:	d018      	beq.n	3d4 <_ZN14blink_nrf518227display11slice_paint17hb4297fb6849e963eE+0xc4>
     3a2:	5cc5      	ldrb	r5, [r0, r3]
     3a4:	7827      	ldrb	r7, [r4, #0]
     3a6:	432f      	orrs	r7, r5
     3a8:	7027      	strb	r7, [r4, #0]
     3aa:	1c5b      	adds	r3, r3, #1
     3ac:	42b3      	cmp	r3, r6
     3ae:	d3f5      	bcc.n	39c <_ZN14blink_nrf518227display11slice_paint17hb4297fb6849e963eE+0x8c>
     3b0:	e010      	b.n	3d4 <_ZN14blink_nrf518227display11slice_paint17hb4297fb6849e963eE+0xc4>
     3b2:	4912      	ldr	r1, [pc, #72]	; (3fc <_ZN14blink_nrf518227display11slice_paint17hb4297fb6849e963eE+0xec>)
     3b4:	9a01      	ldr	r2, [sp, #4]
     3b6:	1889      	adds	r1, r1, r2
     3b8:	2200      	movs	r2, #0
     3ba:	b2eb      	uxtb	r3, r5
     3bc:	1c52      	adds	r2, r2, #1
     3be:	2900      	cmp	r1, #0
     3c0:	d008      	beq.n	3d4 <_ZN14blink_nrf518227display11slice_paint17hb4297fb6849e963eE+0xc4>
     3c2:	7804      	ldrb	r4, [r0, #0]
     3c4:	40dc      	lsrs	r4, r3
     3c6:	780d      	ldrb	r5, [r1, #0]
     3c8:	4325      	orrs	r5, r4
     3ca:	700d      	strb	r5, [r1, #0]
     3cc:	1c49      	adds	r1, r1, #1
     3ce:	1c40      	adds	r0, r0, #1
     3d0:	42b2      	cmp	r2, r6
     3d2:	d3f3      	bcc.n	3bc <_ZN14blink_nrf518227display11slice_paint17hb4297fb6849e963eE+0xac>
     3d4:	b003      	add	sp, #12
     3d6:	bdf0      	pop	{r4, r5, r6, r7, pc}
     3d8:	9801      	ldr	r0, [sp, #4]
     3da:	4639      	mov	r1, r7
     3dc:	f003 fa0a 	bl	37f4 <_ZN4core5slice22slice_index_order_fail17h645d2e1a34e44416E>
     3e0:	4638      	mov	r0, r7
     3e2:	4629      	mov	r1, r5
     3e4:	f003 f9e8 	bl	37b8 <_ZN4core5slice20slice_index_len_fail17hd87e5524007fa8c3E>
     3e8:	4628      	mov	r0, r5
     3ea:	4619      	mov	r1, r3
     3ec:	f003 fa02 	bl	37f4 <_ZN4core5slice22slice_index_order_fail17h645d2e1a34e44416E>
     3f0:	4618      	mov	r0, r3
     3f2:	f003 f9e1 	bl	37b8 <_ZN4core5slice20slice_index_len_fail17hd87e5524007fa8c3E>
     3f6:	46c0      	nop			; (mov r8, r8)
     3f8:	0000ffff 	.word	0x0000ffff
     3fc:	2000001c 	.word	0x2000001c

00000400 <_ZN14blink_nrf518227display11slice_paint17hbe2fd50aec4c889eE>:
     400:	b5f0      	push	{r4, r5, r6, r7, lr}
     402:	b083      	sub	sp, #12
     404:	9e09      	ldr	r6, [sp, #36]	; 0x24
     406:	9300      	str	r3, [sp, #0]
     408:	18f7      	adds	r7, r6, r3
     40a:	2500      	movs	r5, #0
     40c:	2301      	movs	r3, #1
     40e:	42b7      	cmp	r7, r6
     410:	d200      	bcs.n	414 <_ZN14blink_nrf518227display11slice_paint17hbe2fd50aec4c889eE+0x14>
     412:	461d      	mov	r5, r3
     414:	2d00      	cmp	r5, #0
     416:	d15f      	bne.n	4d8 <_ZN14blink_nrf518227display11slice_paint17hbe2fd50aec4c889eE+0xd8>
     418:	2401      	movs	r4, #1
     41a:	02a5      	lsls	r5, r4, #10
     41c:	42af      	cmp	r7, r5
     41e:	d85f      	bhi.n	4e0 <_ZN14blink_nrf518227display11slice_paint17hbe2fd50aec4c889eE+0xe0>
     420:	9d08      	ldr	r5, [sp, #32]
     422:	1973      	adds	r3, r6, r5
     424:	2700      	movs	r7, #0
     426:	42b3      	cmp	r3, r6
     428:	d200      	bcs.n	42c <_ZN14blink_nrf518227display11slice_paint17hbe2fd50aec4c889eE+0x2c>
     42a:	4627      	mov	r7, r4
     42c:	2f00      	cmp	r7, #0
     42e:	d15b      	bne.n	4e8 <_ZN14blink_nrf518227display11slice_paint17hbe2fd50aec4c889eE+0xe8>
     430:	428b      	cmp	r3, r1
     432:	d85d      	bhi.n	4f0 <_ZN14blink_nrf518227display11slice_paint17hbe2fd50aec4c889eE+0xf0>
     434:	1940      	adds	r0, r0, r5
     436:	21ff      	movs	r1, #255	; 0xff
     438:	9102      	str	r1, [sp, #8]
     43a:	492f      	ldr	r1, [pc, #188]	; (4f8 <_ZN14blink_nrf518227display11slice_paint17hbe2fd50aec4c889eE+0xf8>)
     43c:	420a      	tst	r2, r1
     43e:	d021      	beq.n	484 <_ZN14blink_nrf518227display11slice_paint17hbe2fd50aec4c889eE+0x84>
     440:	2e00      	cmp	r6, #0
     442:	d047      	beq.n	4d4 <_ZN14blink_nrf518227display11slice_paint17hbe2fd50aec4c889eE+0xd4>
     444:	2507      	movs	r5, #7
     446:	4614      	mov	r4, r2
     448:	402c      	ands	r4, r5
     44a:	4251      	negs	r1, r2
     44c:	4029      	ands	r1, r5
     44e:	b212      	sxth	r2, r2
     450:	2a00      	cmp	r2, #0
     452:	db2c      	blt.n	4ae <_ZN14blink_nrf518227display11slice_paint17hbe2fd50aec4c889eE+0xae>
     454:	4929      	ldr	r1, [pc, #164]	; (4fc <_ZN14blink_nrf518227display11slice_paint17hbe2fd50aec4c889eE+0xfc>)
     456:	9a00      	ldr	r2, [sp, #0]
     458:	188b      	adds	r3, r1, r2
     45a:	9301      	str	r3, [sp, #4]
     45c:	4249      	negs	r1, r1
     45e:	1a8b      	subs	r3, r1, r2
     460:	2700      	movs	r7, #0
     462:	b2e4      	uxtb	r4, r4
     464:	9901      	ldr	r1, [sp, #4]
     466:	19c9      	adds	r1, r1, r7
     468:	1c7d      	adds	r5, r7, #1
     46a:	42bb      	cmp	r3, r7
     46c:	d032      	beq.n	4d4 <_ZN14blink_nrf518227display11slice_paint17hbe2fd50aec4c889eE+0xd4>
     46e:	5dc7      	ldrb	r7, [r0, r7]
     470:	40a7      	lsls	r7, r4
     472:	9a02      	ldr	r2, [sp, #8]
     474:	4057      	eors	r7, r2
     476:	780a      	ldrb	r2, [r1, #0]
     478:	403a      	ands	r2, r7
     47a:	700a      	strb	r2, [r1, #0]
     47c:	42b5      	cmp	r5, r6
     47e:	462f      	mov	r7, r5
     480:	d3f0      	bcc.n	464 <_ZN14blink_nrf518227display11slice_paint17hbe2fd50aec4c889eE+0x64>
     482:	e027      	b.n	4d4 <_ZN14blink_nrf518227display11slice_paint17hbe2fd50aec4c889eE+0xd4>
     484:	2e00      	cmp	r6, #0
     486:	d025      	beq.n	4d4 <_ZN14blink_nrf518227display11slice_paint17hbe2fd50aec4c889eE+0xd4>
     488:	491c      	ldr	r1, [pc, #112]	; (4fc <_ZN14blink_nrf518227display11slice_paint17hbe2fd50aec4c889eE+0xfc>)
     48a:	9b00      	ldr	r3, [sp, #0]
     48c:	18ca      	adds	r2, r1, r3
     48e:	4249      	negs	r1, r1
     490:	1acb      	subs	r3, r1, r3
     492:	2400      	movs	r4, #0
     494:	1911      	adds	r1, r2, r4
     496:	42a3      	cmp	r3, r4
     498:	d01c      	beq.n	4d4 <_ZN14blink_nrf518227display11slice_paint17hbe2fd50aec4c889eE+0xd4>
     49a:	5d05      	ldrb	r5, [r0, r4]
     49c:	9f02      	ldr	r7, [sp, #8]
     49e:	407d      	eors	r5, r7
     4a0:	780f      	ldrb	r7, [r1, #0]
     4a2:	402f      	ands	r7, r5
     4a4:	700f      	strb	r7, [r1, #0]
     4a6:	1c64      	adds	r4, r4, #1
     4a8:	42b4      	cmp	r4, r6
     4aa:	d3f3      	bcc.n	494 <_ZN14blink_nrf518227display11slice_paint17hbe2fd50aec4c889eE+0x94>
     4ac:	e012      	b.n	4d4 <_ZN14blink_nrf518227display11slice_paint17hbe2fd50aec4c889eE+0xd4>
     4ae:	4a13      	ldr	r2, [pc, #76]	; (4fc <_ZN14blink_nrf518227display11slice_paint17hbe2fd50aec4c889eE+0xfc>)
     4b0:	9b00      	ldr	r3, [sp, #0]
     4b2:	18d2      	adds	r2, r2, r3
     4b4:	2300      	movs	r3, #0
     4b6:	b2cc      	uxtb	r4, r1
     4b8:	1c5b      	adds	r3, r3, #1
     4ba:	2a00      	cmp	r2, #0
     4bc:	d00a      	beq.n	4d4 <_ZN14blink_nrf518227display11slice_paint17hbe2fd50aec4c889eE+0xd4>
     4be:	7801      	ldrb	r1, [r0, #0]
     4c0:	40e1      	lsrs	r1, r4
     4c2:	9d02      	ldr	r5, [sp, #8]
     4c4:	4069      	eors	r1, r5
     4c6:	7815      	ldrb	r5, [r2, #0]
     4c8:	400d      	ands	r5, r1
     4ca:	7015      	strb	r5, [r2, #0]
     4cc:	1c52      	adds	r2, r2, #1
     4ce:	1c40      	adds	r0, r0, #1
     4d0:	42b3      	cmp	r3, r6
     4d2:	d3f1      	bcc.n	4b8 <_ZN14blink_nrf518227display11slice_paint17hbe2fd50aec4c889eE+0xb8>
     4d4:	b003      	add	sp, #12
     4d6:	bdf0      	pop	{r4, r5, r6, r7, pc}
     4d8:	9800      	ldr	r0, [sp, #0]
     4da:	4639      	mov	r1, r7
     4dc:	f003 f98a 	bl	37f4 <_ZN4core5slice22slice_index_order_fail17h645d2e1a34e44416E>
     4e0:	4638      	mov	r0, r7
     4e2:	4629      	mov	r1, r5
     4e4:	f003 f968 	bl	37b8 <_ZN4core5slice20slice_index_len_fail17hd87e5524007fa8c3E>
     4e8:	4628      	mov	r0, r5
     4ea:	4619      	mov	r1, r3
     4ec:	f003 f982 	bl	37f4 <_ZN4core5slice22slice_index_order_fail17h645d2e1a34e44416E>
     4f0:	4618      	mov	r0, r3
     4f2:	f003 f961 	bl	37b8 <_ZN4core5slice20slice_index_len_fail17hd87e5524007fa8c3E>
     4f6:	46c0      	nop			; (mov r8, r8)
     4f8:	0000ffff 	.word	0x0000ffff
     4fc:	2000001c 	.word	0x2000001c

00000500 <_ZN14blink_nrf518227display11slice_paint17hd92e3b939cf48568E>:
     500:	b5f0      	push	{r4, r5, r6, r7, lr}
     502:	b081      	sub	sp, #4
     504:	9e07      	ldr	r6, [sp, #28]
     506:	9300      	str	r3, [sp, #0]
     508:	18f7      	adds	r7, r6, r3
     50a:	2500      	movs	r5, #0
     50c:	2301      	movs	r3, #1
     50e:	42b7      	cmp	r7, r6
     510:	d200      	bcs.n	514 <_ZN14blink_nrf518227display11slice_paint17hd92e3b939cf48568E+0x14>
     512:	461d      	mov	r5, r3
     514:	2d00      	cmp	r5, #0
     516:	d14f      	bne.n	5b8 <_ZN14blink_nrf518227display11slice_paint17hd92e3b939cf48568E+0xb8>
     518:	2401      	movs	r4, #1
     51a:	02a5      	lsls	r5, r4, #10
     51c:	42af      	cmp	r7, r5
     51e:	d84f      	bhi.n	5c0 <_ZN14blink_nrf518227display11slice_paint17hd92e3b939cf48568E+0xc0>
     520:	9d06      	ldr	r5, [sp, #24]
     522:	1973      	adds	r3, r6, r5
     524:	2700      	movs	r7, #0
     526:	42b3      	cmp	r3, r6
     528:	d200      	bcs.n	52c <_ZN14blink_nrf518227display11slice_paint17hd92e3b939cf48568E+0x2c>
     52a:	4627      	mov	r7, r4
     52c:	2f00      	cmp	r7, #0
     52e:	d14b      	bne.n	5c8 <_ZN14blink_nrf518227display11slice_paint17hd92e3b939cf48568E+0xc8>
     530:	428b      	cmp	r3, r1
     532:	d84d      	bhi.n	5d0 <_ZN14blink_nrf518227display11slice_paint17hd92e3b939cf48568E+0xd0>
     534:	1940      	adds	r0, r0, r5
     536:	4928      	ldr	r1, [pc, #160]	; (5d8 <_ZN14blink_nrf518227display11slice_paint17hd92e3b939cf48568E+0xd8>)
     538:	420a      	tst	r2, r1
     53a:	d01b      	beq.n	574 <_ZN14blink_nrf518227display11slice_paint17hd92e3b939cf48568E+0x74>
     53c:	2e00      	cmp	r6, #0
     53e:	d039      	beq.n	5b4 <_ZN14blink_nrf518227display11slice_paint17hd92e3b939cf48568E+0xb4>
     540:	2107      	movs	r1, #7
     542:	4614      	mov	r4, r2
     544:	400c      	ands	r4, r1
     546:	4255      	negs	r5, r2
     548:	400d      	ands	r5, r1
     54a:	b211      	sxth	r1, r2
     54c:	2900      	cmp	r1, #0
     54e:	db22      	blt.n	596 <_ZN14blink_nrf518227display11slice_paint17hd92e3b939cf48568E+0x96>
     550:	4a22      	ldr	r2, [pc, #136]	; (5dc <_ZN14blink_nrf518227display11slice_paint17hd92e3b939cf48568E+0xdc>)
     552:	9b00      	ldr	r3, [sp, #0]
     554:	18d1      	adds	r1, r2, r3
     556:	4252      	negs	r2, r2
     558:	1ad2      	subs	r2, r2, r3
     55a:	2500      	movs	r5, #0
     55c:	b2e3      	uxtb	r3, r4
     55e:	194f      	adds	r7, r1, r5
     560:	1c6c      	adds	r4, r5, #1
     562:	42aa      	cmp	r2, r5
     564:	d026      	beq.n	5b4 <_ZN14blink_nrf518227display11slice_paint17hd92e3b939cf48568E+0xb4>
     566:	5d45      	ldrb	r5, [r0, r5]
     568:	409d      	lsls	r5, r3
     56a:	703d      	strb	r5, [r7, #0]
     56c:	42b4      	cmp	r4, r6
     56e:	4625      	mov	r5, r4
     570:	d3f5      	bcc.n	55e <_ZN14blink_nrf518227display11slice_paint17hd92e3b939cf48568E+0x5e>
     572:	e01f      	b.n	5b4 <_ZN14blink_nrf518227display11slice_paint17hd92e3b939cf48568E+0xb4>
     574:	2e00      	cmp	r6, #0
     576:	d01d      	beq.n	5b4 <_ZN14blink_nrf518227display11slice_paint17hd92e3b939cf48568E+0xb4>
     578:	4a18      	ldr	r2, [pc, #96]	; (5dc <_ZN14blink_nrf518227display11slice_paint17hd92e3b939cf48568E+0xdc>)
     57a:	9b00      	ldr	r3, [sp, #0]
     57c:	18d1      	adds	r1, r2, r3
     57e:	4252      	negs	r2, r2
     580:	1ad2      	subs	r2, r2, r3
     582:	2300      	movs	r3, #0
     584:	18cc      	adds	r4, r1, r3
     586:	429a      	cmp	r2, r3
     588:	d014      	beq.n	5b4 <_ZN14blink_nrf518227display11slice_paint17hd92e3b939cf48568E+0xb4>
     58a:	5cc5      	ldrb	r5, [r0, r3]
     58c:	7025      	strb	r5, [r4, #0]
     58e:	1c5b      	adds	r3, r3, #1
     590:	42b3      	cmp	r3, r6
     592:	d3f7      	bcc.n	584 <_ZN14blink_nrf518227display11slice_paint17hd92e3b939cf48568E+0x84>
     594:	e00e      	b.n	5b4 <_ZN14blink_nrf518227display11slice_paint17hd92e3b939cf48568E+0xb4>
     596:	4911      	ldr	r1, [pc, #68]	; (5dc <_ZN14blink_nrf518227display11slice_paint17hd92e3b939cf48568E+0xdc>)
     598:	9a00      	ldr	r2, [sp, #0]
     59a:	1889      	adds	r1, r1, r2
     59c:	2200      	movs	r2, #0
     59e:	b2eb      	uxtb	r3, r5
     5a0:	1c52      	adds	r2, r2, #1
     5a2:	2900      	cmp	r1, #0
     5a4:	d006      	beq.n	5b4 <_ZN14blink_nrf518227display11slice_paint17hd92e3b939cf48568E+0xb4>
     5a6:	7804      	ldrb	r4, [r0, #0]
     5a8:	40dc      	lsrs	r4, r3
     5aa:	700c      	strb	r4, [r1, #0]
     5ac:	1c49      	adds	r1, r1, #1
     5ae:	1c40      	adds	r0, r0, #1
     5b0:	42b2      	cmp	r2, r6
     5b2:	d3f5      	bcc.n	5a0 <_ZN14blink_nrf518227display11slice_paint17hd92e3b939cf48568E+0xa0>
     5b4:	b001      	add	sp, #4
     5b6:	bdf0      	pop	{r4, r5, r6, r7, pc}
     5b8:	9800      	ldr	r0, [sp, #0]
     5ba:	4639      	mov	r1, r7
     5bc:	f003 f91a 	bl	37f4 <_ZN4core5slice22slice_index_order_fail17h645d2e1a34e44416E>
     5c0:	4638      	mov	r0, r7
     5c2:	4629      	mov	r1, r5
     5c4:	f003 f8f8 	bl	37b8 <_ZN4core5slice20slice_index_len_fail17hd87e5524007fa8c3E>
     5c8:	4628      	mov	r0, r5
     5ca:	4619      	mov	r1, r3
     5cc:	f003 f912 	bl	37f4 <_ZN4core5slice22slice_index_order_fail17h645d2e1a34e44416E>
     5d0:	4618      	mov	r0, r3
     5d2:	f003 f8f1 	bl	37b8 <_ZN4core5slice20slice_index_len_fail17hd87e5524007fa8c3E>
     5d6:	46c0      	nop			; (mov r8, r8)
     5d8:	0000ffff 	.word	0x0000ffff
     5dc:	2000001c 	.word	0x2000001c

000005e0 <_ZN14blink_nrf518227display4draw17haa5976ca818aacebE>:
     5e0:	b5f0      	push	{r4, r5, r6, r7, lr}
     5e2:	b091      	sub	sp, #68	; 0x44
     5e4:	b20e      	sxth	r6, r1
     5e6:	2e7f      	cmp	r6, #127	; 0x7f
     5e8:	dd00      	ble.n	5ec <_ZN14blink_nrf518227display4draw17haa5976ca818aacebE+0xc>
     5ea:	e138      	b.n	85e <_ZN14blink_nrf518227display4draw17haa5976ca818aacebE+0x27e>
     5ec:	b217      	sxth	r7, r2
     5ee:	2f3f      	cmp	r7, #63	; 0x3f
     5f0:	dd00      	ble.n	5f4 <_ZN14blink_nrf518227display4draw17haa5976ca818aacebE+0x14>
     5f2:	e134      	b.n	85e <_ZN14blink_nrf518227display4draw17haa5976ca818aacebE+0x27e>
     5f4:	7a05      	ldrb	r5, [r0, #8]
     5f6:	186b      	adds	r3, r5, r1
     5f8:	b21b      	sxth	r3, r3
     5fa:	2b01      	cmp	r3, #1
     5fc:	da00      	bge.n	600 <_ZN14blink_nrf518227display4draw17haa5976ca818aacebE+0x20>
     5fe:	e12e      	b.n	85e <_ZN14blink_nrf518227display4draw17haa5976ca818aacebE+0x27e>
     600:	7a44      	ldrb	r4, [r0, #9]
     602:	9009      	str	r0, [sp, #36]	; 0x24
     604:	4620      	mov	r0, r4
     606:	18a4      	adds	r4, r4, r2
     608:	b224      	sxth	r4, r4
     60a:	2c01      	cmp	r4, #1
     60c:	da00      	bge.n	610 <_ZN14blink_nrf518227display4draw17haa5976ca818aacebE+0x30>
     60e:	e126      	b.n	85e <_ZN14blink_nrf518227display4draw17haa5976ca818aacebE+0x27e>
     610:	9307      	str	r3, [sp, #28]
     612:	4614      	mov	r4, r2
     614:	430c      	orrs	r4, r1
     616:	2301      	movs	r3, #1
     618:	9308      	str	r3, [sp, #32]
     61a:	029b      	lsls	r3, r3, #10
     61c:	9306      	str	r3, [sp, #24]
     61e:	4b98      	ldr	r3, [pc, #608]	; (880 <_ZN14blink_nrf518227display4draw17haa5976ca818aacebE+0x2a0>)
     620:	421c      	tst	r4, r3
     622:	d120      	bne.n	666 <_ZN14blink_nrf518227display4draw17haa5976ca818aacebE+0x86>
     624:	2d80      	cmp	r5, #128	; 0x80
     626:	d11e      	bne.n	666 <_ZN14blink_nrf518227display4draw17haa5976ca818aacebE+0x86>
     628:	2840      	cmp	r0, #64	; 0x40
     62a:	d11c      	bne.n	666 <_ZN14blink_nrf518227display4draw17haa5976ca818aacebE+0x86>
     62c:	9a06      	ldr	r2, [sp, #24]
     62e:	9809      	ldr	r0, [sp, #36]	; 0x24
     630:	6841      	ldr	r1, [r0, #4]
     632:	4291      	cmp	r1, r2
     634:	d300      	bcc.n	638 <_ZN14blink_nrf518227display4draw17haa5976ca818aacebE+0x58>
     636:	4611      	mov	r1, r2
     638:	2900      	cmp	r1, #0
     63a:	d00a      	beq.n	652 <_ZN14blink_nrf518227display4draw17haa5976ca818aacebE+0x72>
     63c:	6800      	ldr	r0, [r0, #0]
     63e:	2200      	movs	r2, #0
     640:	4b96      	ldr	r3, [pc, #600]	; (89c <_ZN14blink_nrf518227display4draw17haa5976ca818aacebE+0x2bc>)
     642:	189c      	adds	r4, r3, r2
     644:	2c00      	cmp	r4, #0
     646:	d004      	beq.n	652 <_ZN14blink_nrf518227display4draw17haa5976ca818aacebE+0x72>
     648:	5c85      	ldrb	r5, [r0, r2]
     64a:	7025      	strb	r5, [r4, #0]
     64c:	1c52      	adds	r2, r2, #1
     64e:	428a      	cmp	r2, r1
     650:	d3f7      	bcc.n	642 <_ZN14blink_nrf518227display4draw17haa5976ca818aacebE+0x62>
     652:	2001      	movs	r0, #1
     654:	0280      	lsls	r0, r0, #10
     656:	4991      	ldr	r1, [pc, #580]	; (89c <_ZN14blink_nrf518227display4draw17haa5976ca818aacebE+0x2bc>)
     658:	2200      	movs	r2, #0
     65a:	540a      	strb	r2, [r1, r0]
     65c:	4890      	ldr	r0, [pc, #576]	; (8a0 <_ZN14blink_nrf518227display4draw17haa5976ca818aacebE+0x2c0>)
     65e:	2207      	movs	r2, #7
     660:	540a      	strb	r2, [r1, r0]
     662:	b011      	add	sp, #68	; 0x44
     664:	bdf0      	pop	{r4, r5, r6, r7, pc}
     666:	4d87      	ldr	r5, [pc, #540]	; (884 <_ZN14blink_nrf518227display4draw17haa5976ca818aacebE+0x2a4>)
     668:	4015      	ands	r5, r2
     66a:	2f3f      	cmp	r7, #63	; 0x3f
     66c:	dc6b      	bgt.n	746 <_ZN14blink_nrf518227display4draw17haa5976ca818aacebE+0x166>
     66e:	2d00      	cmp	r5, #0
     670:	d169      	bne.n	746 <_ZN14blink_nrf518227display4draw17haa5976ca818aacebE+0x166>
     672:	2808      	cmp	r0, #8
     674:	d167      	bne.n	746 <_ZN14blink_nrf518227display4draw17haa5976ca818aacebE+0x166>
     676:	2500      	movs	r5, #0
     678:	2e00      	cmp	r6, #0
     67a:	9505      	str	r5, [sp, #20]
     67c:	db00      	blt.n	680 <_ZN14blink_nrf518227display4draw17haa5976ca818aacebE+0xa0>
     67e:	460d      	mov	r5, r1
     680:	b22b      	sxth	r3, r5
     682:	0f38      	lsrs	r0, r7, #28
     684:	2407      	movs	r4, #7
     686:	4004      	ands	r4, r0
     688:	1910      	adds	r0, r2, r4
     68a:	b200      	sxth	r0, r0
     68c:	10c0      	asrs	r0, r0, #3
     68e:	9004      	str	r0, [sp, #16]
     690:	01c0      	lsls	r0, r0, #7
     692:	22ff      	movs	r2, #255	; 0xff
     694:	01d7      	lsls	r7, r2, #7
     696:	4007      	ands	r7, r0
     698:	9303      	str	r3, [sp, #12]
     69a:	18f8      	adds	r0, r7, r3
     69c:	227f      	movs	r2, #127	; 0x7f
     69e:	9b07      	ldr	r3, [sp, #28]
     6a0:	2b7f      	cmp	r3, #127	; 0x7f
     6a2:	dc00      	bgt.n	6a6 <_ZN14blink_nrf518227display4draw17haa5976ca818aacebE+0xc6>
     6a4:	461a      	mov	r2, r3
     6a6:	1b53      	subs	r3, r2, r5
     6a8:	b21a      	sxth	r2, r3
     6aa:	1814      	adds	r4, r2, r0
     6ac:	4294      	cmp	r4, r2
     6ae:	d201      	bcs.n	6b4 <_ZN14blink_nrf518227display4draw17haa5976ca818aacebE+0xd4>
     6b0:	9d08      	ldr	r5, [sp, #32]
     6b2:	9505      	str	r5, [sp, #20]
     6b4:	4249      	negs	r1, r1
     6b6:	b209      	sxth	r1, r1
     6b8:	17f5      	asrs	r5, r6, #31
     6ba:	400d      	ands	r5, r1
     6bc:	9905      	ldr	r1, [sp, #20]
     6be:	2900      	cmp	r1, #0
     6c0:	d000      	beq.n	6c4 <_ZN14blink_nrf518227display4draw17haa5976ca818aacebE+0xe4>
     6c2:	e0ce      	b.n	862 <_ZN14blink_nrf518227display4draw17haa5976ca818aacebE+0x282>
     6c4:	9308      	str	r3, [sp, #32]
     6c6:	9007      	str	r0, [sp, #28]
     6c8:	9806      	ldr	r0, [sp, #24]
     6ca:	4284      	cmp	r4, r0
     6cc:	d900      	bls.n	6d0 <_ZN14blink_nrf518227display4draw17haa5976ca818aacebE+0xf0>
     6ce:	e0cb      	b.n	868 <_ZN14blink_nrf518227display4draw17haa5976ca818aacebE+0x288>
     6d0:	9809      	ldr	r0, [sp, #36]	; 0x24
     6d2:	6804      	ldr	r4, [r0, #0]
     6d4:	6841      	ldr	r1, [r0, #4]
     6d6:	1953      	adds	r3, r2, r5
     6d8:	2000      	movs	r0, #0
     6da:	2601      	movs	r6, #1
     6dc:	4293      	cmp	r3, r2
     6de:	d200      	bcs.n	6e2 <_ZN14blink_nrf518227display4draw17haa5976ca818aacebE+0x102>
     6e0:	4630      	mov	r0, r6
     6e2:	2800      	cmp	r0, #0
     6e4:	d000      	beq.n	6e8 <_ZN14blink_nrf518227display4draw17haa5976ca818aacebE+0x108>
     6e6:	e0c3      	b.n	870 <_ZN14blink_nrf518227display4draw17haa5976ca818aacebE+0x290>
     6e8:	428b      	cmp	r3, r1
     6ea:	d900      	bls.n	6ee <_ZN14blink_nrf518227display4draw17haa5976ca818aacebE+0x10e>
     6ec:	e0c4      	b.n	878 <_ZN14blink_nrf518227display4draw17haa5976ca818aacebE+0x298>
     6ee:	1960      	adds	r0, r4, r5
     6f0:	4963      	ldr	r1, [pc, #396]	; (880 <_ZN14blink_nrf518227display4draw17haa5976ca818aacebE+0x2a0>)
     6f2:	9b08      	ldr	r3, [sp, #32]
     6f4:	420b      	tst	r3, r1
     6f6:	d00f      	beq.n	718 <_ZN14blink_nrf518227display4draw17haa5976ca818aacebE+0x138>
     6f8:	4b68      	ldr	r3, [pc, #416]	; (89c <_ZN14blink_nrf518227display4draw17haa5976ca818aacebE+0x2bc>)
     6fa:	9907      	ldr	r1, [sp, #28]
     6fc:	1859      	adds	r1, r3, r1
     6fe:	425b      	negs	r3, r3
     700:	9c03      	ldr	r4, [sp, #12]
     702:	1b1b      	subs	r3, r3, r4
     704:	1bdb      	subs	r3, r3, r7
     706:	2400      	movs	r4, #0
     708:	190d      	adds	r5, r1, r4
     70a:	42a3      	cmp	r3, r4
     70c:	d004      	beq.n	718 <_ZN14blink_nrf518227display4draw17haa5976ca818aacebE+0x138>
     70e:	5d06      	ldrb	r6, [r0, r4]
     710:	702e      	strb	r6, [r5, #0]
     712:	1c64      	adds	r4, r4, #1
     714:	4294      	cmp	r4, r2
     716:	d3f7      	bcc.n	708 <_ZN14blink_nrf518227display4draw17haa5976ca818aacebE+0x128>
     718:	2001      	movs	r0, #1
     71a:	0281      	lsls	r1, r0, #10
     71c:	485f      	ldr	r0, [pc, #380]	; (89c <_ZN14blink_nrf518227display4draw17haa5976ca818aacebE+0x2bc>)
     71e:	5c43      	ldrb	r3, [r0, r1]
     720:	9d04      	ldr	r5, [sp, #16]
     722:	b2ea      	uxtb	r2, r5
     724:	4293      	cmp	r3, r2
     726:	462c      	mov	r4, r5
     728:	d200      	bcs.n	72c <_ZN14blink_nrf518227display4draw17haa5976ca818aacebE+0x14c>
     72a:	461c      	mov	r4, r3
     72c:	5444      	strb	r4, [r0, r1]
     72e:	495c      	ldr	r1, [pc, #368]	; (8a0 <_ZN14blink_nrf518227display4draw17haa5976ca818aacebE+0x2c0>)
     730:	5c43      	ldrb	r3, [r0, r1]
     732:	4293      	cmp	r3, r2
     734:	461a      	mov	r2, r3
     736:	d200      	bcs.n	73a <_ZN14blink_nrf518227display4draw17haa5976ca818aacebE+0x15a>
     738:	462a      	mov	r2, r5
     73a:	2b07      	cmp	r3, #7
     73c:	d800      	bhi.n	740 <_ZN14blink_nrf518227display4draw17haa5976ca818aacebE+0x160>
     73e:	4615      	mov	r5, r2
     740:	5445      	strb	r5, [r0, r1]
     742:	b011      	add	sp, #68	; 0x44
     744:	bdf0      	pop	{r4, r5, r6, r7, pc}
     746:	2808      	cmp	r0, #8
     748:	d176      	bne.n	838 <_ZN14blink_nrf518227display4draw17haa5976ca818aacebE+0x258>
     74a:	2500      	movs	r5, #0
     74c:	2e00      	cmp	r6, #0
     74e:	462b      	mov	r3, r5
     750:	db00      	blt.n	754 <_ZN14blink_nrf518227display4draw17haa5976ca818aacebE+0x174>
     752:	460b      	mov	r3, r1
     754:	b218      	sxth	r0, r3
     756:	9006      	str	r0, [sp, #24]
     758:	0f38      	lsrs	r0, r7, #28
     75a:	2407      	movs	r4, #7
     75c:	4020      	ands	r0, r4
     75e:	1810      	adds	r0, r2, r0
     760:	b200      	sxth	r0, r0
     762:	10c0      	asrs	r0, r0, #3
     764:	9004      	str	r0, [sp, #16]
     766:	43e8      	mvns	r0, r5
     768:	2f00      	cmp	r7, #0
     76a:	9005      	str	r0, [sp, #20]
     76c:	4607      	mov	r7, r0
     76e:	db00      	blt.n	772 <_ZN14blink_nrf518227display4draw17haa5976ca818aacebE+0x192>
     770:	9f04      	ldr	r7, [sp, #16]
     772:	01f8      	lsls	r0, r7, #7
     774:	9d06      	ldr	r5, [sp, #24]
     776:	1940      	adds	r0, r0, r5
     778:	9006      	str	r0, [sp, #24]
     77a:	257f      	movs	r5, #127	; 0x7f
     77c:	9807      	ldr	r0, [sp, #28]
     77e:	287f      	cmp	r0, #127	; 0x7f
     780:	dc00      	bgt.n	784 <_ZN14blink_nrf518227display4draw17haa5976ca818aacebE+0x1a4>
     782:	4605      	mov	r5, r0
     784:	1ae8      	subs	r0, r5, r3
     786:	b203      	sxth	r3, r0
     788:	4248      	negs	r0, r1
     78a:	b200      	sxth	r0, r0
     78c:	17f6      	asrs	r6, r6, #31
     78e:	4006      	ands	r6, r0
     790:	3208      	adds	r2, #8
     792:	b210      	sxth	r0, r2
     794:	0f00      	lsrs	r0, r0, #28
     796:	4020      	ands	r0, r4
     798:	1810      	adds	r0, r2, r0
     79a:	43a0      	bics	r0, r4
     79c:	1a14      	subs	r4, r2, r0
     79e:	9809      	ldr	r0, [sp, #36]	; 0x24
     7a0:	6805      	ldr	r5, [r0, #0]
     7a2:	6841      	ldr	r1, [r0, #4]
     7a4:	2f00      	cmp	r7, #0
     7a6:	db25      	blt.n	7f4 <_ZN14blink_nrf518227display4draw17haa5976ca818aacebE+0x214>
     7a8:	4668      	mov	r0, sp
     7aa:	6006      	str	r6, [r0, #0]
     7ac:	9309      	str	r3, [sp, #36]	; 0x24
     7ae:	6043      	str	r3, [r0, #4]
     7b0:	9507      	str	r5, [sp, #28]
     7b2:	4628      	mov	r0, r5
     7b4:	9104      	str	r1, [sp, #16]
     7b6:	4622      	mov	r2, r4
     7b8:	9b06      	ldr	r3, [sp, #24]
     7ba:	f7ff fea1 	bl	500 <_ZN14blink_nrf518227display11slice_paint17hd92e3b939cf48568E>
     7be:	9808      	ldr	r0, [sp, #32]
     7c0:	0281      	lsls	r1, r0, #10
     7c2:	4836      	ldr	r0, [pc, #216]	; (89c <_ZN14blink_nrf518227display4draw17haa5976ca818aacebE+0x2bc>)
     7c4:	5c43      	ldrb	r3, [r0, r1]
     7c6:	b2fa      	uxtb	r2, r7
     7c8:	4293      	cmp	r3, r2
     7ca:	463d      	mov	r5, r7
     7cc:	d200      	bcs.n	7d0 <_ZN14blink_nrf518227display4draw17haa5976ca818aacebE+0x1f0>
     7ce:	461d      	mov	r5, r3
     7d0:	5445      	strb	r5, [r0, r1]
     7d2:	4d33      	ldr	r5, [pc, #204]	; (8a0 <_ZN14blink_nrf518227display4draw17haa5976ca818aacebE+0x2c0>)
     7d4:	5d43      	ldrb	r3, [r0, r5]
     7d6:	4293      	cmp	r3, r2
     7d8:	461a      	mov	r2, r3
     7da:	d200      	bcs.n	7de <_ZN14blink_nrf518227display4draw17haa5976ca818aacebE+0x1fe>
     7dc:	463a      	mov	r2, r7
     7de:	2b07      	cmp	r3, #7
     7e0:	463b      	mov	r3, r7
     7e2:	9904      	ldr	r1, [sp, #16]
     7e4:	d800      	bhi.n	7e8 <_ZN14blink_nrf518227display4draw17haa5976ca818aacebE+0x208>
     7e6:	4613      	mov	r3, r2
     7e8:	5543      	strb	r3, [r0, r5]
     7ea:	b238      	sxth	r0, r7
     7ec:	2806      	cmp	r0, #6
     7ee:	9b09      	ldr	r3, [sp, #36]	; 0x24
     7f0:	9d07      	ldr	r5, [sp, #28]
     7f2:	dc34      	bgt.n	85e <_ZN14blink_nrf518227display4draw17haa5976ca818aacebE+0x27e>
     7f4:	4668      	mov	r0, sp
     7f6:	6006      	str	r6, [r0, #0]
     7f8:	6043      	str	r3, [r0, #4]
     7fa:	9805      	ldr	r0, [sp, #20]
     7fc:	1820      	adds	r0, r4, r0
     7fe:	1fc2      	subs	r2, r0, #7
     800:	9b06      	ldr	r3, [sp, #24]
     802:	3380      	adds	r3, #128	; 0x80
     804:	4628      	mov	r0, r5
     806:	f7ff fe7b 	bl	500 <_ZN14blink_nrf518227display11slice_paint17hd92e3b939cf48568E>
     80a:	9808      	ldr	r0, [sp, #32]
     80c:	0282      	lsls	r2, r0, #10
     80e:	4823      	ldr	r0, [pc, #140]	; (89c <_ZN14blink_nrf518227display4draw17haa5976ca818aacebE+0x2bc>)
     810:	5c84      	ldrb	r4, [r0, r2]
     812:	1c79      	adds	r1, r7, #1
     814:	b2cb      	uxtb	r3, r1
     816:	429c      	cmp	r4, r3
     818:	460d      	mov	r5, r1
     81a:	d200      	bcs.n	81e <_ZN14blink_nrf518227display4draw17haa5976ca818aacebE+0x23e>
     81c:	4625      	mov	r5, r4
     81e:	5485      	strb	r5, [r0, r2]
     820:	4a1f      	ldr	r2, [pc, #124]	; (8a0 <_ZN14blink_nrf518227display4draw17haa5976ca818aacebE+0x2c0>)
     822:	5c84      	ldrb	r4, [r0, r2]
     824:	429c      	cmp	r4, r3
     826:	4623      	mov	r3, r4
     828:	d200      	bcs.n	82c <_ZN14blink_nrf518227display4draw17haa5976ca818aacebE+0x24c>
     82a:	460b      	mov	r3, r1
     82c:	2c07      	cmp	r4, #7
     82e:	d800      	bhi.n	832 <_ZN14blink_nrf518227display4draw17haa5976ca818aacebE+0x252>
     830:	4619      	mov	r1, r3
     832:	5481      	strb	r1, [r0, r2]
     834:	b011      	add	sp, #68	; 0x44
     836:	bdf0      	pop	{r4, r5, r6, r7, pc}
     838:	4813      	ldr	r0, [pc, #76]	; (888 <_ZN14blink_nrf518227display4draw17haa5976ca818aacebE+0x2a8>)
     83a:	900a      	str	r0, [sp, #40]	; 0x28
     83c:	9808      	ldr	r0, [sp, #32]
     83e:	900b      	str	r0, [sp, #44]	; 0x2c
     840:	2400      	movs	r4, #0
     842:	940c      	str	r4, [sp, #48]	; 0x30
     844:	4811      	ldr	r0, [pc, #68]	; (88c <_ZN14blink_nrf518227display4draw17haa5976ca818aacebE+0x2ac>)
     846:	900e      	str	r0, [sp, #56]	; 0x38
     848:	940f      	str	r4, [sp, #60]	; 0x3c
     84a:	a810      	add	r0, sp, #64	; 0x40
     84c:	4910      	ldr	r1, [pc, #64]	; (890 <_ZN14blink_nrf518227display4draw17haa5976ca818aacebE+0x2b0>)
     84e:	aa0a      	add	r2, sp, #40	; 0x28
     850:	f003 f878 	bl	3944 <_ZN4core3fmt5write17h56e3d15cb4a744eaE>
     854:	480f      	ldr	r0, [pc, #60]	; (894 <_ZN14blink_nrf518227display4draw17haa5976ca818aacebE+0x2b4>)
     856:	4910      	ldr	r1, [pc, #64]	; (898 <_ZN14blink_nrf518227display4draw17haa5976ca818aacebE+0x2b8>)
     858:	4622      	mov	r2, r4
     85a:	f002 fd15 	bl	3288 <_ZN4zinc3hal8nrf518224uart4Uart7writeln17h3374573b82f4d38aE>
     85e:	b011      	add	sp, #68	; 0x44
     860:	bdf0      	pop	{r4, r5, r6, r7, pc}
     862:	4621      	mov	r1, r4
     864:	f002 ffc6 	bl	37f4 <_ZN4core5slice22slice_index_order_fail17h645d2e1a34e44416E>
     868:	4601      	mov	r1, r0
     86a:	4620      	mov	r0, r4
     86c:	f002 ffa4 	bl	37b8 <_ZN4core5slice20slice_index_len_fail17hd87e5524007fa8c3E>
     870:	4628      	mov	r0, r5
     872:	4619      	mov	r1, r3
     874:	f002 ffbe 	bl	37f4 <_ZN4core5slice22slice_index_order_fail17h645d2e1a34e44416E>
     878:	4618      	mov	r0, r3
     87a:	f002 ff9d 	bl	37b8 <_ZN4core5slice20slice_index_len_fail17hd87e5524007fa8c3E>
     87e:	46c0      	nop			; (mov r8, r8)
     880:	0000ffff 	.word	0x0000ffff
     884:	00008007 	.word	0x00008007
     888:	0000c8d0 	.word	0x0000c8d0
     88c:	00006648 	.word	0x00006648
     890:	00006630 	.word	0x00006630
     894:	00006469 	.word	0x00006469
     898:	00006648 	.word	0x00006648
     89c:	2000001c 	.word	0x2000001c
     8a0:	00000401 	.word	0x00000401

000008a4 <_ZN14blink_nrf518227display11clear_image17h8a05d38a1b3eda46E>:
     8a4:	b5f0      	push	{r4, r5, r6, r7, lr}
     8a6:	b091      	sub	sp, #68	; 0x44
     8a8:	b20f      	sxth	r7, r1
     8aa:	2f7f      	cmp	r7, #127	; 0x7f
     8ac:	dd00      	ble.n	8b0 <_ZN14blink_nrf518227display11clear_image17h8a05d38a1b3eda46E+0xc>
     8ae:	e14c      	b.n	b4a <_ZN14blink_nrf518227display11clear_image17h8a05d38a1b3eda46E+0x2a6>
     8b0:	b215      	sxth	r5, r2
     8b2:	2d3f      	cmp	r5, #63	; 0x3f
     8b4:	dd00      	ble.n	8b8 <_ZN14blink_nrf518227display11clear_image17h8a05d38a1b3eda46E+0x14>
     8b6:	e148      	b.n	b4a <_ZN14blink_nrf518227display11clear_image17h8a05d38a1b3eda46E+0x2a6>
     8b8:	7a06      	ldrb	r6, [r0, #8]
     8ba:	1873      	adds	r3, r6, r1
     8bc:	b21b      	sxth	r3, r3
     8be:	2b01      	cmp	r3, #1
     8c0:	da00      	bge.n	8c4 <_ZN14blink_nrf518227display11clear_image17h8a05d38a1b3eda46E+0x20>
     8c2:	e142      	b.n	b4a <_ZN14blink_nrf518227display11clear_image17h8a05d38a1b3eda46E+0x2a6>
     8c4:	7a44      	ldrb	r4, [r0, #9]
     8c6:	9008      	str	r0, [sp, #32]
     8c8:	9407      	str	r4, [sp, #28]
     8ca:	18a4      	adds	r4, r4, r2
     8cc:	b224      	sxth	r4, r4
     8ce:	2c01      	cmp	r4, #1
     8d0:	da00      	bge.n	8d4 <_ZN14blink_nrf518227display11clear_image17h8a05d38a1b3eda46E+0x30>
     8d2:	e13a      	b.n	b4a <_ZN14blink_nrf518227display11clear_image17h8a05d38a1b3eda46E+0x2a6>
     8d4:	9305      	str	r3, [sp, #20]
     8d6:	4614      	mov	r4, r2
     8d8:	430c      	orrs	r4, r1
     8da:	2301      	movs	r3, #1
     8dc:	9306      	str	r3, [sp, #24]
     8de:	0298      	lsls	r0, r3, #10
     8e0:	9004      	str	r0, [sp, #16]
     8e2:	20ff      	movs	r0, #255	; 0xff
     8e4:	9009      	str	r0, [sp, #36]	; 0x24
     8e6:	4ba0      	ldr	r3, [pc, #640]	; (b68 <_ZN14blink_nrf518227display11clear_image17h8a05d38a1b3eda46E+0x2c4>)
     8e8:	421c      	tst	r4, r3
     8ea:	d128      	bne.n	93e <_ZN14blink_nrf518227display11clear_image17h8a05d38a1b3eda46E+0x9a>
     8ec:	9b09      	ldr	r3, [sp, #36]	; 0x24
     8ee:	3b7f      	subs	r3, #127	; 0x7f
     8f0:	b2db      	uxtb	r3, r3
     8f2:	429e      	cmp	r6, r3
     8f4:	d123      	bne.n	93e <_ZN14blink_nrf518227display11clear_image17h8a05d38a1b3eda46E+0x9a>
     8f6:	9807      	ldr	r0, [sp, #28]
     8f8:	2840      	cmp	r0, #64	; 0x40
     8fa:	d120      	bne.n	93e <_ZN14blink_nrf518227display11clear_image17h8a05d38a1b3eda46E+0x9a>
     8fc:	9808      	ldr	r0, [sp, #32]
     8fe:	6841      	ldr	r1, [r0, #4]
     900:	9a04      	ldr	r2, [sp, #16]
     902:	4291      	cmp	r1, r2
     904:	d300      	bcc.n	908 <_ZN14blink_nrf518227display11clear_image17h8a05d38a1b3eda46E+0x64>
     906:	4611      	mov	r1, r2
     908:	2900      	cmp	r1, #0
     90a:	d00e      	beq.n	92a <_ZN14blink_nrf518227display11clear_image17h8a05d38a1b3eda46E+0x86>
     90c:	6800      	ldr	r0, [r0, #0]
     90e:	2200      	movs	r2, #0
     910:	4b9c      	ldr	r3, [pc, #624]	; (b84 <_ZN14blink_nrf518227display11clear_image17h8a05d38a1b3eda46E+0x2e0>)
     912:	189c      	adds	r4, r3, r2
     914:	2c00      	cmp	r4, #0
     916:	d008      	beq.n	92a <_ZN14blink_nrf518227display11clear_image17h8a05d38a1b3eda46E+0x86>
     918:	5c85      	ldrb	r5, [r0, r2]
     91a:	9e09      	ldr	r6, [sp, #36]	; 0x24
     91c:	4075      	eors	r5, r6
     91e:	7826      	ldrb	r6, [r4, #0]
     920:	402e      	ands	r6, r5
     922:	7026      	strb	r6, [r4, #0]
     924:	1c52      	adds	r2, r2, #1
     926:	428a      	cmp	r2, r1
     928:	d3f3      	bcc.n	912 <_ZN14blink_nrf518227display11clear_image17h8a05d38a1b3eda46E+0x6e>
     92a:	2001      	movs	r0, #1
     92c:	0280      	lsls	r0, r0, #10
     92e:	4995      	ldr	r1, [pc, #596]	; (b84 <_ZN14blink_nrf518227display11clear_image17h8a05d38a1b3eda46E+0x2e0>)
     930:	2200      	movs	r2, #0
     932:	540a      	strb	r2, [r1, r0]
     934:	4894      	ldr	r0, [pc, #592]	; (b88 <_ZN14blink_nrf518227display11clear_image17h8a05d38a1b3eda46E+0x2e4>)
     936:	2207      	movs	r2, #7
     938:	540a      	strb	r2, [r1, r0]
     93a:	b011      	add	sp, #68	; 0x44
     93c:	bdf0      	pop	{r4, r5, r6, r7, pc}
     93e:	4e8b      	ldr	r6, [pc, #556]	; (b6c <_ZN14blink_nrf518227display11clear_image17h8a05d38a1b3eda46E+0x2c8>)
     940:	4016      	ands	r6, r2
     942:	2d3f      	cmp	r5, #63	; 0x3f
     944:	9c08      	ldr	r4, [sp, #32]
     946:	dc70      	bgt.n	a2a <_ZN14blink_nrf518227display11clear_image17h8a05d38a1b3eda46E+0x186>
     948:	2e00      	cmp	r6, #0
     94a:	d16e      	bne.n	a2a <_ZN14blink_nrf518227display11clear_image17h8a05d38a1b3eda46E+0x186>
     94c:	9807      	ldr	r0, [sp, #28]
     94e:	2808      	cmp	r0, #8
     950:	d16b      	bne.n	a2a <_ZN14blink_nrf518227display11clear_image17h8a05d38a1b3eda46E+0x186>
     952:	2600      	movs	r6, #0
     954:	2f00      	cmp	r7, #0
     956:	9607      	str	r6, [sp, #28]
     958:	db00      	blt.n	95c <_ZN14blink_nrf518227display11clear_image17h8a05d38a1b3eda46E+0xb8>
     95a:	460e      	mov	r6, r1
     95c:	b233      	sxth	r3, r6
     95e:	0f28      	lsrs	r0, r5, #28
     960:	2407      	movs	r4, #7
     962:	4004      	ands	r4, r0
     964:	1910      	adds	r0, r2, r4
     966:	b200      	sxth	r0, r0
     968:	10c4      	asrs	r4, r0, #3
     96a:	01e0      	lsls	r0, r4, #7
     96c:	9a09      	ldr	r2, [sp, #36]	; 0x24
     96e:	01d2      	lsls	r2, r2, #7
     970:	4002      	ands	r2, r0
     972:	9303      	str	r3, [sp, #12]
     974:	9202      	str	r2, [sp, #8]
     976:	18d0      	adds	r0, r2, r3
     978:	227f      	movs	r2, #127	; 0x7f
     97a:	9b05      	ldr	r3, [sp, #20]
     97c:	2b7f      	cmp	r3, #127	; 0x7f
     97e:	dc00      	bgt.n	982 <_ZN14blink_nrf518227display11clear_image17h8a05d38a1b3eda46E+0xde>
     980:	461a      	mov	r2, r3
     982:	9405      	str	r4, [sp, #20]
     984:	1b93      	subs	r3, r2, r6
     986:	b21a      	sxth	r2, r3
     988:	1814      	adds	r4, r2, r0
     98a:	4294      	cmp	r4, r2
     98c:	9e07      	ldr	r6, [sp, #28]
     98e:	d200      	bcs.n	992 <_ZN14blink_nrf518227display11clear_image17h8a05d38a1b3eda46E+0xee>
     990:	9e06      	ldr	r6, [sp, #24]
     992:	4249      	negs	r1, r1
     994:	b209      	sxth	r1, r1
     996:	17fd      	asrs	r5, r7, #31
     998:	400d      	ands	r5, r1
     99a:	2e00      	cmp	r6, #0
     99c:	d000      	beq.n	9a0 <_ZN14blink_nrf518227display11clear_image17h8a05d38a1b3eda46E+0xfc>
     99e:	e0d6      	b.n	b4e <_ZN14blink_nrf518227display11clear_image17h8a05d38a1b3eda46E+0x2aa>
     9a0:	461f      	mov	r7, r3
     9a2:	9007      	str	r0, [sp, #28]
     9a4:	9904      	ldr	r1, [sp, #16]
     9a6:	428c      	cmp	r4, r1
     9a8:	d900      	bls.n	9ac <_ZN14blink_nrf518227display11clear_image17h8a05d38a1b3eda46E+0x108>
     9aa:	e0d3      	b.n	b54 <_ZN14blink_nrf518227display11clear_image17h8a05d38a1b3eda46E+0x2b0>
     9ac:	9808      	ldr	r0, [sp, #32]
     9ae:	6804      	ldr	r4, [r0, #0]
     9b0:	6841      	ldr	r1, [r0, #4]
     9b2:	1953      	adds	r3, r2, r5
     9b4:	2000      	movs	r0, #0
     9b6:	2601      	movs	r6, #1
     9b8:	4293      	cmp	r3, r2
     9ba:	d200      	bcs.n	9be <_ZN14blink_nrf518227display11clear_image17h8a05d38a1b3eda46E+0x11a>
     9bc:	4630      	mov	r0, r6
     9be:	2800      	cmp	r0, #0
     9c0:	d000      	beq.n	9c4 <_ZN14blink_nrf518227display11clear_image17h8a05d38a1b3eda46E+0x120>
     9c2:	e0ca      	b.n	b5a <_ZN14blink_nrf518227display11clear_image17h8a05d38a1b3eda46E+0x2b6>
     9c4:	428b      	cmp	r3, r1
     9c6:	d900      	bls.n	9ca <_ZN14blink_nrf518227display11clear_image17h8a05d38a1b3eda46E+0x126>
     9c8:	e0cb      	b.n	b62 <_ZN14blink_nrf518227display11clear_image17h8a05d38a1b3eda46E+0x2be>
     9ca:	1960      	adds	r0, r4, r5
     9cc:	4966      	ldr	r1, [pc, #408]	; (b68 <_ZN14blink_nrf518227display11clear_image17h8a05d38a1b3eda46E+0x2c4>)
     9ce:	420f      	tst	r7, r1
     9d0:	d014      	beq.n	9fc <_ZN14blink_nrf518227display11clear_image17h8a05d38a1b3eda46E+0x158>
     9d2:	4b6c      	ldr	r3, [pc, #432]	; (b84 <_ZN14blink_nrf518227display11clear_image17h8a05d38a1b3eda46E+0x2e0>)
     9d4:	9907      	ldr	r1, [sp, #28]
     9d6:	1859      	adds	r1, r3, r1
     9d8:	425b      	negs	r3, r3
     9da:	9c03      	ldr	r4, [sp, #12]
     9dc:	1b1b      	subs	r3, r3, r4
     9de:	9c02      	ldr	r4, [sp, #8]
     9e0:	1b1b      	subs	r3, r3, r4
     9e2:	2400      	movs	r4, #0
     9e4:	190d      	adds	r5, r1, r4
     9e6:	42a3      	cmp	r3, r4
     9e8:	d008      	beq.n	9fc <_ZN14blink_nrf518227display11clear_image17h8a05d38a1b3eda46E+0x158>
     9ea:	5d06      	ldrb	r6, [r0, r4]
     9ec:	9f09      	ldr	r7, [sp, #36]	; 0x24
     9ee:	407e      	eors	r6, r7
     9f0:	782f      	ldrb	r7, [r5, #0]
     9f2:	4037      	ands	r7, r6
     9f4:	702f      	strb	r7, [r5, #0]
     9f6:	1c64      	adds	r4, r4, #1
     9f8:	4294      	cmp	r4, r2
     9fa:	d3f3      	bcc.n	9e4 <_ZN14blink_nrf518227display11clear_image17h8a05d38a1b3eda46E+0x140>
     9fc:	2001      	movs	r0, #1
     9fe:	0281      	lsls	r1, r0, #10
     a00:	4860      	ldr	r0, [pc, #384]	; (b84 <_ZN14blink_nrf518227display11clear_image17h8a05d38a1b3eda46E+0x2e0>)
     a02:	5c43      	ldrb	r3, [r0, r1]
     a04:	9d05      	ldr	r5, [sp, #20]
     a06:	b2ea      	uxtb	r2, r5
     a08:	4293      	cmp	r3, r2
     a0a:	462c      	mov	r4, r5
     a0c:	d200      	bcs.n	a10 <_ZN14blink_nrf518227display11clear_image17h8a05d38a1b3eda46E+0x16c>
     a0e:	461c      	mov	r4, r3
     a10:	5444      	strb	r4, [r0, r1]
     a12:	495d      	ldr	r1, [pc, #372]	; (b88 <_ZN14blink_nrf518227display11clear_image17h8a05d38a1b3eda46E+0x2e4>)
     a14:	5c43      	ldrb	r3, [r0, r1]
     a16:	4293      	cmp	r3, r2
     a18:	461a      	mov	r2, r3
     a1a:	d200      	bcs.n	a1e <_ZN14blink_nrf518227display11clear_image17h8a05d38a1b3eda46E+0x17a>
     a1c:	462a      	mov	r2, r5
     a1e:	2b07      	cmp	r3, #7
     a20:	d800      	bhi.n	a24 <_ZN14blink_nrf518227display11clear_image17h8a05d38a1b3eda46E+0x180>
     a22:	4615      	mov	r5, r2
     a24:	5445      	strb	r5, [r0, r1]
     a26:	b011      	add	sp, #68	; 0x44
     a28:	bdf0      	pop	{r4, r5, r6, r7, pc}
     a2a:	9807      	ldr	r0, [sp, #28]
     a2c:	2808      	cmp	r0, #8
     a2e:	d179      	bne.n	b24 <_ZN14blink_nrf518227display11clear_image17h8a05d38a1b3eda46E+0x280>
     a30:	2600      	movs	r6, #0
     a32:	2f00      	cmp	r7, #0
     a34:	4630      	mov	r0, r6
     a36:	db00      	blt.n	a3a <_ZN14blink_nrf518227display11clear_image17h8a05d38a1b3eda46E+0x196>
     a38:	4608      	mov	r0, r1
     a3a:	9004      	str	r0, [sp, #16]
     a3c:	b200      	sxth	r0, r0
     a3e:	9009      	str	r0, [sp, #36]	; 0x24
     a40:	0f28      	lsrs	r0, r5, #28
     a42:	2307      	movs	r3, #7
     a44:	9307      	str	r3, [sp, #28]
     a46:	4018      	ands	r0, r3
     a48:	1810      	adds	r0, r2, r0
     a4a:	b200      	sxth	r0, r0
     a4c:	10c3      	asrs	r3, r0, #3
     a4e:	43f0      	mvns	r0, r6
     a50:	2d00      	cmp	r5, #0
     a52:	9003      	str	r0, [sp, #12]
     a54:	4605      	mov	r5, r0
     a56:	db00      	blt.n	a5a <_ZN14blink_nrf518227display11clear_image17h8a05d38a1b3eda46E+0x1b6>
     a58:	461d      	mov	r5, r3
     a5a:	01e8      	lsls	r0, r5, #7
     a5c:	9b09      	ldr	r3, [sp, #36]	; 0x24
     a5e:	18c0      	adds	r0, r0, r3
     a60:	9009      	str	r0, [sp, #36]	; 0x24
     a62:	267f      	movs	r6, #127	; 0x7f
     a64:	9805      	ldr	r0, [sp, #20]
     a66:	287f      	cmp	r0, #127	; 0x7f
     a68:	dc00      	bgt.n	a6c <_ZN14blink_nrf518227display11clear_image17h8a05d38a1b3eda46E+0x1c8>
     a6a:	4606      	mov	r6, r0
     a6c:	9804      	ldr	r0, [sp, #16]
     a6e:	1a30      	subs	r0, r6, r0
     a70:	b203      	sxth	r3, r0
     a72:	4248      	negs	r0, r1
     a74:	b200      	sxth	r0, r0
     a76:	17fe      	asrs	r6, r7, #31
     a78:	4006      	ands	r6, r0
     a7a:	3208      	adds	r2, #8
     a7c:	b210      	sxth	r0, r2
     a7e:	0f00      	lsrs	r0, r0, #28
     a80:	9907      	ldr	r1, [sp, #28]
     a82:	4008      	ands	r0, r1
     a84:	1810      	adds	r0, r2, r0
     a86:	4388      	bics	r0, r1
     a88:	1a17      	subs	r7, r2, r0
     a8a:	cc12      	ldmia	r4, {r1, r4}
     a8c:	2d00      	cmp	r5, #0
     a8e:	db26      	blt.n	ade <_ZN14blink_nrf518227display11clear_image17h8a05d38a1b3eda46E+0x23a>
     a90:	4668      	mov	r0, sp
     a92:	6006      	str	r6, [r0, #0]
     a94:	9308      	str	r3, [sp, #32]
     a96:	6043      	str	r3, [r0, #4]
     a98:	9107      	str	r1, [sp, #28]
     a9a:	4608      	mov	r0, r1
     a9c:	4621      	mov	r1, r4
     a9e:	463a      	mov	r2, r7
     aa0:	9b09      	ldr	r3, [sp, #36]	; 0x24
     aa2:	f7ff fcad 	bl	400 <_ZN14blink_nrf518227display11slice_paint17hbe2fd50aec4c889eE>
     aa6:	9806      	ldr	r0, [sp, #24]
     aa8:	0281      	lsls	r1, r0, #10
     aaa:	4836      	ldr	r0, [pc, #216]	; (b84 <_ZN14blink_nrf518227display11clear_image17h8a05d38a1b3eda46E+0x2e0>)
     aac:	5c43      	ldrb	r3, [r0, r1]
     aae:	b2ea      	uxtb	r2, r5
     ab0:	4293      	cmp	r3, r2
     ab2:	4628      	mov	r0, r5
     ab4:	d200      	bcs.n	ab8 <_ZN14blink_nrf518227display11clear_image17h8a05d38a1b3eda46E+0x214>
     ab6:	4618      	mov	r0, r3
     ab8:	4b32      	ldr	r3, [pc, #200]	; (b84 <_ZN14blink_nrf518227display11clear_image17h8a05d38a1b3eda46E+0x2e0>)
     aba:	5458      	strb	r0, [r3, r1]
     abc:	4932      	ldr	r1, [pc, #200]	; (b88 <_ZN14blink_nrf518227display11clear_image17h8a05d38a1b3eda46E+0x2e4>)
     abe:	5c5b      	ldrb	r3, [r3, r1]
     ac0:	4293      	cmp	r3, r2
     ac2:	461a      	mov	r2, r3
     ac4:	d200      	bcs.n	ac8 <_ZN14blink_nrf518227display11clear_image17h8a05d38a1b3eda46E+0x224>
     ac6:	462a      	mov	r2, r5
     ac8:	2b07      	cmp	r3, #7
     aca:	4628      	mov	r0, r5
     acc:	d800      	bhi.n	ad0 <_ZN14blink_nrf518227display11clear_image17h8a05d38a1b3eda46E+0x22c>
     ace:	4610      	mov	r0, r2
     ad0:	4a2c      	ldr	r2, [pc, #176]	; (b84 <_ZN14blink_nrf518227display11clear_image17h8a05d38a1b3eda46E+0x2e0>)
     ad2:	5450      	strb	r0, [r2, r1]
     ad4:	b228      	sxth	r0, r5
     ad6:	2806      	cmp	r0, #6
     ad8:	9b08      	ldr	r3, [sp, #32]
     ada:	9907      	ldr	r1, [sp, #28]
     adc:	dc35      	bgt.n	b4a <_ZN14blink_nrf518227display11clear_image17h8a05d38a1b3eda46E+0x2a6>
     ade:	4668      	mov	r0, sp
     ae0:	6006      	str	r6, [r0, #0]
     ae2:	6043      	str	r3, [r0, #4]
     ae4:	9803      	ldr	r0, [sp, #12]
     ae6:	1838      	adds	r0, r7, r0
     ae8:	1fc2      	subs	r2, r0, #7
     aea:	9b09      	ldr	r3, [sp, #36]	; 0x24
     aec:	3380      	adds	r3, #128	; 0x80
     aee:	4608      	mov	r0, r1
     af0:	4621      	mov	r1, r4
     af2:	f7ff fc85 	bl	400 <_ZN14blink_nrf518227display11slice_paint17hbe2fd50aec4c889eE>
     af6:	9806      	ldr	r0, [sp, #24]
     af8:	0282      	lsls	r2, r0, #10
     afa:	4822      	ldr	r0, [pc, #136]	; (b84 <_ZN14blink_nrf518227display11clear_image17h8a05d38a1b3eda46E+0x2e0>)
     afc:	5c84      	ldrb	r4, [r0, r2]
     afe:	1c69      	adds	r1, r5, #1
     b00:	b2cb      	uxtb	r3, r1
     b02:	429c      	cmp	r4, r3
     b04:	460d      	mov	r5, r1
     b06:	d200      	bcs.n	b0a <_ZN14blink_nrf518227display11clear_image17h8a05d38a1b3eda46E+0x266>
     b08:	4625      	mov	r5, r4
     b0a:	5485      	strb	r5, [r0, r2]
     b0c:	4a1e      	ldr	r2, [pc, #120]	; (b88 <_ZN14blink_nrf518227display11clear_image17h8a05d38a1b3eda46E+0x2e4>)
     b0e:	5c84      	ldrb	r4, [r0, r2]
     b10:	429c      	cmp	r4, r3
     b12:	4623      	mov	r3, r4
     b14:	d200      	bcs.n	b18 <_ZN14blink_nrf518227display11clear_image17h8a05d38a1b3eda46E+0x274>
     b16:	460b      	mov	r3, r1
     b18:	2c07      	cmp	r4, #7
     b1a:	d800      	bhi.n	b1e <_ZN14blink_nrf518227display11clear_image17h8a05d38a1b3eda46E+0x27a>
     b1c:	4619      	mov	r1, r3
     b1e:	5481      	strb	r1, [r0, r2]
     b20:	b011      	add	sp, #68	; 0x44
     b22:	bdf0      	pop	{r4, r5, r6, r7, pc}
     b24:	4812      	ldr	r0, [pc, #72]	; (b70 <_ZN14blink_nrf518227display11clear_image17h8a05d38a1b3eda46E+0x2cc>)
     b26:	900a      	str	r0, [sp, #40]	; 0x28
     b28:	9806      	ldr	r0, [sp, #24]
     b2a:	900b      	str	r0, [sp, #44]	; 0x2c
     b2c:	2400      	movs	r4, #0
     b2e:	940c      	str	r4, [sp, #48]	; 0x30
     b30:	4810      	ldr	r0, [pc, #64]	; (b74 <_ZN14blink_nrf518227display11clear_image17h8a05d38a1b3eda46E+0x2d0>)
     b32:	900e      	str	r0, [sp, #56]	; 0x38
     b34:	940f      	str	r4, [sp, #60]	; 0x3c
     b36:	a810      	add	r0, sp, #64	; 0x40
     b38:	490f      	ldr	r1, [pc, #60]	; (b78 <_ZN14blink_nrf518227display11clear_image17h8a05d38a1b3eda46E+0x2d4>)
     b3a:	aa0a      	add	r2, sp, #40	; 0x28
     b3c:	f002 ff02 	bl	3944 <_ZN4core3fmt5write17h56e3d15cb4a744eaE>
     b40:	480e      	ldr	r0, [pc, #56]	; (b7c <_ZN14blink_nrf518227display11clear_image17h8a05d38a1b3eda46E+0x2d8>)
     b42:	490f      	ldr	r1, [pc, #60]	; (b80 <_ZN14blink_nrf518227display11clear_image17h8a05d38a1b3eda46E+0x2dc>)
     b44:	4622      	mov	r2, r4
     b46:	f002 fb9f 	bl	3288 <_ZN4zinc3hal8nrf518224uart4Uart7writeln17h3374573b82f4d38aE>
     b4a:	b011      	add	sp, #68	; 0x44
     b4c:	bdf0      	pop	{r4, r5, r6, r7, pc}
     b4e:	4621      	mov	r1, r4
     b50:	f002 fe50 	bl	37f4 <_ZN4core5slice22slice_index_order_fail17h645d2e1a34e44416E>
     b54:	4620      	mov	r0, r4
     b56:	f002 fe2f 	bl	37b8 <_ZN4core5slice20slice_index_len_fail17hd87e5524007fa8c3E>
     b5a:	4628      	mov	r0, r5
     b5c:	4619      	mov	r1, r3
     b5e:	f002 fe49 	bl	37f4 <_ZN4core5slice22slice_index_order_fail17h645d2e1a34e44416E>
     b62:	4618      	mov	r0, r3
     b64:	f002 fe28 	bl	37b8 <_ZN4core5slice20slice_index_len_fail17hd87e5524007fa8c3E>
     b68:	0000ffff 	.word	0x0000ffff
     b6c:	00008007 	.word	0x00008007
     b70:	0000c8d0 	.word	0x0000c8d0
     b74:	00006648 	.word	0x00006648
     b78:	00006630 	.word	0x00006630
     b7c:	00006469 	.word	0x00006469
     b80:	00006648 	.word	0x00006648
     b84:	2000001c 	.word	0x2000001c
     b88:	00000401 	.word	0x00000401

00000b8c <rust_begin_unwind>:
     b8c:	b510      	push	{r4, lr}
     b8e:	b096      	sub	sp, #88	; 0x58
     b90:	ac0f      	add	r4, sp, #60	; 0x3c
     b92:	c40f      	stmia	r4!, {r0, r1, r2, r3}
     b94:	9818      	ldr	r0, [sp, #96]	; 0x60
     b96:	9013      	str	r0, [sp, #76]	; 0x4c
     b98:	9819      	ldr	r0, [sp, #100]	; 0x64
     b9a:	9014      	str	r0, [sp, #80]	; 0x50
     b9c:	981a      	ldr	r0, [sp, #104]	; 0x68
     b9e:	900d      	str	r0, [sp, #52]	; 0x34
     ba0:	981b      	ldr	r0, [sp, #108]	; 0x6c
     ba2:	900e      	str	r0, [sp, #56]	; 0x38
     ba4:	981c      	ldr	r0, [sp, #112]	; 0x70
     ba6:	900c      	str	r0, [sp, #48]	; 0x30
     ba8:	a80d      	add	r0, sp, #52	; 0x34
     baa:	9000      	str	r0, [sp, #0]
     bac:	480e      	ldr	r0, [pc, #56]	; (be8 <rust_begin_unwind+0x5c>)
     bae:	9001      	str	r0, [sp, #4]
     bb0:	a80c      	add	r0, sp, #48	; 0x30
     bb2:	9002      	str	r0, [sp, #8]
     bb4:	480d      	ldr	r0, [pc, #52]	; (bec <rust_begin_unwind+0x60>)
     bb6:	9003      	str	r0, [sp, #12]
     bb8:	a80f      	add	r0, sp, #60	; 0x3c
     bba:	9004      	str	r0, [sp, #16]
     bbc:	480c      	ldr	r0, [pc, #48]	; (bf0 <rust_begin_unwind+0x64>)
     bbe:	9005      	str	r0, [sp, #20]
     bc0:	480c      	ldr	r0, [pc, #48]	; (bf4 <rust_begin_unwind+0x68>)
     bc2:	9006      	str	r0, [sp, #24]
     bc4:	2003      	movs	r0, #3
     bc6:	9007      	str	r0, [sp, #28]
     bc8:	2400      	movs	r4, #0
     bca:	9408      	str	r4, [sp, #32]
     bcc:	4669      	mov	r1, sp
     bce:	910a      	str	r1, [sp, #40]	; 0x28
     bd0:	900b      	str	r0, [sp, #44]	; 0x2c
     bd2:	a815      	add	r0, sp, #84	; 0x54
     bd4:	4908      	ldr	r1, [pc, #32]	; (bf8 <rust_begin_unwind+0x6c>)
     bd6:	aa06      	add	r2, sp, #24
     bd8:	f002 feb4 	bl	3944 <_ZN4core3fmt5write17h56e3d15cb4a744eaE>
     bdc:	4807      	ldr	r0, [pc, #28]	; (bfc <rust_begin_unwind+0x70>)
     bde:	4908      	ldr	r1, [pc, #32]	; (c00 <rust_begin_unwind+0x74>)
     be0:	4622      	mov	r2, r4
     be2:	f002 fb51 	bl	3288 <_ZN4zinc3hal8nrf518224uart4Uart7writeln17h3374573b82f4d38aE>
     be6:	e7fe      	b.n	be6 <rust_begin_unwind+0x5a>
     be8:	00000167 	.word	0x00000167
     bec:	0000424d 	.word	0x0000424d
     bf0:	00003925 	.word	0x00003925
     bf4:	0000c8e4 	.word	0x0000c8e4
     bf8:	00006630 	.word	0x00006630
     bfc:	00006469 	.word	0x00006469
     c00:	00006648 	.word	0x00006648

00000c04 <isr_rtc0>:
     c04:	b5f0      	push	{r4, r5, r6, r7, lr}
     c06:	b083      	sub	sp, #12
     c08:	4851      	ldr	r0, [pc, #324]	; (d50 <isr_rtc0+0x14c>)
     c0a:	6802      	ldr	r2, [r0, #0]
     c0c:	2101      	movs	r1, #1
     c0e:	438a      	bics	r2, r1
     c10:	6002      	str	r2, [r0, #0]
     c12:	4d50      	ldr	r5, [pc, #320]	; (d54 <isr_rtc0+0x150>)
     c14:	6828      	ldr	r0, [r5, #0]
     c16:	1c44      	adds	r4, r0, #1
     c18:	602c      	str	r4, [r5, #0]
     c1a:	484f      	ldr	r0, [pc, #316]	; (d58 <isr_rtc0+0x154>)
     c1c:	6800      	ldr	r0, [r0, #0]
     c1e:	4284      	cmp	r4, r0
     c20:	d202      	bcs.n	c28 <isr_rtc0+0x24>
     c22:	4859      	ldr	r0, [pc, #356]	; (d88 <isr_rtc0+0x184>)
     c24:	7800      	ldrb	r0, [r0, #0]
     c26:	e045      	b.n	cb4 <isr_rtc0+0xb0>
     c28:	2400      	movs	r4, #0
     c2a:	602c      	str	r4, [r5, #0]
     c2c:	4f4b      	ldr	r7, [pc, #300]	; (d5c <isr_rtc0+0x158>)
     c2e:	6838      	ldr	r0, [r7, #0]
     c30:	1c43      	adds	r3, r0, #1
     c32:	603b      	str	r3, [r7, #0]
     c34:	484a      	ldr	r0, [pc, #296]	; (d60 <isr_rtc0+0x15c>)
     c36:	6842      	ldr	r2, [r0, #4]
     c38:	4e4a      	ldr	r6, [pc, #296]	; (d64 <isr_rtc0+0x160>)
     c3a:	4293      	cmp	r3, r2
     c3c:	d305      	bcc.n	c4a <isr_rtc0+0x46>
     c3e:	4b4a      	ldr	r3, [pc, #296]	; (d68 <isr_rtc0+0x164>)
     c40:	781b      	ldrb	r3, [r3, #0]
     c42:	2b00      	cmp	r3, #0
     c44:	d05b      	beq.n	cfe <isr_rtc0+0xfa>
     c46:	603c      	str	r4, [r7, #0]
     c48:	4623      	mov	r3, r4
     c4a:	4293      	cmp	r3, r2
     c4c:	d26e      	bcs.n	d2c <isr_rtc0+0x128>
     c4e:	6881      	ldr	r1, [r0, #8]
     c50:	2900      	cmp	r1, #0
     c52:	4634      	mov	r4, r6
     c54:	d06e      	beq.n	d34 <isr_rtc0+0x130>
     c56:	6800      	ldr	r0, [r0, #0]
     c58:	4e3f      	ldr	r6, [pc, #252]	; (d58 <isr_rtc0+0x154>)
     c5a:	2206      	movs	r2, #6
     c5c:	435a      	muls	r2, r3
     c5e:	5a87      	ldrh	r7, [r0, r2]
     c60:	1880      	adds	r0, r0, r2
     c62:	8845      	ldrh	r5, [r0, #2]
     c64:	8880      	ldrh	r0, [r0, #4]
     c66:	f003 fc3b 	bl	44e0 <__udivsi3>
     c6a:	2164      	movs	r1, #100	; 0x64
     c6c:	4341      	muls	r1, r0
     c6e:	6031      	str	r1, [r6, #0]
     c70:	2600      	movs	r6, #0
     c72:	2f00      	cmp	r7, #0
     c74:	4630      	mov	r0, r6
     c76:	d007      	beq.n	c88 <isr_rtc0+0x84>
     c78:	2f7f      	cmp	r7, #127	; 0x7f
     c7a:	d85e      	bhi.n	d3a <isr_rtc0+0x136>
     c7c:	00b8      	lsls	r0, r7, #2
     c7e:	4941      	ldr	r1, [pc, #260]	; (d84 <isr_rtc0+0x180>)
     c80:	5809      	ldr	r1, [r1, r0]
     c82:	4620      	mov	r0, r4
     c84:	f003 fc2c 	bl	44e0 <__udivsi3>
     c88:	4939      	ldr	r1, [pc, #228]	; (d70 <isr_rtc0+0x16c>)
     c8a:	6008      	str	r0, [r1, #0]
     c8c:	2d00      	cmp	r5, #0
     c8e:	d008      	beq.n	ca2 <isr_rtc0+0x9e>
     c90:	2d7f      	cmp	r5, #127	; 0x7f
     c92:	d857      	bhi.n	d44 <isr_rtc0+0x140>
     c94:	00a8      	lsls	r0, r5, #2
     c96:	493b      	ldr	r1, [pc, #236]	; (d84 <isr_rtc0+0x180>)
     c98:	5809      	ldr	r1, [r1, r0]
     c9a:	4620      	mov	r0, r4
     c9c:	f003 fc20 	bl	44e0 <__udivsi3>
     ca0:	4606      	mov	r6, r0
     ca2:	4834      	ldr	r0, [pc, #208]	; (d74 <isr_rtc0+0x170>)
     ca4:	6006      	str	r6, [r0, #0]
     ca6:	2001      	movs	r0, #1
     ca8:	2e00      	cmp	r6, #0
     caa:	d100      	bne.n	cae <isr_rtc0+0xaa>
     cac:	4630      	mov	r0, r6
     cae:	4936      	ldr	r1, [pc, #216]	; (d88 <isr_rtc0+0x184>)
     cb0:	7008      	strb	r0, [r1, #0]
     cb2:	2400      	movs	r4, #0
     cb4:	2800      	cmp	r0, #0
     cb6:	d005      	beq.n	cc4 <isr_rtc0+0xc0>
     cb8:	0960      	lsrs	r0, r4, #5
     cba:	2103      	movs	r1, #3
     cbc:	f003 fc96 	bl	45ec <__aeabi_uidivmod>
     cc0:	2900      	cmp	r1, #0
     cc2:	d001      	beq.n	cc8 <isr_rtc0+0xc4>
     cc4:	482a      	ldr	r0, [pc, #168]	; (d70 <isr_rtc0+0x16c>)
     cc6:	e000      	b.n	cca <isr_rtc0+0xc6>
     cc8:	482a      	ldr	r0, [pc, #168]	; (d74 <isr_rtc0+0x170>)
     cca:	6805      	ldr	r5, [r0, #0]
     ccc:	2d00      	cmp	r5, #0
     cce:	d00d      	beq.n	cec <isr_rtc0+0xe8>
     cd0:	4620      	mov	r0, r4
     cd2:	4629      	mov	r1, r5
     cd4:	f003 fc8a 	bl	45ec <__aeabi_uidivmod>
     cd8:	0868      	lsrs	r0, r5, #1
     cda:	4281      	cmp	r1, r0
     cdc:	d908      	bls.n	cf0 <isr_rtc0+0xec>
     cde:	a801      	add	r0, sp, #4
     ce0:	2103      	movs	r1, #3
     ce2:	7001      	strb	r1, [r0, #0]
     ce4:	f002 fb7a 	bl	33dc <_ZN70_$LT$zinc..hal..nrf51822..pin..Pin$u20$as$u20$zinc..hal..pin..Gpio$GT$8set_high17h09ae503968379acdE>
     ce8:	b003      	add	sp, #12
     cea:	bdf0      	pop	{r4, r5, r6, r7, pc}
     cec:	a802      	add	r0, sp, #8
     cee:	e000      	b.n	cf2 <isr_rtc0+0xee>
     cf0:	4668      	mov	r0, sp
     cf2:	2103      	movs	r1, #3
     cf4:	7001      	strb	r1, [r0, #0]
     cf6:	f002 fb7d 	bl	33f4 <_ZN70_$LT$zinc..hal..nrf51822..pin..Pin$u20$as$u20$zinc..hal..pin..Gpio$GT$7set_low17h6578afa11d7abdf5E>
     cfa:	b003      	add	sp, #12
     cfc:	bdf0      	pop	{r4, r5, r6, r7, pc}
     cfe:	4a1a      	ldr	r2, [pc, #104]	; (d68 <isr_rtc0+0x164>)
     d00:	7011      	strb	r1, [r2, #0]
     d02:	2300      	movs	r3, #0
     d04:	602b      	str	r3, [r5, #0]
     d06:	4a19      	ldr	r2, [pc, #100]	; (d6c <isr_rtc0+0x168>)
     d08:	6894      	ldr	r4, [r2, #8]
     d0a:	6084      	str	r4, [r0, #8]
     d0c:	6854      	ldr	r4, [r2, #4]
     d0e:	6044      	str	r4, [r0, #4]
     d10:	6812      	ldr	r2, [r2, #0]
     d12:	6002      	str	r2, [r0, #0]
     d14:	603b      	str	r3, [r7, #0]
     d16:	4810      	ldr	r0, [pc, #64]	; (d58 <isr_rtc0+0x154>)
     d18:	4602      	mov	r2, r0
     d1a:	6013      	str	r3, [r2, #0]
     d1c:	4814      	ldr	r0, [pc, #80]	; (d70 <isr_rtc0+0x16c>)
     d1e:	6003      	str	r3, [r0, #0]
     d20:	4814      	ldr	r0, [pc, #80]	; (d74 <isr_rtc0+0x170>)
     d22:	6003      	str	r3, [r0, #0]
     d24:	4814      	ldr	r0, [pc, #80]	; (d78 <isr_rtc0+0x174>)
     d26:	4634      	mov	r4, r6
     d28:	4616      	mov	r6, r2
     d2a:	e796      	b.n	c5a <isr_rtc0+0x56>
     d2c:	4813      	ldr	r0, [pc, #76]	; (d7c <isr_rtc0+0x178>)
     d2e:	4619      	mov	r1, r3
     d30:	f002 fd0c 	bl	374c <_ZN4core9panicking18panic_bounds_check17h613d9849b01f883fE>
     d34:	4815      	ldr	r0, [pc, #84]	; (d8c <isr_rtc0+0x188>)
     d36:	f002 fcf1 	bl	371c <_ZN4core9panicking5panic17hf227f8d5d60b7e39E>
     d3a:	4811      	ldr	r0, [pc, #68]	; (d80 <isr_rtc0+0x17c>)
     d3c:	2280      	movs	r2, #128	; 0x80
     d3e:	4639      	mov	r1, r7
     d40:	f002 fd04 	bl	374c <_ZN4core9panicking18panic_bounds_check17h613d9849b01f883fE>
     d44:	480e      	ldr	r0, [pc, #56]	; (d80 <isr_rtc0+0x17c>)
     d46:	2280      	movs	r2, #128	; 0x80
     d48:	4629      	mov	r1, r5
     d4a:	f002 fcff 	bl	374c <_ZN4core9panicking18panic_bounds_check17h613d9849b01f883fE>
     d4e:	46c0      	nop			; (mov r8, r8)
     d50:	4000b100 	.word	0x4000b100
     d54:	20000424 	.word	0x20000424
     d58:	2000042c 	.word	0x2000042c
     d5c:	20000428 	.word	0x20000428
     d60:	20000000 	.word	0x20000000
     d64:	00008cbe 	.word	0x00008cbe
     d68:	20000438 	.word	0x20000438
     d6c:	00006888 	.word	0x00006888
     d70:	20000430 	.word	0x20000430
     d74:	20000434 	.word	0x20000434
     d78:	00006664 	.word	0x00006664
     d7c:	00006894 	.word	0x00006894
     d80:	0000687c 	.word	0x0000687c
     d84:	00006670 	.word	0x00006670
     d88:	20000439 	.word	0x20000439
     d8c:	000068a0 	.word	0x000068a0

00000d90 <_ZN14blink_nrf518224main17h5d64dfdd3a94922fE>:
     d90:	b5f0      	push	{r4, r5, r6, r7, lr}
     d92:	b0db      	sub	sp, #364	; 0x16c
     d94:	48f9      	ldr	r0, [pc, #996]	; (117c <_ZN14blink_nrf518224main17h5d64dfdd3a94922fE+0x3ec>)
     d96:	f002 fca3 	bl	36e0 <_ZN4zinc3hal5stack15set_stack_limit17ha51ab4f6d9220120E>
     d9a:	48f9      	ldr	r0, [pc, #996]	; (1180 <_ZN14blink_nrf518224main17h5d64dfdd3a94922fE+0x3f0>)
     d9c:	49f9      	ldr	r1, [pc, #996]	; (1184 <_ZN14blink_nrf518224main17h5d64dfdd3a94922fE+0x3f4>)
     d9e:	4281      	cmp	r1, r0
     da0:	d204      	bcs.n	dac <_ZN14blink_nrf518224main17h5d64dfdd3a94922fE+0x1c>
     da2:	4af9      	ldr	r2, [pc, #996]	; (1188 <_ZN14blink_nrf518224main17h5d64dfdd3a94922fE+0x3f8>)
     da4:	ca08      	ldmia	r2!, {r3}
     da6:	c108      	stmia	r1!, {r3}
     da8:	4281      	cmp	r1, r0
     daa:	d3fb      	bcc.n	da4 <_ZN14blink_nrf518224main17h5d64dfdd3a94922fE+0x14>
     dac:	48f7      	ldr	r0, [pc, #988]	; (118c <_ZN14blink_nrf518224main17h5d64dfdd3a94922fE+0x3fc>)
     dae:	49f8      	ldr	r1, [pc, #992]	; (1190 <_ZN14blink_nrf518224main17h5d64dfdd3a94922fE+0x400>)
     db0:	e001      	b.n	db6 <_ZN14blink_nrf518224main17h5d64dfdd3a94922fE+0x26>
     db2:	2200      	movs	r2, #0
     db4:	c104      	stmia	r1!, {r2}
     db6:	4281      	cmp	r1, r0
     db8:	d3fb      	bcc.n	db2 <_ZN14blink_nrf518224main17h5d64dfdd3a94922fE+0x22>
     dba:	ac38      	add	r4, sp, #224	; 0xe0
     dbc:	2003      	movs	r0, #3
     dbe:	9002      	str	r0, [sp, #8]
     dc0:	7020      	strb	r0, [r4, #0]
     dc2:	ad55      	add	r5, sp, #340	; 0x154
     dc4:	4628      	mov	r0, r5
     dc6:	f002 fab7 	bl	3338 <_ZN78_$LT$zinc..hal..nrf51822..pin..PinConfig$u20$as$u20$core..default..Default$GT$7default17h113fa65e110f834cE>
     dca:	a939      	add	r1, sp, #228	; 0xe4
     dcc:	2001      	movs	r0, #1
     dce:	7008      	strb	r0, [r1, #0]
     dd0:	4607      	mov	r7, r0
     dd2:	7868      	ldrb	r0, [r5, #1]
     dd4:	7048      	strb	r0, [r1, #1]
     dd6:	8868      	ldrh	r0, [r5, #2]
     dd8:	7088      	strb	r0, [r1, #2]
     dda:	0a00      	lsrs	r0, r0, #8
     ddc:	70c8      	strb	r0, [r1, #3]
     dde:	9856      	ldr	r0, [sp, #344]	; 0x158
     de0:	7108      	strb	r0, [r1, #4]
     de2:	0a00      	lsrs	r0, r0, #8
     de4:	7148      	strb	r0, [r1, #5]
     de6:	4620      	mov	r0, r4
     de8:	f002 fab0 	bl	334c <_ZN4zinc3hal8nrf518223pin3Pin9configure17h2f1a50f67e0d9b41E>
     dec:	ac38      	add	r4, sp, #224	; 0xe0
     dee:	2002      	movs	r0, #2
     df0:	9031      	str	r0, [sp, #196]	; 0xc4
     df2:	7020      	strb	r0, [r4, #0]
     df4:	ae55      	add	r6, sp, #340	; 0x154
     df6:	4630      	mov	r0, r6
     df8:	f002 fa9e 	bl	3338 <_ZN78_$LT$zinc..hal..nrf51822..pin..PinConfig$u20$as$u20$core..default..Default$GT$7default17h113fa65e110f834cE>
     dfc:	a939      	add	r1, sp, #228	; 0xe4
     dfe:	700f      	strb	r7, [r1, #0]
     e00:	7870      	ldrb	r0, [r6, #1]
     e02:	7048      	strb	r0, [r1, #1]
     e04:	8870      	ldrh	r0, [r6, #2]
     e06:	7088      	strb	r0, [r1, #2]
     e08:	0a00      	lsrs	r0, r0, #8
     e0a:	70c8      	strb	r0, [r1, #3]
     e0c:	9856      	ldr	r0, [sp, #344]	; 0x158
     e0e:	7108      	strb	r0, [r1, #4]
     e10:	0a00      	lsrs	r0, r0, #8
     e12:	7148      	strb	r0, [r1, #5]
     e14:	4620      	mov	r0, r4
     e16:	f002 fa99 	bl	334c <_ZN4zinc3hal8nrf518223pin3Pin9configure17h2f1a50f67e0d9b41E>
     e1a:	ac38      	add	r4, sp, #224	; 0xe0
     e1c:	7027      	strb	r7, [r4, #0]
     e1e:	ae55      	add	r6, sp, #340	; 0x154
     e20:	4630      	mov	r0, r6
     e22:	f002 fa89 	bl	3338 <_ZN78_$LT$zinc..hal..nrf51822..pin..PinConfig$u20$as$u20$core..default..Default$GT$7default17h113fa65e110f834cE>
     e26:	a939      	add	r1, sp, #228	; 0xe4
     e28:	700f      	strb	r7, [r1, #0]
     e2a:	463d      	mov	r5, r7
     e2c:	7870      	ldrb	r0, [r6, #1]
     e2e:	7048      	strb	r0, [r1, #1]
     e30:	8870      	ldrh	r0, [r6, #2]
     e32:	7088      	strb	r0, [r1, #2]
     e34:	0a00      	lsrs	r0, r0, #8
     e36:	70c8      	strb	r0, [r1, #3]
     e38:	9856      	ldr	r0, [sp, #344]	; 0x158
     e3a:	7108      	strb	r0, [r1, #4]
     e3c:	0a00      	lsrs	r0, r0, #8
     e3e:	7148      	strb	r0, [r1, #5]
     e40:	4620      	mov	r0, r4
     e42:	f002 fa83 	bl	334c <_ZN4zinc3hal8nrf518223pin3Pin9configure17h2f1a50f67e0d9b41E>
     e46:	ac38      	add	r4, sp, #224	; 0xe0
     e48:	2004      	movs	r0, #4
     e4a:	7020      	strb	r0, [r4, #0]
     e4c:	ae55      	add	r6, sp, #340	; 0x154
     e4e:	4630      	mov	r0, r6
     e50:	f002 fa72 	bl	3338 <_ZN78_$LT$zinc..hal..nrf51822..pin..PinConfig$u20$as$u20$core..default..Default$GT$7default17h113fa65e110f834cE>
     e54:	a939      	add	r1, sp, #228	; 0xe4
     e56:	700d      	strb	r5, [r1, #0]
     e58:	7870      	ldrb	r0, [r6, #1]
     e5a:	7048      	strb	r0, [r1, #1]
     e5c:	8870      	ldrh	r0, [r6, #2]
     e5e:	7088      	strb	r0, [r1, #2]
     e60:	0a00      	lsrs	r0, r0, #8
     e62:	70c8      	strb	r0, [r1, #3]
     e64:	9856      	ldr	r0, [sp, #344]	; 0x158
     e66:	7108      	strb	r0, [r1, #4]
     e68:	0a00      	lsrs	r0, r0, #8
     e6a:	7148      	strb	r0, [r1, #5]
     e6c:	4620      	mov	r0, r4
     e6e:	f002 fa6d 	bl	334c <_ZN4zinc3hal8nrf518223pin3Pin9configure17h2f1a50f67e0d9b41E>
     e72:	ae38      	add	r6, sp, #224	; 0xe0
     e74:	2011      	movs	r0, #17
     e76:	901d      	str	r0, [sp, #116]	; 0x74
     e78:	7030      	strb	r0, [r6, #0]
     e7a:	af55      	add	r7, sp, #340	; 0x154
     e7c:	4638      	mov	r0, r7
     e7e:	f002 fa5b 	bl	3338 <_ZN78_$LT$zinc..hal..nrf51822..pin..PinConfig$u20$as$u20$core..default..Default$GT$7default17h113fa65e110f834cE>
     e82:	a939      	add	r1, sp, #228	; 0xe4
     e84:	2000      	movs	r0, #0
     e86:	9032      	str	r0, [sp, #200]	; 0xc8
     e88:	7008      	strb	r0, [r1, #0]
     e8a:	7878      	ldrb	r0, [r7, #1]
     e8c:	7048      	strb	r0, [r1, #1]
     e8e:	708d      	strb	r5, [r1, #2]
     e90:	9c31      	ldr	r4, [sp, #196]	; 0xc4
     e92:	70cc      	strb	r4, [r1, #3]
     e94:	9856      	ldr	r0, [sp, #344]	; 0x158
     e96:	7108      	strb	r0, [r1, #4]
     e98:	0a00      	lsrs	r0, r0, #8
     e9a:	7148      	strb	r0, [r1, #5]
     e9c:	4630      	mov	r0, r6
     e9e:	f002 fa55 	bl	334c <_ZN4zinc3hal8nrf518223pin3Pin9configure17h2f1a50f67e0d9b41E>
     ea2:	ae38      	add	r6, sp, #224	; 0xe0
     ea4:	201a      	movs	r0, #26
     ea6:	901c      	str	r0, [sp, #112]	; 0x70
     ea8:	7030      	strb	r0, [r6, #0]
     eaa:	af55      	add	r7, sp, #340	; 0x154
     eac:	4638      	mov	r0, r7
     eae:	f002 fa43 	bl	3338 <_ZN78_$LT$zinc..hal..nrf51822..pin..PinConfig$u20$as$u20$core..default..Default$GT$7default17h113fa65e110f834cE>
     eb2:	a939      	add	r1, sp, #228	; 0xe4
     eb4:	9832      	ldr	r0, [sp, #200]	; 0xc8
     eb6:	7008      	strb	r0, [r1, #0]
     eb8:	7878      	ldrb	r0, [r7, #1]
     eba:	7048      	strb	r0, [r1, #1]
     ebc:	9518      	str	r5, [sp, #96]	; 0x60
     ebe:	708d      	strb	r5, [r1, #2]
     ec0:	4625      	mov	r5, r4
     ec2:	70cd      	strb	r5, [r1, #3]
     ec4:	9856      	ldr	r0, [sp, #344]	; 0x158
     ec6:	7108      	strb	r0, [r1, #4]
     ec8:	0a00      	lsrs	r0, r0, #8
     eca:	7148      	strb	r0, [r1, #5]
     ecc:	4630      	mov	r0, r6
     ece:	f002 fa3d 	bl	334c <_ZN4zinc3hal8nrf518223pin3Pin9configure17h2f1a50f67e0d9b41E>
     ed2:	a855      	add	r0, sp, #340	; 0x154
     ed4:	f002 f94c 	bl	3170 <_ZN80_$LT$zinc..hal..nrf51822..uart..UartConfig$u20$as$u20$core..default..Default$GT$7default17hd7d2f48eca35a8cbE>
     ed8:	a939      	add	r1, sp, #228	; 0xe4
     eda:	9855      	ldr	r0, [sp, #340]	; 0x154
     edc:	7008      	strb	r0, [r1, #0]
     ede:	0a02      	lsrs	r2, r0, #8
     ee0:	704a      	strb	r2, [r1, #1]
     ee2:	0c02      	lsrs	r2, r0, #16
     ee4:	708a      	strb	r2, [r1, #2]
     ee6:	0e00      	lsrs	r0, r0, #24
     ee8:	70c8      	strb	r0, [r1, #3]
     eea:	48aa      	ldr	r0, [pc, #680]	; (1194 <_ZN14blink_nrf518224main17h5d64dfdd3a94922fE+0x404>)
     eec:	903a      	str	r0, [sp, #232]	; 0xe8
     eee:	9857      	ldr	r0, [sp, #348]	; 0x15c
     ef0:	7208      	strb	r0, [r1, #8]
     ef2:	0a00      	lsrs	r0, r0, #8
     ef4:	7248      	strb	r0, [r1, #9]
     ef6:	48a8      	ldr	r0, [pc, #672]	; (1198 <_ZN14blink_nrf518224main17h5d64dfdd3a94922fE+0x408>)
     ef8:	f002 f94a 	bl	3190 <_ZN4zinc3hal8nrf518224uart4Uart9configure17h17493f121eb501fbE>
     efc:	f002 fbb8 	bl	3670 <_ZN4zinc3hal8nrf518224init17h51562d4111ef066aE>
     f00:	48a6      	ldr	r0, [pc, #664]	; (119c <_ZN14blink_nrf518224main17h5d64dfdd3a94922fE+0x40c>)
     f02:	4607      	mov	r7, r0
     f04:	9716      	str	r7, [sp, #88]	; 0x58
     f06:	9c32      	ldr	r4, [sp, #200]	; 0xc8
     f08:	4621      	mov	r1, r4
     f0a:	f002 fb9f 	bl	364c <_ZN4zinc3hal8nrf518228sleep_us17h401a33623f589258E>
     f0e:	a939      	add	r1, sp, #228	; 0xe4
     f10:	201e      	movs	r0, #30
     f12:	7008      	strb	r0, [r1, #0]
     f14:	704c      	strb	r4, [r1, #1]
     f16:	20cd      	movs	r0, #205	; 0xcd
     f18:	04c0      	lsls	r0, r0, #19
     f1a:	903a      	str	r0, [sp, #232]	; 0xe8
     f1c:	ae38      	add	r6, sp, #224	; 0xe0
     f1e:	4630      	mov	r0, r6
     f20:	f002 faba 	bl	3498 <_ZN4zinc3hal8nrf518223twi3Twi9configure17h108966bd400b5c3aE>
     f24:	4638      	mov	r0, r7
     f26:	4621      	mov	r1, r4
     f28:	f002 fb90 	bl	364c <_ZN4zinc3hal8nrf518228sleep_us17h401a33623f589258E>
     f2c:	213c      	movs	r1, #60	; 0x3c
     f2e:	4630      	mov	r0, r6
     f30:	4626      	mov	r6, r4
     f32:	f002 fb03 	bl	353c <_ZN4zinc3hal8nrf518223twi3Twi11set_address17ha6077a6f118ede50E>
     f36:	4f9a      	ldr	r7, [pc, #616]	; (11a0 <_ZN14blink_nrf518224main17h5d64dfdd3a94922fE+0x410>)
     f38:	499a      	ldr	r1, [pc, #616]	; (11a4 <_ZN14blink_nrf518224main17h5d64dfdd3a94922fE+0x414>)
     f3a:	4638      	mov	r0, r7
     f3c:	462a      	mov	r2, r5
     f3e:	f002 fb07 	bl	3550 <_ZN4zinc3hal8nrf518223twi3Twi11write_bytes17h0e15bed708b2e767E>
     f42:	4c99      	ldr	r4, [pc, #612]	; (11a8 <_ZN14blink_nrf518224main17h5d64dfdd3a94922fE+0x418>)
     f44:	4620      	mov	r0, r4
     f46:	4631      	mov	r1, r6
     f48:	f002 fb80 	bl	364c <_ZN4zinc3hal8nrf518228sleep_us17h401a33623f589258E>
     f4c:	4997      	ldr	r1, [pc, #604]	; (11ac <_ZN14blink_nrf518224main17h5d64dfdd3a94922fE+0x41c>)
     f4e:	4638      	mov	r0, r7
     f50:	462a      	mov	r2, r5
     f52:	f002 fafd 	bl	3550 <_ZN4zinc3hal8nrf518223twi3Twi11write_bytes17h0e15bed708b2e767E>
     f56:	4996      	ldr	r1, [pc, #600]	; (11b0 <_ZN14blink_nrf518224main17h5d64dfdd3a94922fE+0x420>)
     f58:	4638      	mov	r0, r7
     f5a:	462a      	mov	r2, r5
     f5c:	f002 faf8 	bl	3550 <_ZN4zinc3hal8nrf518223twi3Twi11write_bytes17h0e15bed708b2e767E>
     f60:	4994      	ldr	r1, [pc, #592]	; (11b4 <_ZN14blink_nrf518224main17h5d64dfdd3a94922fE+0x424>)
     f62:	4638      	mov	r0, r7
     f64:	462a      	mov	r2, r5
     f66:	f002 faf3 	bl	3550 <_ZN4zinc3hal8nrf518223twi3Twi11write_bytes17h0e15bed708b2e767E>
     f6a:	9417      	str	r4, [sp, #92]	; 0x5c
     f6c:	4620      	mov	r0, r4
     f6e:	4631      	mov	r1, r6
     f70:	f002 fb6c 	bl	364c <_ZN4zinc3hal8nrf518228sleep_us17h401a33623f589258E>
     f74:	4990      	ldr	r1, [pc, #576]	; (11b8 <_ZN14blink_nrf518224main17h5d64dfdd3a94922fE+0x428>)
     f76:	4638      	mov	r0, r7
     f78:	462a      	mov	r2, r5
     f7a:	f002 fae9 	bl	3550 <_ZN4zinc3hal8nrf518223twi3Twi11write_bytes17h0e15bed708b2e767E>
     f7e:	4c8f      	ldr	r4, [pc, #572]	; (11bc <_ZN14blink_nrf518224main17h5d64dfdd3a94922fE+0x42c>)
     f80:	4638      	mov	r0, r7
     f82:	4621      	mov	r1, r4
     f84:	462a      	mov	r2, r5
     f86:	f002 fae3 	bl	3550 <_ZN4zinc3hal8nrf518223twi3Twi11write_bytes17h0e15bed708b2e767E>
     f8a:	498d      	ldr	r1, [pc, #564]	; (11c0 <_ZN14blink_nrf518224main17h5d64dfdd3a94922fE+0x430>)
     f8c:	4638      	mov	r0, r7
     f8e:	462a      	mov	r2, r5
     f90:	f002 fade 	bl	3550 <_ZN4zinc3hal8nrf518223twi3Twi11write_bytes17h0e15bed708b2e767E>
     f94:	4638      	mov	r0, r7
     f96:	4621      	mov	r1, r4
     f98:	462a      	mov	r2, r5
     f9a:	f002 fad9 	bl	3550 <_ZN4zinc3hal8nrf518223twi3Twi11write_bytes17h0e15bed708b2e767E>
     f9e:	4989      	ldr	r1, [pc, #548]	; (11c4 <_ZN14blink_nrf518224main17h5d64dfdd3a94922fE+0x434>)
     fa0:	4638      	mov	r0, r7
     fa2:	462a      	mov	r2, r5
     fa4:	f002 fad4 	bl	3550 <_ZN4zinc3hal8nrf518223twi3Twi11write_bytes17h0e15bed708b2e767E>
     fa8:	4987      	ldr	r1, [pc, #540]	; (11c8 <_ZN14blink_nrf518224main17h5d64dfdd3a94922fE+0x438>)
     faa:	4638      	mov	r0, r7
     fac:	462a      	mov	r2, r5
     fae:	f002 facf 	bl	3550 <_ZN4zinc3hal8nrf518223twi3Twi11write_bytes17h0e15bed708b2e767E>
     fb2:	a955      	add	r1, sp, #340	; 0x154
     fb4:	2080      	movs	r0, #128	; 0x80
     fb6:	9027      	str	r0, [sp, #156]	; 0x9c
     fb8:	7008      	strb	r0, [r1, #0]
     fba:	704e      	strb	r6, [r1, #1]
     fbc:	4638      	mov	r0, r7
     fbe:	462a      	mov	r2, r5
     fc0:	f002 fac6 	bl	3550 <_ZN4zinc3hal8nrf518223twi3Twi11write_bytes17h0e15bed708b2e767E>
     fc4:	4881      	ldr	r0, [pc, #516]	; (11cc <_ZN14blink_nrf518224main17h5d64dfdd3a94922fE+0x43c>)
     fc6:	7006      	strb	r6, [r0, #0]
     fc8:	f7ff f95e 	bl	288 <_ZN14blink_nrf518227display14update_display17h4431b73682dcb2eaE>
     fcc:	4980      	ldr	r1, [pc, #512]	; (11d0 <_ZN14blink_nrf518224main17h5d64dfdd3a94922fE+0x440>)
     fce:	4638      	mov	r0, r7
     fd0:	462a      	mov	r2, r5
     fd2:	462c      	mov	r4, r5
     fd4:	f002 fabc 	bl	3550 <_ZN4zinc3hal8nrf518223twi3Twi11write_bytes17h0e15bed708b2e767E>
     fd8:	497e      	ldr	r1, [pc, #504]	; (11d4 <_ZN14blink_nrf518224main17h5d64dfdd3a94922fE+0x444>)
     fda:	4638      	mov	r0, r7
     fdc:	4622      	mov	r2, r4
     fde:	f002 fab7 	bl	3550 <_ZN4zinc3hal8nrf518223twi3Twi11write_bytes17h0e15bed708b2e767E>
     fe2:	4d7d      	ldr	r5, [pc, #500]	; (11d8 <_ZN14blink_nrf518224main17h5d64dfdd3a94922fE+0x448>)
     fe4:	4628      	mov	r0, r5
     fe6:	4631      	mov	r1, r6
     fe8:	f002 fa20 	bl	342c <_ZN4zinc3hal8nrf518223rtc3Rtc13set_prescaler17hae06191e6aca63cbE>
     fec:	9816      	ldr	r0, [sp, #88]	; 0x58
     fee:	4631      	mov	r1, r6
     ff0:	f002 fb2c 	bl	364c <_ZN4zinc3hal8nrf518228sleep_us17h401a33623f589258E>
     ff4:	4628      	mov	r0, r5
     ff6:	f002 fa2f 	bl	3458 <_ZN4zinc3hal8nrf518223rtc3Rtc20enable_tick_iterrupt17hbc541056795a1989E>
     ffa:	200b      	movs	r0, #11
     ffc:	901f      	str	r0, [sp, #124]	; 0x7c
     ffe:	f002 fb55 	bl	36ac <_ZN4zinc3hal13cortex_common4nvic10enable_irq17he32362ef70d245d5E>
    1002:	4628      	mov	r0, r5
    1004:	f002 fa34 	bl	3470 <_ZN4zinc3hal8nrf518223rtc3Rtc5start17h02e603d0233048aeE>
    1008:	a839      	add	r0, sp, #228	; 0xe4
    100a:	3020      	adds	r0, #32
    100c:	902e      	str	r0, [sp, #184]	; 0xb8
    100e:	e000      	b.n	1012 <_ZN14blink_nrf518224main17h5d64dfdd3a94922fE+0x282>
    1010:	9e32      	ldr	r6, [sp, #200]	; 0xc8
    1012:	4972      	ldr	r1, [pc, #456]	; (11dc <_ZN14blink_nrf518224main17h5d64dfdd3a94922fE+0x44c>)
    1014:	af39      	add	r7, sp, #228	; 0xe4
    1016:	4638      	mov	r0, r7
    1018:	c93c      	ldmia	r1!, {r2, r3, r4, r5}
    101a:	c03c      	stmia	r0!, {r2, r3, r4, r5}
    101c:	c93c      	ldmia	r1!, {r2, r3, r4, r5}
    101e:	c03c      	stmia	r0!, {r2, r3, r4, r5}
    1020:	4638      	mov	r0, r7
    1022:	43f6      	mvns	r6, r6
    1024:	9630      	str	r6, [sp, #192]	; 0xc0
    1026:	9031      	str	r0, [sp, #196]	; 0xc4
    1028:	1d00      	adds	r0, r0, #4
    102a:	902f      	str	r0, [sp, #188]	; 0xbc
    102c:	4634      	mov	r4, r6
    102e:	1c64      	adds	r4, r4, #1
    1030:	2c05      	cmp	r4, #5
    1032:	dc46      	bgt.n	10c2 <_ZN14blink_nrf518224main17h5d64dfdd3a94922fE+0x332>
    1034:	486a      	ldr	r0, [pc, #424]	; (11e0 <_ZN14blink_nrf518224main17h5d64dfdd3a94922fE+0x450>)
    1036:	2100      	movs	r1, #0
    1038:	f002 fb08 	bl	364c <_ZN4zinc3hal8nrf518228sleep_us17h401a33623f589258E>
    103c:	4863      	ldr	r0, [pc, #396]	; (11cc <_ZN14blink_nrf518224main17h5d64dfdd3a94922fE+0x43c>)
    103e:	7806      	ldrb	r6, [r0, #0]
    1040:	9827      	ldr	r0, [sp, #156]	; 0x9c
    1042:	307f      	adds	r0, #127	; 0x7f
    1044:	b2c7      	uxtb	r7, r0
    1046:	42be      	cmp	r6, r7
    1048:	d02a      	beq.n	10a0 <_ZN14blink_nrf518224main17h5d64dfdd3a94922fE+0x310>
    104a:	2502      	movs	r5, #2
    104c:	4854      	ldr	r0, [pc, #336]	; (11a0 <_ZN14blink_nrf518224main17h5d64dfdd3a94922fE+0x410>)
    104e:	495e      	ldr	r1, [pc, #376]	; (11c8 <_ZN14blink_nrf518224main17h5d64dfdd3a94922fE+0x438>)
    1050:	462a      	mov	r2, r5
    1052:	f002 fa7d 	bl	3550 <_ZN4zinc3hal8nrf518223twi3Twi11write_bytes17h0e15bed708b2e767E>
    1056:	a955      	add	r1, sp, #340	; 0x154
    1058:	9827      	ldr	r0, [sp, #156]	; 0x9c
    105a:	7008      	strb	r0, [r1, #0]
    105c:	1cb6      	adds	r6, r6, #2
    105e:	704e      	strb	r6, [r1, #1]
    1060:	484f      	ldr	r0, [pc, #316]	; (11a0 <_ZN14blink_nrf518224main17h5d64dfdd3a94922fE+0x410>)
    1062:	462a      	mov	r2, r5
    1064:	f002 fa74 	bl	3550 <_ZN4zinc3hal8nrf518223twi3Twi11write_bytes17h0e15bed708b2e767E>
    1068:	4858      	ldr	r0, [pc, #352]	; (11cc <_ZN14blink_nrf518224main17h5d64dfdd3a94922fE+0x43c>)
    106a:	7006      	strb	r6, [r0, #0]
    106c:	b2f0      	uxtb	r0, r6
    106e:	42b8      	cmp	r0, r7
    1070:	d116      	bne.n	10a0 <_ZN14blink_nrf518224main17h5d64dfdd3a94922fE+0x310>
    1072:	9818      	ldr	r0, [sp, #96]	; 0x60
    1074:	495b      	ldr	r1, [pc, #364]	; (11e4 <_ZN14blink_nrf518224main17h5d64dfdd3a94922fE+0x454>)
    1076:	7008      	strb	r0, [r1, #0]
    1078:	2000      	movs	r0, #0
    107a:	495b      	ldr	r1, [pc, #364]	; (11e8 <_ZN14blink_nrf518224main17h5d64dfdd3a94922fE+0x458>)
    107c:	6008      	str	r0, [r1, #0]
    107e:	495b      	ldr	r1, [pc, #364]	; (11ec <_ZN14blink_nrf518224main17h5d64dfdd3a94922fE+0x45c>)
    1080:	460b      	mov	r3, r1
    1082:	6899      	ldr	r1, [r3, #8]
    1084:	4a5a      	ldr	r2, [pc, #360]	; (11f0 <_ZN14blink_nrf518224main17h5d64dfdd3a94922fE+0x460>)
    1086:	6091      	str	r1, [r2, #8]
    1088:	6859      	ldr	r1, [r3, #4]
    108a:	6051      	str	r1, [r2, #4]
    108c:	6819      	ldr	r1, [r3, #0]
    108e:	6011      	str	r1, [r2, #0]
    1090:	4958      	ldr	r1, [pc, #352]	; (11f4 <_ZN14blink_nrf518224main17h5d64dfdd3a94922fE+0x464>)
    1092:	6008      	str	r0, [r1, #0]
    1094:	4958      	ldr	r1, [pc, #352]	; (11f8 <_ZN14blink_nrf518224main17h5d64dfdd3a94922fE+0x468>)
    1096:	6008      	str	r0, [r1, #0]
    1098:	4958      	ldr	r1, [pc, #352]	; (11fc <_ZN14blink_nrf518224main17h5d64dfdd3a94922fE+0x46c>)
    109a:	6008      	str	r0, [r1, #0]
    109c:	4958      	ldr	r1, [pc, #352]	; (1200 <_ZN14blink_nrf518224main17h5d64dfdd3a94922fE+0x470>)
    109e:	6008      	str	r0, [r1, #0]
    10a0:	a855      	add	r0, sp, #340	; 0x154
    10a2:	991d      	ldr	r1, [sp, #116]	; 0x74
    10a4:	7001      	strb	r1, [r0, #0]
    10a6:	f002 f9b1 	bl	340c <_ZN70_$LT$zinc..hal..nrf51822..pin..Pin$u20$as$u20$zinc..hal..pin..Gpio$GT$5level17hd366ba0616e528fcE>
    10aa:	25ff      	movs	r5, #255	; 0xff
    10ac:	4228      	tst	r0, r5
    10ae:	9e30      	ldr	r6, [sp, #192]	; 0xc0
    10b0:	d015      	beq.n	10de <_ZN14blink_nrf518224main17h5d64dfdd3a94922fE+0x34e>
    10b2:	a838      	add	r0, sp, #224	; 0xe0
    10b4:	991c      	ldr	r1, [sp, #112]	; 0x70
    10b6:	7001      	strb	r1, [r0, #0]
    10b8:	f002 f9a8 	bl	340c <_ZN70_$LT$zinc..hal..nrf51822..pin..Pin$u20$as$u20$zinc..hal..pin..Gpio$GT$5level17hd366ba0616e528fcE>
    10bc:	4228      	tst	r0, r5
    10be:	d1b6      	bne.n	102e <_ZN14blink_nrf518224main17h5d64dfdd3a94922fE+0x29e>
    10c0:	e00d      	b.n	10de <_ZN14blink_nrf518224main17h5d64dfdd3a94922fE+0x34e>
    10c2:	9831      	ldr	r0, [sp, #196]	; 0xc4
    10c4:	6800      	ldr	r0, [r0, #0]
    10c6:	2100      	movs	r1, #0
    10c8:	460a      	mov	r2, r1
    10ca:	f7ff fa89 	bl	5e0 <_ZN14blink_nrf518227display4draw17haa5976ca818aacebE>
    10ce:	f7ff f8db 	bl	288 <_ZN14blink_nrf518227display14update_display17h4431b73682dcb2eaE>
    10d2:	982e      	ldr	r0, [sp, #184]	; 0xb8
    10d4:	992f      	ldr	r1, [sp, #188]	; 0xbc
    10d6:	4281      	cmp	r1, r0
    10d8:	4608      	mov	r0, r1
    10da:	d1a4      	bne.n	1026 <_ZN14blink_nrf518224main17h5d64dfdd3a94922fE+0x296>
    10dc:	e798      	b.n	1010 <_ZN14blink_nrf518224main17h5d64dfdd3a94922fE+0x280>
    10de:	9e18      	ldr	r6, [sp, #96]	; 0x60
    10e0:	4840      	ldr	r0, [pc, #256]	; (11e4 <_ZN14blink_nrf518224main17h5d64dfdd3a94922fE+0x454>)
    10e2:	7006      	strb	r6, [r0, #0]
    10e4:	2400      	movs	r4, #0
    10e6:	4840      	ldr	r0, [pc, #256]	; (11e8 <_ZN14blink_nrf518224main17h5d64dfdd3a94922fE+0x458>)
    10e8:	6004      	str	r4, [r0, #0]
    10ea:	4846      	ldr	r0, [pc, #280]	; (1204 <_ZN14blink_nrf518224main17h5d64dfdd3a94922fE+0x474>)
    10ec:	6881      	ldr	r1, [r0, #8]
    10ee:	4a40      	ldr	r2, [pc, #256]	; (11f0 <_ZN14blink_nrf518224main17h5d64dfdd3a94922fE+0x460>)
    10f0:	6091      	str	r1, [r2, #8]
    10f2:	6841      	ldr	r1, [r0, #4]
    10f4:	6051      	str	r1, [r2, #4]
    10f6:	6800      	ldr	r0, [r0, #0]
    10f8:	6010      	str	r0, [r2, #0]
    10fa:	483e      	ldr	r0, [pc, #248]	; (11f4 <_ZN14blink_nrf518224main17h5d64dfdd3a94922fE+0x464>)
    10fc:	6004      	str	r4, [r0, #0]
    10fe:	483e      	ldr	r0, [pc, #248]	; (11f8 <_ZN14blink_nrf518224main17h5d64dfdd3a94922fE+0x468>)
    1100:	6004      	str	r4, [r0, #0]
    1102:	483e      	ldr	r0, [pc, #248]	; (11fc <_ZN14blink_nrf518224main17h5d64dfdd3a94922fE+0x46c>)
    1104:	6004      	str	r4, [r0, #0]
    1106:	483e      	ldr	r0, [pc, #248]	; (1200 <_ZN14blink_nrf518224main17h5d64dfdd3a94922fE+0x470>)
    1108:	6004      	str	r4, [r0, #0]
    110a:	203f      	movs	r0, #63	; 0x3f
    110c:	0601      	lsls	r1, r0, #24
    110e:	4620      	mov	r0, r4
    1110:	f7ff f860 	bl	1d4 <_ZN14blink_nrf518227display7fade_to17h8c516a49d9bd70f0E>
    1114:	02b1      	lsls	r1, r6, #10
    1116:	9e30      	ldr	r6, [sp, #192]	; 0xc0
    1118:	483b      	ldr	r0, [pc, #236]	; (1208 <_ZN14blink_nrf518224main17h5d64dfdd3a94922fE+0x478>)
    111a:	912f      	str	r1, [sp, #188]	; 0xbc
    111c:	7004      	strb	r4, [r0, #0]
    111e:	1989      	adds	r1, r1, r6
    1120:	1c40      	adds	r0, r0, #1
    1122:	2900      	cmp	r1, #0
    1124:	d1fa      	bne.n	111c <_ZN14blink_nrf518224main17h5d64dfdd3a94922fE+0x38c>
    1126:	9523      	str	r5, [sp, #140]	; 0x8c
    1128:	9818      	ldr	r0, [sp, #96]	; 0x60
    112a:	0280      	lsls	r0, r0, #10
    112c:	4936      	ldr	r1, [pc, #216]	; (1208 <_ZN14blink_nrf518224main17h5d64dfdd3a94922fE+0x478>)
    112e:	540c      	strb	r4, [r1, r0]
    1130:	4836      	ldr	r0, [pc, #216]	; (120c <_ZN14blink_nrf518224main17h5d64dfdd3a94922fE+0x47c>)
    1132:	2207      	movs	r2, #7
    1134:	921b      	str	r2, [sp, #108]	; 0x6c
    1136:	540a      	strb	r2, [r1, r0]
    1138:	f7ff f8a6 	bl	288 <_ZN14blink_nrf518227display14update_display17h4431b73682dcb2eaE>
    113c:	4c18      	ldr	r4, [pc, #96]	; (11a0 <_ZN14blink_nrf518224main17h5d64dfdd3a94922fE+0x410>)
    113e:	4922      	ldr	r1, [pc, #136]	; (11c8 <_ZN14blink_nrf518224main17h5d64dfdd3a94922fE+0x438>)
    1140:	2502      	movs	r5, #2
    1142:	4620      	mov	r0, r4
    1144:	462a      	mov	r2, r5
    1146:	f002 fa03 	bl	3550 <_ZN4zinc3hal8nrf518223twi3Twi11write_bytes17h0e15bed708b2e767E>
    114a:	a955      	add	r1, sp, #340	; 0x154
    114c:	9827      	ldr	r0, [sp, #156]	; 0x9c
    114e:	7008      	strb	r0, [r1, #0]
    1150:	4607      	mov	r7, r0
    1152:	377f      	adds	r7, #127	; 0x7f
    1154:	704f      	strb	r7, [r1, #1]
    1156:	4620      	mov	r0, r4
    1158:	9524      	str	r5, [sp, #144]	; 0x90
    115a:	462a      	mov	r2, r5
    115c:	f002 f9f8 	bl	3550 <_ZN4zinc3hal8nrf518223twi3Twi11write_bytes17h0e15bed708b2e767E>
    1160:	9703      	str	r7, [sp, #12]
    1162:	481a      	ldr	r0, [pc, #104]	; (11cc <_ZN14blink_nrf518224main17h5d64dfdd3a94922fE+0x43c>)
    1164:	7007      	strb	r7, [r0, #0]
    1166:	4b2a      	ldr	r3, [pc, #168]	; (1210 <_ZN14blink_nrf518224main17h5d64dfdd3a94922fE+0x480>)
    1168:	6818      	ldr	r0, [r3, #0]
    116a:	2800      	cmp	r0, #0
    116c:	d052      	beq.n	1214 <_ZN14blink_nrf518224main17h5d64dfdd3a94922fE+0x484>
    116e:	1981      	adds	r1, r0, r6
    1170:	4a1f      	ldr	r2, [pc, #124]	; (11f0 <_ZN14blink_nrf518224main17h5d64dfdd3a94922fE+0x460>)
    1172:	68d0      	ldr	r0, [r2, #12]
    1174:	6917      	ldr	r7, [r2, #16]
    1176:	6956      	ldr	r6, [r2, #20]
    1178:	6994      	ldr	r4, [r2, #24]
    117a:	e05c      	b.n	1236 <_ZN14blink_nrf518224main17h5d64dfdd3a94922fE+0x4a6>
    117c:	20000448 	.word	0x20000448
    1180:	20000420 	.word	0x20000420
    1184:	20000000 	.word	0x20000000
    1188:	0000d01c 	.word	0x0000d01c
    118c:	20000440 	.word	0x20000440
    1190:	20000420 	.word	0x20000420
    1194:	01d7e000 	.word	0x01d7e000
    1198:	00006469 	.word	0x00006469
    119c:	000186a0 	.word	0x000186a0
    11a0:	00006469 	.word	0x00006469
    11a4:	00006648 	.word	0x00006648
    11a8:	00002710 	.word	0x00002710
    11ac:	0000664a 	.word	0x0000664a
    11b0:	0000664c 	.word	0x0000664c
    11b4:	0000664e 	.word	0x0000664e
    11b8:	00006650 	.word	0x00006650
    11bc:	00006652 	.word	0x00006652
    11c0:	0000665c 	.word	0x0000665c
    11c4:	0000665e 	.word	0x0000665e
    11c8:	00006469 	.word	0x00006469
    11cc:	20000420 	.word	0x20000420
    11d0:	00006660 	.word	0x00006660
    11d4:	00006662 	.word	0x00006662
    11d8:	0000c8c0 	.word	0x0000c8c0
    11dc:	00008914 	.word	0x00008914
    11e0:	00001388 	.word	0x00001388
    11e4:	20000438 	.word	0x20000438
    11e8:	20000424 	.word	0x20000424
    11ec:	00008f48 	.word	0x00008f48
    11f0:	20000000 	.word	0x20000000
    11f4:	20000428 	.word	0x20000428
    11f8:	2000042c 	.word	0x2000042c
    11fc:	20000430 	.word	0x20000430
    1200:	20000434 	.word	0x20000434
    1204:	00006888 	.word	0x00006888
    1208:	2000001c 	.word	0x2000001c
    120c:	00000401 	.word	0x00000401
    1210:	2000043c 	.word	0x2000043c
    1214:	a839      	add	r0, sp, #228	; 0xe4
    1216:	2110      	movs	r1, #16
    1218:	f002 fa00 	bl	361c <_ZN4zinc3hal8nrf518224rand9fill_rand17h7dfab05370fe1cccE>
    121c:	4be7      	ldr	r3, [pc, #924]	; (15bc <_ZN14blink_nrf518224main17h5d64dfdd3a94922fE+0x82c>)
    121e:	9839      	ldr	r0, [sp, #228]	; 0xe4
    1220:	4ae7      	ldr	r2, [pc, #924]	; (15c0 <_ZN14blink_nrf518224main17h5d64dfdd3a94922fE+0x830>)
    1222:	60d0      	str	r0, [r2, #12]
    1224:	9f3a      	ldr	r7, [sp, #232]	; 0xe8
    1226:	6117      	str	r7, [r2, #16]
    1228:	9e3b      	ldr	r6, [sp, #236]	; 0xec
    122a:	6156      	str	r6, [r2, #20]
    122c:	9c3c      	ldr	r4, [sp, #240]	; 0xf0
    122e:	6194      	str	r4, [r2, #24]
    1230:	2164      	movs	r1, #100	; 0x64
    1232:	6019      	str	r1, [r3, #0]
    1234:	2163      	movs	r1, #99	; 0x63
    1236:	912e      	str	r1, [sp, #184]	; 0xb8
    1238:	6019      	str	r1, [r3, #0]
    123a:	02c1      	lsls	r1, r0, #11
    123c:	4041      	eors	r1, r0
    123e:	0ce5      	lsrs	r5, r4, #19
    1240:	4065      	eors	r5, r4
    1242:	404d      	eors	r5, r1
    1244:	0a08      	lsrs	r0, r1, #8
    1246:	4068      	eors	r0, r5
    1248:	972d      	str	r7, [sp, #180]	; 0xb4
    124a:	60d7      	str	r7, [r2, #12]
    124c:	9632      	str	r6, [sp, #200]	; 0xc8
    124e:	6116      	str	r6, [r2, #16]
    1250:	6154      	str	r4, [r2, #20]
    1252:	6190      	str	r0, [r2, #24]
    1254:	2105      	movs	r1, #5
    1256:	9031      	str	r0, [sp, #196]	; 0xc4
    1258:	4615      	mov	r5, r2
    125a:	461e      	mov	r6, r3
    125c:	f003 f9c6 	bl	45ec <__aeabi_uidivmod>
    1260:	0088      	lsls	r0, r1, #2
    1262:	992e      	ldr	r1, [sp, #184]	; 0xb8
    1264:	9029      	str	r0, [sp, #164]	; 0xa4
    1266:	2900      	cmp	r1, #0
    1268:	d006      	beq.n	1278 <_ZN14blink_nrf518224main17h5d64dfdd3a94922fE+0x4e8>
    126a:	9830      	ldr	r0, [sp, #192]	; 0xc0
    126c:	180f      	adds	r7, r1, r0
    126e:	4630      	mov	r0, r6
    1270:	9b31      	ldr	r3, [sp, #196]	; 0xc4
    1272:	9e32      	ldr	r6, [sp, #200]	; 0xc8
    1274:	992d      	ldr	r1, [sp, #180]	; 0xb4
    1276:	e010      	b.n	129a <_ZN14blink_nrf518224main17h5d64dfdd3a94922fE+0x50a>
    1278:	a839      	add	r0, sp, #228	; 0xe4
    127a:	2110      	movs	r1, #16
    127c:	f002 f9ce 	bl	361c <_ZN4zinc3hal8nrf518224rand9fill_rand17h7dfab05370fe1cccE>
    1280:	9939      	ldr	r1, [sp, #228]	; 0xe4
    1282:	60e9      	str	r1, [r5, #12]
    1284:	4632      	mov	r2, r6
    1286:	9e3a      	ldr	r6, [sp, #232]	; 0xe8
    1288:	612e      	str	r6, [r5, #16]
    128a:	9c3b      	ldr	r4, [sp, #236]	; 0xec
    128c:	616c      	str	r4, [r5, #20]
    128e:	9b3c      	ldr	r3, [sp, #240]	; 0xf0
    1290:	61ab      	str	r3, [r5, #24]
    1292:	2064      	movs	r0, #100	; 0x64
    1294:	6010      	str	r0, [r2, #0]
    1296:	2763      	movs	r7, #99	; 0x63
    1298:	4610      	mov	r0, r2
    129a:	6007      	str	r7, [r0, #0]
    129c:	02c8      	lsls	r0, r1, #11
    129e:	4048      	eors	r0, r1
    12a0:	0cd9      	lsrs	r1, r3, #19
    12a2:	4059      	eors	r1, r3
    12a4:	4041      	eors	r1, r0
    12a6:	0a00      	lsrs	r0, r0, #8
    12a8:	4048      	eors	r0, r1
    12aa:	9632      	str	r6, [sp, #200]	; 0xc8
    12ac:	60ee      	str	r6, [r5, #12]
    12ae:	612c      	str	r4, [r5, #16]
    12b0:	9331      	str	r3, [sp, #196]	; 0xc4
    12b2:	616b      	str	r3, [r5, #20]
    12b4:	61a8      	str	r0, [r5, #24]
    12b6:	217f      	movs	r1, #127	; 0x7f
    12b8:	4606      	mov	r6, r0
    12ba:	f003 f997 	bl	45ec <__aeabi_uidivmod>
    12be:	912a      	str	r1, [sp, #168]	; 0xa8
    12c0:	2f00      	cmp	r7, #0
    12c2:	d007      	beq.n	12d4 <_ZN14blink_nrf518224main17h5d64dfdd3a94922fE+0x544>
    12c4:	9830      	ldr	r0, [sp, #192]	; 0xc0
    12c6:	1838      	adds	r0, r7, r0
    12c8:	902c      	str	r0, [sp, #176]	; 0xb0
    12ca:	462f      	mov	r7, r5
    12cc:	4abb      	ldr	r2, [pc, #748]	; (15bc <_ZN14blink_nrf518224main17h5d64dfdd3a94922fE+0x82c>)
    12ce:	9b31      	ldr	r3, [sp, #196]	; 0xc4
    12d0:	9932      	ldr	r1, [sp, #200]	; 0xc8
    12d2:	e011      	b.n	12f8 <_ZN14blink_nrf518224main17h5d64dfdd3a94922fE+0x568>
    12d4:	a839      	add	r0, sp, #228	; 0xe4
    12d6:	2110      	movs	r1, #16
    12d8:	f002 f9a0 	bl	361c <_ZN4zinc3hal8nrf518224rand9fill_rand17h7dfab05370fe1cccE>
    12dc:	9939      	ldr	r1, [sp, #228]	; 0xe4
    12de:	60e9      	str	r1, [r5, #12]
    12e0:	9c3a      	ldr	r4, [sp, #232]	; 0xe8
    12e2:	612c      	str	r4, [r5, #16]
    12e4:	9b3b      	ldr	r3, [sp, #236]	; 0xec
    12e6:	616b      	str	r3, [r5, #20]
    12e8:	9e3c      	ldr	r6, [sp, #240]	; 0xf0
    12ea:	61ae      	str	r6, [r5, #24]
    12ec:	2064      	movs	r0, #100	; 0x64
    12ee:	4ab3      	ldr	r2, [pc, #716]	; (15bc <_ZN14blink_nrf518224main17h5d64dfdd3a94922fE+0x82c>)
    12f0:	6010      	str	r0, [r2, #0]
    12f2:	2063      	movs	r0, #99	; 0x63
    12f4:	902c      	str	r0, [sp, #176]	; 0xb0
    12f6:	462f      	mov	r7, r5
    12f8:	9d2c      	ldr	r5, [sp, #176]	; 0xb0
    12fa:	6015      	str	r5, [r2, #0]
    12fc:	02c8      	lsls	r0, r1, #11
    12fe:	4048      	eors	r0, r1
    1300:	0cf1      	lsrs	r1, r6, #19
    1302:	4071      	eors	r1, r6
    1304:	4041      	eors	r1, r0
    1306:	0a00      	lsrs	r0, r0, #8
    1308:	4048      	eors	r0, r1
    130a:	60fc      	str	r4, [r7, #12]
    130c:	9331      	str	r3, [sp, #196]	; 0xc4
    130e:	613b      	str	r3, [r7, #16]
    1310:	962d      	str	r6, [sp, #180]	; 0xb4
    1312:	617e      	str	r6, [r7, #20]
    1314:	61b8      	str	r0, [r7, #24]
    1316:	2114      	movs	r1, #20
    1318:	902e      	str	r0, [sp, #184]	; 0xb8
    131a:	4616      	mov	r6, r2
    131c:	f003 f966 	bl	45ec <__aeabi_uidivmod>
    1320:	4608      	mov	r0, r1
    1322:	f004 f8af 	bl	5484 <__aeabi_ui2f>
    1326:	4601      	mov	r1, r0
    1328:	9818      	ldr	r0, [sp, #96]	; 0x60
    132a:	07c0      	lsls	r0, r0, #31
    132c:	9032      	str	r0, [sp, #200]	; 0xc8
    132e:	4041      	eors	r1, r0
    1330:	9128      	str	r1, [sp, #160]	; 0xa0
    1332:	2d00      	cmp	r5, #0
    1334:	d007      	beq.n	1346 <_ZN14blink_nrf518224main17h5d64dfdd3a94922fE+0x5b6>
    1336:	992c      	ldr	r1, [sp, #176]	; 0xb0
    1338:	9830      	ldr	r0, [sp, #192]	; 0xc0
    133a:	1809      	adds	r1, r1, r0
    133c:	4632      	mov	r2, r6
    133e:	9b31      	ldr	r3, [sp, #196]	; 0xc4
    1340:	9e2d      	ldr	r6, [sp, #180]	; 0xb4
    1342:	9d2e      	ldr	r5, [sp, #184]	; 0xb8
    1344:	e00f      	b.n	1366 <_ZN14blink_nrf518224main17h5d64dfdd3a94922fE+0x5d6>
    1346:	a839      	add	r0, sp, #228	; 0xe4
    1348:	2110      	movs	r1, #16
    134a:	f002 f967 	bl	361c <_ZN4zinc3hal8nrf518224rand9fill_rand17h7dfab05370fe1cccE>
    134e:	9c39      	ldr	r4, [sp, #228]	; 0xe4
    1350:	60fc      	str	r4, [r7, #12]
    1352:	9b3a      	ldr	r3, [sp, #232]	; 0xe8
    1354:	613b      	str	r3, [r7, #16]
    1356:	4632      	mov	r2, r6
    1358:	9e3b      	ldr	r6, [sp, #236]	; 0xec
    135a:	617e      	str	r6, [r7, #20]
    135c:	9d3c      	ldr	r5, [sp, #240]	; 0xf0
    135e:	61bd      	str	r5, [r7, #24]
    1360:	2064      	movs	r0, #100	; 0x64
    1362:	6010      	str	r0, [r2, #0]
    1364:	2163      	movs	r1, #99	; 0x63
    1366:	912c      	str	r1, [sp, #176]	; 0xb0
    1368:	6011      	str	r1, [r2, #0]
    136a:	02e0      	lsls	r0, r4, #11
    136c:	4060      	eors	r0, r4
    136e:	0ce9      	lsrs	r1, r5, #19
    1370:	4069      	eors	r1, r5
    1372:	4041      	eors	r1, r0
    1374:	0a04      	lsrs	r4, r0, #8
    1376:	404c      	eors	r4, r1
    1378:	9331      	str	r3, [sp, #196]	; 0xc4
    137a:	60fb      	str	r3, [r7, #12]
    137c:	962d      	str	r6, [sp, #180]	; 0xb4
    137e:	613e      	str	r6, [r7, #16]
    1380:	952e      	str	r5, [sp, #184]	; 0xb8
    1382:	617d      	str	r5, [r7, #20]
    1384:	61bc      	str	r4, [r7, #24]
    1386:	2114      	movs	r1, #20
    1388:	4620      	mov	r0, r4
    138a:	4615      	mov	r5, r2
    138c:	f003 f92e 	bl	45ec <__aeabi_uidivmod>
    1390:	310a      	adds	r1, #10
    1392:	4608      	mov	r0, r1
    1394:	f004 f876 	bl	5484 <__aeabi_ui2f>
    1398:	498a      	ldr	r1, [pc, #552]	; (15c4 <_ZN14blink_nrf518224main17h5d64dfdd3a94922fE+0x834>)
    139a:	f003 fb57 	bl	4a4c <__aeabi_fdiv>
    139e:	992c      	ldr	r1, [sp, #176]	; 0xb0
    13a0:	9026      	str	r0, [sp, #152]	; 0x98
    13a2:	2900      	cmp	r1, #0
    13a4:	d007      	beq.n	13b6 <_ZN14blink_nrf518224main17h5d64dfdd3a94922fE+0x626>
    13a6:	9830      	ldr	r0, [sp, #192]	; 0xc0
    13a8:	1808      	adds	r0, r1, r0
    13aa:	902c      	str	r0, [sp, #176]	; 0xb0
    13ac:	4628      	mov	r0, r5
    13ae:	9931      	ldr	r1, [sp, #196]	; 0xc4
    13b0:	9b2d      	ldr	r3, [sp, #180]	; 0xb4
    13b2:	9a2e      	ldr	r2, [sp, #184]	; 0xb8
    13b4:	e010      	b.n	13d8 <_ZN14blink_nrf518224main17h5d64dfdd3a94922fE+0x648>
    13b6:	a839      	add	r0, sp, #228	; 0xe4
    13b8:	2110      	movs	r1, #16
    13ba:	f002 f92f 	bl	361c <_ZN4zinc3hal8nrf518224rand9fill_rand17h7dfab05370fe1cccE>
    13be:	9939      	ldr	r1, [sp, #228]	; 0xe4
    13c0:	60f9      	str	r1, [r7, #12]
    13c2:	9b3a      	ldr	r3, [sp, #232]	; 0xe8
    13c4:	613b      	str	r3, [r7, #16]
    13c6:	9a3b      	ldr	r2, [sp, #236]	; 0xec
    13c8:	617a      	str	r2, [r7, #20]
    13ca:	9c3c      	ldr	r4, [sp, #240]	; 0xf0
    13cc:	61bc      	str	r4, [r7, #24]
    13ce:	2064      	movs	r0, #100	; 0x64
    13d0:	6028      	str	r0, [r5, #0]
    13d2:	2063      	movs	r0, #99	; 0x63
    13d4:	902c      	str	r0, [sp, #176]	; 0xb0
    13d6:	4628      	mov	r0, r5
    13d8:	9e2c      	ldr	r6, [sp, #176]	; 0xb0
    13da:	6006      	str	r6, [r0, #0]
    13dc:	02c8      	lsls	r0, r1, #11
    13de:	4048      	eors	r0, r1
    13e0:	0ce1      	lsrs	r1, r4, #19
    13e2:	4061      	eors	r1, r4
    13e4:	4041      	eors	r1, r0
    13e6:	0a05      	lsrs	r5, r0, #8
    13e8:	404d      	eors	r5, r1
    13ea:	932d      	str	r3, [sp, #180]	; 0xb4
    13ec:	60fb      	str	r3, [r7, #12]
    13ee:	922e      	str	r2, [sp, #184]	; 0xb8
    13f0:	4638      	mov	r0, r7
    13f2:	3010      	adds	r0, #16
    13f4:	c034      	stmia	r0!, {r2, r4, r5}
    13f6:	2105      	movs	r1, #5
    13f8:	4628      	mov	r0, r5
    13fa:	f003 f8f7 	bl	45ec <__aeabi_uidivmod>
    13fe:	0088      	lsls	r0, r1, #2
    1400:	9022      	str	r0, [sp, #136]	; 0x88
    1402:	2e00      	cmp	r6, #0
    1404:	d009      	beq.n	141a <_ZN14blink_nrf518224main17h5d64dfdd3a94922fE+0x68a>
    1406:	9830      	ldr	r0, [sp, #192]	; 0xc0
    1408:	992c      	ldr	r1, [sp, #176]	; 0xb0
    140a:	1808      	adds	r0, r1, r0
    140c:	9031      	str	r0, [sp, #196]	; 0xc4
    140e:	463e      	mov	r6, r7
    1410:	486a      	ldr	r0, [pc, #424]	; (15bc <_ZN14blink_nrf518224main17h5d64dfdd3a94922fE+0x82c>)
    1412:	992d      	ldr	r1, [sp, #180]	; 0xb4
    1414:	9b2e      	ldr	r3, [sp, #184]	; 0xb8
    1416:	462a      	mov	r2, r5
    1418:	e012      	b.n	1440 <_ZN14blink_nrf518224main17h5d64dfdd3a94922fE+0x6b0>
    141a:	a839      	add	r0, sp, #228	; 0xe4
    141c:	2110      	movs	r1, #16
    141e:	f002 f8fd 	bl	361c <_ZN4zinc3hal8nrf518224rand9fill_rand17h7dfab05370fe1cccE>
    1422:	9939      	ldr	r1, [sp, #228]	; 0xe4
    1424:	60f9      	str	r1, [r7, #12]
    1426:	9b3a      	ldr	r3, [sp, #232]	; 0xe8
    1428:	613b      	str	r3, [r7, #16]
    142a:	9c3b      	ldr	r4, [sp, #236]	; 0xec
    142c:	617c      	str	r4, [r7, #20]
    142e:	9a3c      	ldr	r2, [sp, #240]	; 0xf0
    1430:	61ba      	str	r2, [r7, #24]
    1432:	2064      	movs	r0, #100	; 0x64
    1434:	4d61      	ldr	r5, [pc, #388]	; (15bc <_ZN14blink_nrf518224main17h5d64dfdd3a94922fE+0x82c>)
    1436:	6028      	str	r0, [r5, #0]
    1438:	2063      	movs	r0, #99	; 0x63
    143a:	9031      	str	r0, [sp, #196]	; 0xc4
    143c:	463e      	mov	r6, r7
    143e:	4628      	mov	r0, r5
    1440:	9d31      	ldr	r5, [sp, #196]	; 0xc4
    1442:	6005      	str	r5, [r0, #0]
    1444:	02c8      	lsls	r0, r1, #11
    1446:	4048      	eors	r0, r1
    1448:	0cd1      	lsrs	r1, r2, #19
    144a:	4051      	eors	r1, r2
    144c:	4041      	eors	r1, r0
    144e:	0a07      	lsrs	r7, r0, #8
    1450:	404f      	eors	r7, r1
    1452:	932e      	str	r3, [sp, #184]	; 0xb8
    1454:	60f3      	str	r3, [r6, #12]
    1456:	6134      	str	r4, [r6, #16]
    1458:	922d      	str	r2, [sp, #180]	; 0xb4
    145a:	6172      	str	r2, [r6, #20]
    145c:	61b7      	str	r7, [r6, #24]
    145e:	217f      	movs	r1, #127	; 0x7f
    1460:	4638      	mov	r0, r7
    1462:	f003 f8c3 	bl	45ec <__aeabi_uidivmod>
    1466:	9125      	str	r1, [sp, #148]	; 0x94
    1468:	2d00      	cmp	r5, #0
    146a:	d006      	beq.n	147a <_ZN14blink_nrf518224main17h5d64dfdd3a94922fE+0x6ea>
    146c:	9830      	ldr	r0, [sp, #192]	; 0xc0
    146e:	9931      	ldr	r1, [sp, #196]	; 0xc4
    1470:	180b      	adds	r3, r1, r0
    1472:	4852      	ldr	r0, [pc, #328]	; (15bc <_ZN14blink_nrf518224main17h5d64dfdd3a94922fE+0x82c>)
    1474:	992e      	ldr	r1, [sp, #184]	; 0xb8
    1476:	9a2d      	ldr	r2, [sp, #180]	; 0xb4
    1478:	e011      	b.n	149e <_ZN14blink_nrf518224main17h5d64dfdd3a94922fE+0x70e>
    147a:	a839      	add	r0, sp, #228	; 0xe4
    147c:	2110      	movs	r1, #16
    147e:	f002 f8cd 	bl	361c <_ZN4zinc3hal8nrf518224rand9fill_rand17h7dfab05370fe1cccE>
    1482:	9939      	ldr	r1, [sp, #228]	; 0xe4
    1484:	60f1      	str	r1, [r6, #12]
    1486:	9c3a      	ldr	r4, [sp, #232]	; 0xe8
    1488:	6134      	str	r4, [r6, #16]
    148a:	9a3b      	ldr	r2, [sp, #236]	; 0xec
    148c:	6172      	str	r2, [r6, #20]
    148e:	9f3c      	ldr	r7, [sp, #240]	; 0xf0
    1490:	61b7      	str	r7, [r6, #24]
    1492:	2064      	movs	r0, #100	; 0x64
    1494:	4b49      	ldr	r3, [pc, #292]	; (15bc <_ZN14blink_nrf518224main17h5d64dfdd3a94922fE+0x82c>)
    1496:	461d      	mov	r5, r3
    1498:	6028      	str	r0, [r5, #0]
    149a:	2363      	movs	r3, #99	; 0x63
    149c:	4628      	mov	r0, r5
    149e:	6003      	str	r3, [r0, #0]
    14a0:	02c8      	lsls	r0, r1, #11
    14a2:	4048      	eors	r0, r1
    14a4:	0cf9      	lsrs	r1, r7, #19
    14a6:	4079      	eors	r1, r7
    14a8:	4041      	eors	r1, r0
    14aa:	0a00      	lsrs	r0, r0, #8
    14ac:	4048      	eors	r0, r1
    14ae:	942e      	str	r4, [sp, #184]	; 0xb8
    14b0:	60f4      	str	r4, [r6, #12]
    14b2:	4615      	mov	r5, r2
    14b4:	6132      	str	r2, [r6, #16]
    14b6:	6177      	str	r7, [r6, #20]
    14b8:	61b0      	str	r0, [r6, #24]
    14ba:	2114      	movs	r1, #20
    14bc:	9031      	str	r0, [sp, #196]	; 0xc4
    14be:	461c      	mov	r4, r3
    14c0:	f003 f894 	bl	45ec <__aeabi_uidivmod>
    14c4:	4608      	mov	r0, r1
    14c6:	f003 ffdd 	bl	5484 <__aeabi_ui2f>
    14ca:	4601      	mov	r1, r0
    14cc:	9832      	ldr	r0, [sp, #200]	; 0xc8
    14ce:	4041      	eors	r1, r0
    14d0:	9121      	str	r1, [sp, #132]	; 0x84
    14d2:	2c00      	cmp	r4, #0
    14d4:	d006      	beq.n	14e4 <_ZN14blink_nrf518224main17h5d64dfdd3a94922fE+0x754>
    14d6:	9830      	ldr	r0, [sp, #192]	; 0xc0
    14d8:	1820      	adds	r0, r4, r0
    14da:	4632      	mov	r2, r6
    14dc:	4e37      	ldr	r6, [pc, #220]	; (15bc <_ZN14blink_nrf518224main17h5d64dfdd3a94922fE+0x82c>)
    14de:	9b31      	ldr	r3, [sp, #196]	; 0xc4
    14e0:	992e      	ldr	r1, [sp, #184]	; 0xb8
    14e2:	e012      	b.n	150a <_ZN14blink_nrf518224main17h5d64dfdd3a94922fE+0x77a>
    14e4:	a839      	add	r0, sp, #228	; 0xe4
    14e6:	2110      	movs	r1, #16
    14e8:	f002 f898 	bl	361c <_ZN4zinc3hal8nrf518224rand9fill_rand17h7dfab05370fe1cccE>
    14ec:	9939      	ldr	r1, [sp, #228]	; 0xe4
    14ee:	60f1      	str	r1, [r6, #12]
    14f0:	9d3a      	ldr	r5, [sp, #232]	; 0xe8
    14f2:	6135      	str	r5, [r6, #16]
    14f4:	9f3b      	ldr	r7, [sp, #236]	; 0xec
    14f6:	6177      	str	r7, [r6, #20]
    14f8:	9b3c      	ldr	r3, [sp, #240]	; 0xf0
    14fa:	61b3      	str	r3, [r6, #24]
    14fc:	2064      	movs	r0, #100	; 0x64
    14fe:	4a2f      	ldr	r2, [pc, #188]	; (15bc <_ZN14blink_nrf518224main17h5d64dfdd3a94922fE+0x82c>)
    1500:	4614      	mov	r4, r2
    1502:	6020      	str	r0, [r4, #0]
    1504:	2063      	movs	r0, #99	; 0x63
    1506:	4632      	mov	r2, r6
    1508:	4626      	mov	r6, r4
    150a:	902e      	str	r0, [sp, #184]	; 0xb8
    150c:	6030      	str	r0, [r6, #0]
    150e:	02c8      	lsls	r0, r1, #11
    1510:	4048      	eors	r0, r1
    1512:	0cd9      	lsrs	r1, r3, #19
    1514:	4059      	eors	r1, r3
    1516:	4041      	eors	r1, r0
    1518:	0a04      	lsrs	r4, r0, #8
    151a:	404c      	eors	r4, r1
    151c:	60d5      	str	r5, [r2, #12]
    151e:	6117      	str	r7, [r2, #16]
    1520:	9331      	str	r3, [sp, #196]	; 0xc4
    1522:	6153      	str	r3, [r2, #20]
    1524:	6194      	str	r4, [r2, #24]
    1526:	2114      	movs	r1, #20
    1528:	4620      	mov	r0, r4
    152a:	f003 f85f 	bl	45ec <__aeabi_uidivmod>
    152e:	310a      	adds	r1, #10
    1530:	4608      	mov	r0, r1
    1532:	f003 ffa7 	bl	5484 <__aeabi_ui2f>
    1536:	4923      	ldr	r1, [pc, #140]	; (15c4 <_ZN14blink_nrf518224main17h5d64dfdd3a94922fE+0x834>)
    1538:	f003 fa88 	bl	4a4c <__aeabi_fdiv>
    153c:	992e      	ldr	r1, [sp, #184]	; 0xb8
    153e:	9020      	str	r0, [sp, #128]	; 0x80
    1540:	2900      	cmp	r1, #0
    1542:	d007      	beq.n	1554 <_ZN14blink_nrf518224main17h5d64dfdd3a94922fE+0x7c4>
    1544:	9830      	ldr	r0, [sp, #192]	; 0xc0
    1546:	1808      	adds	r0, r1, r0
    1548:	902e      	str	r0, [sp, #184]	; 0xb8
    154a:	4630      	mov	r0, r6
    154c:	4e1c      	ldr	r6, [pc, #112]	; (15c0 <_ZN14blink_nrf518224main17h5d64dfdd3a94922fE+0x830>)
    154e:	9b31      	ldr	r3, [sp, #196]	; 0xc4
    1550:	463a      	mov	r2, r7
    1552:	e013      	b.n	157c <_ZN14blink_nrf518224main17h5d64dfdd3a94922fE+0x7ec>
    1554:	a839      	add	r0, sp, #228	; 0xe4
    1556:	2110      	movs	r1, #16
    1558:	f002 f860 	bl	361c <_ZN4zinc3hal8nrf518224rand9fill_rand17h7dfab05370fe1cccE>
    155c:	9d39      	ldr	r5, [sp, #228]	; 0xe4
    155e:	4818      	ldr	r0, [pc, #96]	; (15c0 <_ZN14blink_nrf518224main17h5d64dfdd3a94922fE+0x830>)
    1560:	4601      	mov	r1, r0
    1562:	60cd      	str	r5, [r1, #12]
    1564:	9a3a      	ldr	r2, [sp, #232]	; 0xe8
    1566:	610a      	str	r2, [r1, #16]
    1568:	9b3b      	ldr	r3, [sp, #236]	; 0xec
    156a:	614b      	str	r3, [r1, #20]
    156c:	9c3c      	ldr	r4, [sp, #240]	; 0xf0
    156e:	618c      	str	r4, [r1, #24]
    1570:	2064      	movs	r0, #100	; 0x64
    1572:	6030      	str	r0, [r6, #0]
    1574:	2063      	movs	r0, #99	; 0x63
    1576:	902e      	str	r0, [sp, #184]	; 0xb8
    1578:	4630      	mov	r0, r6
    157a:	460e      	mov	r6, r1
    157c:	9f2e      	ldr	r7, [sp, #184]	; 0xb8
    157e:	6007      	str	r7, [r0, #0]
    1580:	02e8      	lsls	r0, r5, #11
    1582:	4068      	eors	r0, r5
    1584:	0ce1      	lsrs	r1, r4, #19
    1586:	4061      	eors	r1, r4
    1588:	4041      	eors	r1, r0
    158a:	0a00      	lsrs	r0, r0, #8
    158c:	4048      	eors	r0, r1
    158e:	922d      	str	r2, [sp, #180]	; 0xb4
    1590:	60f2      	str	r2, [r6, #12]
    1592:	9331      	str	r3, [sp, #196]	; 0xc4
    1594:	6133      	str	r3, [r6, #16]
    1596:	6174      	str	r4, [r6, #20]
    1598:	61b0      	str	r0, [r6, #24]
    159a:	2105      	movs	r1, #5
    159c:	4605      	mov	r5, r0
    159e:	f003 f825 	bl	45ec <__aeabi_uidivmod>
    15a2:	0088      	lsls	r0, r1, #2
    15a4:	9019      	str	r0, [sp, #100]	; 0x64
    15a6:	2f00      	cmp	r7, #0
    15a8:	d00e      	beq.n	15c8 <_ZN14blink_nrf518224main17h5d64dfdd3a94922fE+0x838>
    15aa:	9830      	ldr	r0, [sp, #192]	; 0xc0
    15ac:	992e      	ldr	r1, [sp, #184]	; 0xb8
    15ae:	1808      	adds	r0, r1, r0
    15b0:	902e      	str	r0, [sp, #184]	; 0xb8
    15b2:	4802      	ldr	r0, [pc, #8]	; (15bc <_ZN14blink_nrf518224main17h5d64dfdd3a94922fE+0x82c>)
    15b4:	9b31      	ldr	r3, [sp, #196]	; 0xc4
    15b6:	992d      	ldr	r1, [sp, #180]	; 0xb4
    15b8:	462a      	mov	r2, r5
    15ba:	e017      	b.n	15ec <_ZN14blink_nrf518224main17h5d64dfdd3a94922fE+0x85c>
    15bc:	2000043c 	.word	0x2000043c
    15c0:	20000000 	.word	0x20000000
    15c4:	41a00000 	.word	0x41a00000
    15c8:	a839      	add	r0, sp, #228	; 0xe4
    15ca:	2110      	movs	r1, #16
    15cc:	f002 f826 	bl	361c <_ZN4zinc3hal8nrf518224rand9fill_rand17h7dfab05370fe1cccE>
    15d0:	9939      	ldr	r1, [sp, #228]	; 0xe4
    15d2:	60f1      	str	r1, [r6, #12]
    15d4:	9b3a      	ldr	r3, [sp, #232]	; 0xe8
    15d6:	6133      	str	r3, [r6, #16]
    15d8:	9c3b      	ldr	r4, [sp, #236]	; 0xec
    15da:	6174      	str	r4, [r6, #20]
    15dc:	9a3c      	ldr	r2, [sp, #240]	; 0xf0
    15de:	61b2      	str	r2, [r6, #24]
    15e0:	2064      	movs	r0, #100	; 0x64
    15e2:	4df9      	ldr	r5, [pc, #996]	; (19c8 <_ZN14blink_nrf518224main17h5d64dfdd3a94922fE+0xc38>)
    15e4:	6028      	str	r0, [r5, #0]
    15e6:	2063      	movs	r0, #99	; 0x63
    15e8:	902e      	str	r0, [sp, #184]	; 0xb8
    15ea:	4628      	mov	r0, r5
    15ec:	9d2e      	ldr	r5, [sp, #184]	; 0xb8
    15ee:	6005      	str	r5, [r0, #0]
    15f0:	02c8      	lsls	r0, r1, #11
    15f2:	4048      	eors	r0, r1
    15f4:	0cd1      	lsrs	r1, r2, #19
    15f6:	4051      	eors	r1, r2
    15f8:	4041      	eors	r1, r0
    15fa:	0a07      	lsrs	r7, r0, #8
    15fc:	404f      	eors	r7, r1
    15fe:	9331      	str	r3, [sp, #196]	; 0xc4
    1600:	60f3      	str	r3, [r6, #12]
    1602:	6134      	str	r4, [r6, #16]
    1604:	922d      	str	r2, [sp, #180]	; 0xb4
    1606:	6172      	str	r2, [r6, #20]
    1608:	61b7      	str	r7, [r6, #24]
    160a:	217f      	movs	r1, #127	; 0x7f
    160c:	4638      	mov	r0, r7
    160e:	f002 ffed 	bl	45ec <__aeabi_uidivmod>
    1612:	911e      	str	r1, [sp, #120]	; 0x78
    1614:	2d00      	cmp	r5, #0
    1616:	d006      	beq.n	1626 <_ZN14blink_nrf518224main17h5d64dfdd3a94922fE+0x896>
    1618:	9830      	ldr	r0, [sp, #192]	; 0xc0
    161a:	992e      	ldr	r1, [sp, #184]	; 0xb8
    161c:	180b      	adds	r3, r1, r0
    161e:	48ea      	ldr	r0, [pc, #936]	; (19c8 <_ZN14blink_nrf518224main17h5d64dfdd3a94922fE+0xc38>)
    1620:	9931      	ldr	r1, [sp, #196]	; 0xc4
    1622:	9d2d      	ldr	r5, [sp, #180]	; 0xb4
    1624:	e010      	b.n	1648 <_ZN14blink_nrf518224main17h5d64dfdd3a94922fE+0x8b8>
    1626:	a839      	add	r0, sp, #228	; 0xe4
    1628:	2110      	movs	r1, #16
    162a:	f001 fff7 	bl	361c <_ZN4zinc3hal8nrf518224rand9fill_rand17h7dfab05370fe1cccE>
    162e:	9939      	ldr	r1, [sp, #228]	; 0xe4
    1630:	60f1      	str	r1, [r6, #12]
    1632:	9c3a      	ldr	r4, [sp, #232]	; 0xe8
    1634:	6134      	str	r4, [r6, #16]
    1636:	9d3b      	ldr	r5, [sp, #236]	; 0xec
    1638:	6175      	str	r5, [r6, #20]
    163a:	9f3c      	ldr	r7, [sp, #240]	; 0xf0
    163c:	61b7      	str	r7, [r6, #24]
    163e:	2064      	movs	r0, #100	; 0x64
    1640:	4ae1      	ldr	r2, [pc, #900]	; (19c8 <_ZN14blink_nrf518224main17h5d64dfdd3a94922fE+0xc38>)
    1642:	6010      	str	r0, [r2, #0]
    1644:	2363      	movs	r3, #99	; 0x63
    1646:	4610      	mov	r0, r2
    1648:	6003      	str	r3, [r0, #0]
    164a:	02c8      	lsls	r0, r1, #11
    164c:	4048      	eors	r0, r1
    164e:	0cf9      	lsrs	r1, r7, #19
    1650:	4079      	eors	r1, r7
    1652:	4041      	eors	r1, r0
    1654:	0a00      	lsrs	r0, r0, #8
    1656:	4048      	eors	r0, r1
    1658:	942e      	str	r4, [sp, #184]	; 0xb8
    165a:	4631      	mov	r1, r6
    165c:	310c      	adds	r1, #12
    165e:	c1b0      	stmia	r1!, {r4, r5, r7}
    1660:	61b0      	str	r0, [r6, #24]
    1662:	2114      	movs	r1, #20
    1664:	9031      	str	r0, [sp, #196]	; 0xc4
    1666:	461c      	mov	r4, r3
    1668:	f002 ffc0 	bl	45ec <__aeabi_uidivmod>
    166c:	4608      	mov	r0, r1
    166e:	f003 ff09 	bl	5484 <__aeabi_ui2f>
    1672:	4601      	mov	r1, r0
    1674:	9832      	ldr	r0, [sp, #200]	; 0xc8
    1676:	4041      	eors	r1, r0
    1678:	911a      	str	r1, [sp, #104]	; 0x68
    167a:	2c00      	cmp	r4, #0
    167c:	d006      	beq.n	168c <_ZN14blink_nrf518224main17h5d64dfdd3a94922fE+0x8fc>
    167e:	9830      	ldr	r0, [sp, #192]	; 0xc0
    1680:	1820      	adds	r0, r4, r0
    1682:	4632      	mov	r2, r6
    1684:	4ed0      	ldr	r6, [pc, #832]	; (19c8 <_ZN14blink_nrf518224main17h5d64dfdd3a94922fE+0xc38>)
    1686:	9b31      	ldr	r3, [sp, #196]	; 0xc4
    1688:	992e      	ldr	r1, [sp, #184]	; 0xb8
    168a:	e012      	b.n	16b2 <_ZN14blink_nrf518224main17h5d64dfdd3a94922fE+0x922>
    168c:	a839      	add	r0, sp, #228	; 0xe4
    168e:	2110      	movs	r1, #16
    1690:	f001 ffc4 	bl	361c <_ZN4zinc3hal8nrf518224rand9fill_rand17h7dfab05370fe1cccE>
    1694:	9939      	ldr	r1, [sp, #228]	; 0xe4
    1696:	60f1      	str	r1, [r6, #12]
    1698:	9d3a      	ldr	r5, [sp, #232]	; 0xe8
    169a:	6135      	str	r5, [r6, #16]
    169c:	9f3b      	ldr	r7, [sp, #236]	; 0xec
    169e:	6177      	str	r7, [r6, #20]
    16a0:	9b3c      	ldr	r3, [sp, #240]	; 0xf0
    16a2:	61b3      	str	r3, [r6, #24]
    16a4:	2064      	movs	r0, #100	; 0x64
    16a6:	4ac8      	ldr	r2, [pc, #800]	; (19c8 <_ZN14blink_nrf518224main17h5d64dfdd3a94922fE+0xc38>)
    16a8:	4614      	mov	r4, r2
    16aa:	6020      	str	r0, [r4, #0]
    16ac:	2063      	movs	r0, #99	; 0x63
    16ae:	4632      	mov	r2, r6
    16b0:	4626      	mov	r6, r4
    16b2:	902e      	str	r0, [sp, #184]	; 0xb8
    16b4:	6030      	str	r0, [r6, #0]
    16b6:	02c8      	lsls	r0, r1, #11
    16b8:	4048      	eors	r0, r1
    16ba:	0cd9      	lsrs	r1, r3, #19
    16bc:	4059      	eors	r1, r3
    16be:	4041      	eors	r1, r0
    16c0:	0a04      	lsrs	r4, r0, #8
    16c2:	404c      	eors	r4, r1
    16c4:	60d5      	str	r5, [r2, #12]
    16c6:	6117      	str	r7, [r2, #16]
    16c8:	9331      	str	r3, [sp, #196]	; 0xc4
    16ca:	6153      	str	r3, [r2, #20]
    16cc:	6194      	str	r4, [r2, #24]
    16ce:	2114      	movs	r1, #20
    16d0:	4620      	mov	r0, r4
    16d2:	f002 ff8b 	bl	45ec <__aeabi_uidivmod>
    16d6:	310a      	adds	r1, #10
    16d8:	4608      	mov	r0, r1
    16da:	f003 fed3 	bl	5484 <__aeabi_ui2f>
    16de:	49bb      	ldr	r1, [pc, #748]	; (19cc <_ZN14blink_nrf518224main17h5d64dfdd3a94922fE+0xc3c>)
    16e0:	f003 f9b4 	bl	4a4c <__aeabi_fdiv>
    16e4:	992e      	ldr	r1, [sp, #184]	; 0xb8
    16e6:	9015      	str	r0, [sp, #84]	; 0x54
    16e8:	2900      	cmp	r1, #0
    16ea:	d007      	beq.n	16fc <_ZN14blink_nrf518224main17h5d64dfdd3a94922fE+0x96c>
    16ec:	9830      	ldr	r0, [sp, #192]	; 0xc0
    16ee:	1808      	adds	r0, r1, r0
    16f0:	902e      	str	r0, [sp, #184]	; 0xb8
    16f2:	4630      	mov	r0, r6
    16f4:	4eb6      	ldr	r6, [pc, #728]	; (19d0 <_ZN14blink_nrf518224main17h5d64dfdd3a94922fE+0xc40>)
    16f6:	9b31      	ldr	r3, [sp, #196]	; 0xc4
    16f8:	463a      	mov	r2, r7
    16fa:	e013      	b.n	1724 <_ZN14blink_nrf518224main17h5d64dfdd3a94922fE+0x994>
    16fc:	a839      	add	r0, sp, #228	; 0xe4
    16fe:	2110      	movs	r1, #16
    1700:	f001 ff8c 	bl	361c <_ZN4zinc3hal8nrf518224rand9fill_rand17h7dfab05370fe1cccE>
    1704:	9d39      	ldr	r5, [sp, #228]	; 0xe4
    1706:	48b2      	ldr	r0, [pc, #712]	; (19d0 <_ZN14blink_nrf518224main17h5d64dfdd3a94922fE+0xc40>)
    1708:	4601      	mov	r1, r0
    170a:	60cd      	str	r5, [r1, #12]
    170c:	9a3a      	ldr	r2, [sp, #232]	; 0xe8
    170e:	610a      	str	r2, [r1, #16]
    1710:	9b3b      	ldr	r3, [sp, #236]	; 0xec
    1712:	614b      	str	r3, [r1, #20]
    1714:	9c3c      	ldr	r4, [sp, #240]	; 0xf0
    1716:	618c      	str	r4, [r1, #24]
    1718:	2064      	movs	r0, #100	; 0x64
    171a:	6030      	str	r0, [r6, #0]
    171c:	2063      	movs	r0, #99	; 0x63
    171e:	902e      	str	r0, [sp, #184]	; 0xb8
    1720:	4630      	mov	r0, r6
    1722:	460e      	mov	r6, r1
    1724:	9f2e      	ldr	r7, [sp, #184]	; 0xb8
    1726:	6007      	str	r7, [r0, #0]
    1728:	02e8      	lsls	r0, r5, #11
    172a:	4068      	eors	r0, r5
    172c:	0ce1      	lsrs	r1, r4, #19
    172e:	4061      	eors	r1, r4
    1730:	4041      	eors	r1, r0
    1732:	0a05      	lsrs	r5, r0, #8
    1734:	404d      	eors	r5, r1
    1736:	922d      	str	r2, [sp, #180]	; 0xb4
    1738:	60f2      	str	r2, [r6, #12]
    173a:	9331      	str	r3, [sp, #196]	; 0xc4
    173c:	4630      	mov	r0, r6
    173e:	3010      	adds	r0, #16
    1740:	c038      	stmia	r0!, {r3, r4, r5}
    1742:	2105      	movs	r1, #5
    1744:	4628      	mov	r0, r5
    1746:	f002 ff51 	bl	45ec <__aeabi_uidivmod>
    174a:	0088      	lsls	r0, r1, #2
    174c:	9011      	str	r0, [sp, #68]	; 0x44
    174e:	2f00      	cmp	r7, #0
    1750:	d008      	beq.n	1764 <_ZN14blink_nrf518224main17h5d64dfdd3a94922fE+0x9d4>
    1752:	9830      	ldr	r0, [sp, #192]	; 0xc0
    1754:	992e      	ldr	r1, [sp, #184]	; 0xb8
    1756:	1808      	adds	r0, r1, r0
    1758:	902e      	str	r0, [sp, #184]	; 0xb8
    175a:	489b      	ldr	r0, [pc, #620]	; (19c8 <_ZN14blink_nrf518224main17h5d64dfdd3a94922fE+0xc38>)
    175c:	9b31      	ldr	r3, [sp, #196]	; 0xc4
    175e:	992d      	ldr	r1, [sp, #180]	; 0xb4
    1760:	462a      	mov	r2, r5
    1762:	e011      	b.n	1788 <_ZN14blink_nrf518224main17h5d64dfdd3a94922fE+0x9f8>
    1764:	a839      	add	r0, sp, #228	; 0xe4
    1766:	2110      	movs	r1, #16
    1768:	f001 ff58 	bl	361c <_ZN4zinc3hal8nrf518224rand9fill_rand17h7dfab05370fe1cccE>
    176c:	9939      	ldr	r1, [sp, #228]	; 0xe4
    176e:	60f1      	str	r1, [r6, #12]
    1770:	9b3a      	ldr	r3, [sp, #232]	; 0xe8
    1772:	6133      	str	r3, [r6, #16]
    1774:	9c3b      	ldr	r4, [sp, #236]	; 0xec
    1776:	6174      	str	r4, [r6, #20]
    1778:	9a3c      	ldr	r2, [sp, #240]	; 0xf0
    177a:	61b2      	str	r2, [r6, #24]
    177c:	2064      	movs	r0, #100	; 0x64
    177e:	4d92      	ldr	r5, [pc, #584]	; (19c8 <_ZN14blink_nrf518224main17h5d64dfdd3a94922fE+0xc38>)
    1780:	6028      	str	r0, [r5, #0]
    1782:	2063      	movs	r0, #99	; 0x63
    1784:	902e      	str	r0, [sp, #184]	; 0xb8
    1786:	4628      	mov	r0, r5
    1788:	9d2e      	ldr	r5, [sp, #184]	; 0xb8
    178a:	6005      	str	r5, [r0, #0]
    178c:	02c8      	lsls	r0, r1, #11
    178e:	4048      	eors	r0, r1
    1790:	0cd1      	lsrs	r1, r2, #19
    1792:	4051      	eors	r1, r2
    1794:	4041      	eors	r1, r0
    1796:	0a07      	lsrs	r7, r0, #8
    1798:	404f      	eors	r7, r1
    179a:	9331      	str	r3, [sp, #196]	; 0xc4
    179c:	60f3      	str	r3, [r6, #12]
    179e:	6134      	str	r4, [r6, #16]
    17a0:	922d      	str	r2, [sp, #180]	; 0xb4
    17a2:	6172      	str	r2, [r6, #20]
    17a4:	61b7      	str	r7, [r6, #24]
    17a6:	217f      	movs	r1, #127	; 0x7f
    17a8:	4638      	mov	r0, r7
    17aa:	f002 ff1f 	bl	45ec <__aeabi_uidivmod>
    17ae:	9113      	str	r1, [sp, #76]	; 0x4c
    17b0:	2d00      	cmp	r5, #0
    17b2:	d006      	beq.n	17c2 <_ZN14blink_nrf518224main17h5d64dfdd3a94922fE+0xa32>
    17b4:	9830      	ldr	r0, [sp, #192]	; 0xc0
    17b6:	992e      	ldr	r1, [sp, #184]	; 0xb8
    17b8:	180b      	adds	r3, r1, r0
    17ba:	4883      	ldr	r0, [pc, #524]	; (19c8 <_ZN14blink_nrf518224main17h5d64dfdd3a94922fE+0xc38>)
    17bc:	9931      	ldr	r1, [sp, #196]	; 0xc4
    17be:	9a2d      	ldr	r2, [sp, #180]	; 0xb4
    17c0:	e011      	b.n	17e6 <_ZN14blink_nrf518224main17h5d64dfdd3a94922fE+0xa56>
    17c2:	a839      	add	r0, sp, #228	; 0xe4
    17c4:	2110      	movs	r1, #16
    17c6:	f001 ff29 	bl	361c <_ZN4zinc3hal8nrf518224rand9fill_rand17h7dfab05370fe1cccE>
    17ca:	9939      	ldr	r1, [sp, #228]	; 0xe4
    17cc:	60f1      	str	r1, [r6, #12]
    17ce:	9c3a      	ldr	r4, [sp, #232]	; 0xe8
    17d0:	6134      	str	r4, [r6, #16]
    17d2:	9a3b      	ldr	r2, [sp, #236]	; 0xec
    17d4:	6172      	str	r2, [r6, #20]
    17d6:	9f3c      	ldr	r7, [sp, #240]	; 0xf0
    17d8:	61b7      	str	r7, [r6, #24]
    17da:	2064      	movs	r0, #100	; 0x64
    17dc:	4b7a      	ldr	r3, [pc, #488]	; (19c8 <_ZN14blink_nrf518224main17h5d64dfdd3a94922fE+0xc38>)
    17de:	461d      	mov	r5, r3
    17e0:	6028      	str	r0, [r5, #0]
    17e2:	2363      	movs	r3, #99	; 0x63
    17e4:	4628      	mov	r0, r5
    17e6:	6003      	str	r3, [r0, #0]
    17e8:	02c8      	lsls	r0, r1, #11
    17ea:	4048      	eors	r0, r1
    17ec:	0cf9      	lsrs	r1, r7, #19
    17ee:	4079      	eors	r1, r7
    17f0:	4041      	eors	r1, r0
    17f2:	0a00      	lsrs	r0, r0, #8
    17f4:	4048      	eors	r0, r1
    17f6:	942e      	str	r4, [sp, #184]	; 0xb8
    17f8:	60f4      	str	r4, [r6, #12]
    17fa:	4615      	mov	r5, r2
    17fc:	6132      	str	r2, [r6, #16]
    17fe:	6177      	str	r7, [r6, #20]
    1800:	61b0      	str	r0, [r6, #24]
    1802:	2114      	movs	r1, #20
    1804:	9031      	str	r0, [sp, #196]	; 0xc4
    1806:	461c      	mov	r4, r3
    1808:	f002 fef0 	bl	45ec <__aeabi_uidivmod>
    180c:	4608      	mov	r0, r1
    180e:	f003 fe39 	bl	5484 <__aeabi_ui2f>
    1812:	4601      	mov	r1, r0
    1814:	9832      	ldr	r0, [sp, #200]	; 0xc8
    1816:	4041      	eors	r1, r0
    1818:	9112      	str	r1, [sp, #72]	; 0x48
    181a:	2c00      	cmp	r4, #0
    181c:	d006      	beq.n	182c <_ZN14blink_nrf518224main17h5d64dfdd3a94922fE+0xa9c>
    181e:	9830      	ldr	r0, [sp, #192]	; 0xc0
    1820:	1820      	adds	r0, r4, r0
    1822:	4632      	mov	r2, r6
    1824:	4e68      	ldr	r6, [pc, #416]	; (19c8 <_ZN14blink_nrf518224main17h5d64dfdd3a94922fE+0xc38>)
    1826:	9b31      	ldr	r3, [sp, #196]	; 0xc4
    1828:	992e      	ldr	r1, [sp, #184]	; 0xb8
    182a:	e012      	b.n	1852 <_ZN14blink_nrf518224main17h5d64dfdd3a94922fE+0xac2>
    182c:	a839      	add	r0, sp, #228	; 0xe4
    182e:	2110      	movs	r1, #16
    1830:	f001 fef4 	bl	361c <_ZN4zinc3hal8nrf518224rand9fill_rand17h7dfab05370fe1cccE>
    1834:	9939      	ldr	r1, [sp, #228]	; 0xe4
    1836:	60f1      	str	r1, [r6, #12]
    1838:	9d3a      	ldr	r5, [sp, #232]	; 0xe8
    183a:	6135      	str	r5, [r6, #16]
    183c:	9f3b      	ldr	r7, [sp, #236]	; 0xec
    183e:	6177      	str	r7, [r6, #20]
    1840:	9b3c      	ldr	r3, [sp, #240]	; 0xf0
    1842:	61b3      	str	r3, [r6, #24]
    1844:	2064      	movs	r0, #100	; 0x64
    1846:	4a60      	ldr	r2, [pc, #384]	; (19c8 <_ZN14blink_nrf518224main17h5d64dfdd3a94922fE+0xc38>)
    1848:	4614      	mov	r4, r2
    184a:	6020      	str	r0, [r4, #0]
    184c:	2063      	movs	r0, #99	; 0x63
    184e:	4632      	mov	r2, r6
    1850:	4626      	mov	r6, r4
    1852:	902e      	str	r0, [sp, #184]	; 0xb8
    1854:	6030      	str	r0, [r6, #0]
    1856:	02c8      	lsls	r0, r1, #11
    1858:	4048      	eors	r0, r1
    185a:	0cd9      	lsrs	r1, r3, #19
    185c:	4059      	eors	r1, r3
    185e:	4041      	eors	r1, r0
    1860:	0a04      	lsrs	r4, r0, #8
    1862:	404c      	eors	r4, r1
    1864:	60d5      	str	r5, [r2, #12]
    1866:	6117      	str	r7, [r2, #16]
    1868:	9331      	str	r3, [sp, #196]	; 0xc4
    186a:	6153      	str	r3, [r2, #20]
    186c:	6194      	str	r4, [r2, #24]
    186e:	2114      	movs	r1, #20
    1870:	4620      	mov	r0, r4
    1872:	f002 febb 	bl	45ec <__aeabi_uidivmod>
    1876:	310a      	adds	r1, #10
    1878:	4608      	mov	r0, r1
    187a:	f003 fe03 	bl	5484 <__aeabi_ui2f>
    187e:	4953      	ldr	r1, [pc, #332]	; (19cc <_ZN14blink_nrf518224main17h5d64dfdd3a94922fE+0xc3c>)
    1880:	f003 f8e4 	bl	4a4c <__aeabi_fdiv>
    1884:	992e      	ldr	r1, [sp, #184]	; 0xb8
    1886:	9010      	str	r0, [sp, #64]	; 0x40
    1888:	2900      	cmp	r1, #0
    188a:	d007      	beq.n	189c <_ZN14blink_nrf518224main17h5d64dfdd3a94922fE+0xb0c>
    188c:	9830      	ldr	r0, [sp, #192]	; 0xc0
    188e:	1808      	adds	r0, r1, r0
    1890:	902e      	str	r0, [sp, #184]	; 0xb8
    1892:	4630      	mov	r0, r6
    1894:	4e4e      	ldr	r6, [pc, #312]	; (19d0 <_ZN14blink_nrf518224main17h5d64dfdd3a94922fE+0xc40>)
    1896:	9b31      	ldr	r3, [sp, #196]	; 0xc4
    1898:	463a      	mov	r2, r7
    189a:	e013      	b.n	18c4 <_ZN14blink_nrf518224main17h5d64dfdd3a94922fE+0xb34>
    189c:	a839      	add	r0, sp, #228	; 0xe4
    189e:	2110      	movs	r1, #16
    18a0:	f001 febc 	bl	361c <_ZN4zinc3hal8nrf518224rand9fill_rand17h7dfab05370fe1cccE>
    18a4:	9d39      	ldr	r5, [sp, #228]	; 0xe4
    18a6:	484a      	ldr	r0, [pc, #296]	; (19d0 <_ZN14blink_nrf518224main17h5d64dfdd3a94922fE+0xc40>)
    18a8:	4601      	mov	r1, r0
    18aa:	60cd      	str	r5, [r1, #12]
    18ac:	9a3a      	ldr	r2, [sp, #232]	; 0xe8
    18ae:	610a      	str	r2, [r1, #16]
    18b0:	9b3b      	ldr	r3, [sp, #236]	; 0xec
    18b2:	614b      	str	r3, [r1, #20]
    18b4:	9c3c      	ldr	r4, [sp, #240]	; 0xf0
    18b6:	618c      	str	r4, [r1, #24]
    18b8:	2064      	movs	r0, #100	; 0x64
    18ba:	6030      	str	r0, [r6, #0]
    18bc:	2063      	movs	r0, #99	; 0x63
    18be:	902e      	str	r0, [sp, #184]	; 0xb8
    18c0:	4630      	mov	r0, r6
    18c2:	460e      	mov	r6, r1
    18c4:	9f2e      	ldr	r7, [sp, #184]	; 0xb8
    18c6:	6007      	str	r7, [r0, #0]
    18c8:	02e8      	lsls	r0, r5, #11
    18ca:	4068      	eors	r0, r5
    18cc:	0ce1      	lsrs	r1, r4, #19
    18ce:	4061      	eors	r1, r4
    18d0:	4041      	eors	r1, r0
    18d2:	0a00      	lsrs	r0, r0, #8
    18d4:	4048      	eors	r0, r1
    18d6:	922d      	str	r2, [sp, #180]	; 0xb4
    18d8:	60f2      	str	r2, [r6, #12]
    18da:	9331      	str	r3, [sp, #196]	; 0xc4
    18dc:	6133      	str	r3, [r6, #16]
    18de:	6174      	str	r4, [r6, #20]
    18e0:	61b0      	str	r0, [r6, #24]
    18e2:	2105      	movs	r1, #5
    18e4:	4605      	mov	r5, r0
    18e6:	f002 fe81 	bl	45ec <__aeabi_uidivmod>
    18ea:	0088      	lsls	r0, r1, #2
    18ec:	900d      	str	r0, [sp, #52]	; 0x34
    18ee:	2f00      	cmp	r7, #0
    18f0:	d008      	beq.n	1904 <_ZN14blink_nrf518224main17h5d64dfdd3a94922fE+0xb74>
    18f2:	9830      	ldr	r0, [sp, #192]	; 0xc0
    18f4:	992e      	ldr	r1, [sp, #184]	; 0xb8
    18f6:	1808      	adds	r0, r1, r0
    18f8:	902e      	str	r0, [sp, #184]	; 0xb8
    18fa:	4833      	ldr	r0, [pc, #204]	; (19c8 <_ZN14blink_nrf518224main17h5d64dfdd3a94922fE+0xc38>)
    18fc:	9b31      	ldr	r3, [sp, #196]	; 0xc4
    18fe:	992d      	ldr	r1, [sp, #180]	; 0xb4
    1900:	462a      	mov	r2, r5
    1902:	e011      	b.n	1928 <_ZN14blink_nrf518224main17h5d64dfdd3a94922fE+0xb98>
    1904:	a839      	add	r0, sp, #228	; 0xe4
    1906:	2110      	movs	r1, #16
    1908:	f001 fe88 	bl	361c <_ZN4zinc3hal8nrf518224rand9fill_rand17h7dfab05370fe1cccE>
    190c:	9939      	ldr	r1, [sp, #228]	; 0xe4
    190e:	60f1      	str	r1, [r6, #12]
    1910:	9b3a      	ldr	r3, [sp, #232]	; 0xe8
    1912:	6133      	str	r3, [r6, #16]
    1914:	9c3b      	ldr	r4, [sp, #236]	; 0xec
    1916:	6174      	str	r4, [r6, #20]
    1918:	9a3c      	ldr	r2, [sp, #240]	; 0xf0
    191a:	61b2      	str	r2, [r6, #24]
    191c:	2064      	movs	r0, #100	; 0x64
    191e:	4d2a      	ldr	r5, [pc, #168]	; (19c8 <_ZN14blink_nrf518224main17h5d64dfdd3a94922fE+0xc38>)
    1920:	6028      	str	r0, [r5, #0]
    1922:	2063      	movs	r0, #99	; 0x63
    1924:	902e      	str	r0, [sp, #184]	; 0xb8
    1926:	4628      	mov	r0, r5
    1928:	9d2e      	ldr	r5, [sp, #184]	; 0xb8
    192a:	6005      	str	r5, [r0, #0]
    192c:	02c8      	lsls	r0, r1, #11
    192e:	4048      	eors	r0, r1
    1930:	0cd1      	lsrs	r1, r2, #19
    1932:	4051      	eors	r1, r2
    1934:	4041      	eors	r1, r0
    1936:	0a07      	lsrs	r7, r0, #8
    1938:	404f      	eors	r7, r1
    193a:	9331      	str	r3, [sp, #196]	; 0xc4
    193c:	60f3      	str	r3, [r6, #12]
    193e:	6134      	str	r4, [r6, #16]
    1940:	922d      	str	r2, [sp, #180]	; 0xb4
    1942:	6172      	str	r2, [r6, #20]
    1944:	61b7      	str	r7, [r6, #24]
    1946:	217f      	movs	r1, #127	; 0x7f
    1948:	4638      	mov	r0, r7
    194a:	f002 fe4f 	bl	45ec <__aeabi_uidivmod>
    194e:	910f      	str	r1, [sp, #60]	; 0x3c
    1950:	2d00      	cmp	r5, #0
    1952:	d006      	beq.n	1962 <_ZN14blink_nrf518224main17h5d64dfdd3a94922fE+0xbd2>
    1954:	9830      	ldr	r0, [sp, #192]	; 0xc0
    1956:	992e      	ldr	r1, [sp, #184]	; 0xb8
    1958:	180b      	adds	r3, r1, r0
    195a:	481b      	ldr	r0, [pc, #108]	; (19c8 <_ZN14blink_nrf518224main17h5d64dfdd3a94922fE+0xc38>)
    195c:	9931      	ldr	r1, [sp, #196]	; 0xc4
    195e:	9d2d      	ldr	r5, [sp, #180]	; 0xb4
    1960:	e010      	b.n	1984 <_ZN14blink_nrf518224main17h5d64dfdd3a94922fE+0xbf4>
    1962:	a839      	add	r0, sp, #228	; 0xe4
    1964:	2110      	movs	r1, #16
    1966:	f001 fe59 	bl	361c <_ZN4zinc3hal8nrf518224rand9fill_rand17h7dfab05370fe1cccE>
    196a:	9939      	ldr	r1, [sp, #228]	; 0xe4
    196c:	60f1      	str	r1, [r6, #12]
    196e:	9c3a      	ldr	r4, [sp, #232]	; 0xe8
    1970:	6134      	str	r4, [r6, #16]
    1972:	9d3b      	ldr	r5, [sp, #236]	; 0xec
    1974:	6175      	str	r5, [r6, #20]
    1976:	9f3c      	ldr	r7, [sp, #240]	; 0xf0
    1978:	61b7      	str	r7, [r6, #24]
    197a:	2064      	movs	r0, #100	; 0x64
    197c:	4a12      	ldr	r2, [pc, #72]	; (19c8 <_ZN14blink_nrf518224main17h5d64dfdd3a94922fE+0xc38>)
    197e:	6010      	str	r0, [r2, #0]
    1980:	2363      	movs	r3, #99	; 0x63
    1982:	4610      	mov	r0, r2
    1984:	6003      	str	r3, [r0, #0]
    1986:	02c8      	lsls	r0, r1, #11
    1988:	4048      	eors	r0, r1
    198a:	0cf9      	lsrs	r1, r7, #19
    198c:	4079      	eors	r1, r7
    198e:	4041      	eors	r1, r0
    1990:	0a00      	lsrs	r0, r0, #8
    1992:	4048      	eors	r0, r1
    1994:	942e      	str	r4, [sp, #184]	; 0xb8
    1996:	4631      	mov	r1, r6
    1998:	310c      	adds	r1, #12
    199a:	c1b0      	stmia	r1!, {r4, r5, r7}
    199c:	61b0      	str	r0, [r6, #24]
    199e:	2114      	movs	r1, #20
    19a0:	9031      	str	r0, [sp, #196]	; 0xc4
    19a2:	461c      	mov	r4, r3
    19a4:	f002 fe22 	bl	45ec <__aeabi_uidivmod>
    19a8:	4608      	mov	r0, r1
    19aa:	f003 fd6b 	bl	5484 <__aeabi_ui2f>
    19ae:	4601      	mov	r1, r0
    19b0:	9832      	ldr	r0, [sp, #200]	; 0xc8
    19b2:	4041      	eors	r1, r0
    19b4:	910e      	str	r1, [sp, #56]	; 0x38
    19b6:	2c00      	cmp	r4, #0
    19b8:	d00c      	beq.n	19d4 <_ZN14blink_nrf518224main17h5d64dfdd3a94922fE+0xc44>
    19ba:	9830      	ldr	r0, [sp, #192]	; 0xc0
    19bc:	1820      	adds	r0, r4, r0
    19be:	4632      	mov	r2, r6
    19c0:	4e01      	ldr	r6, [pc, #4]	; (19c8 <_ZN14blink_nrf518224main17h5d64dfdd3a94922fE+0xc38>)
    19c2:	9b31      	ldr	r3, [sp, #196]	; 0xc4
    19c4:	992e      	ldr	r1, [sp, #184]	; 0xb8
    19c6:	e018      	b.n	19fa <_ZN14blink_nrf518224main17h5d64dfdd3a94922fE+0xc6a>
    19c8:	2000043c 	.word	0x2000043c
    19cc:	41a00000 	.word	0x41a00000
    19d0:	20000000 	.word	0x20000000
    19d4:	a839      	add	r0, sp, #228	; 0xe4
    19d6:	2110      	movs	r1, #16
    19d8:	f001 fe20 	bl	361c <_ZN4zinc3hal8nrf518224rand9fill_rand17h7dfab05370fe1cccE>
    19dc:	9939      	ldr	r1, [sp, #228]	; 0xe4
    19de:	60f1      	str	r1, [r6, #12]
    19e0:	9d3a      	ldr	r5, [sp, #232]	; 0xe8
    19e2:	6135      	str	r5, [r6, #16]
    19e4:	9f3b      	ldr	r7, [sp, #236]	; 0xec
    19e6:	6177      	str	r7, [r6, #20]
    19e8:	9b3c      	ldr	r3, [sp, #240]	; 0xf0
    19ea:	61b3      	str	r3, [r6, #24]
    19ec:	2064      	movs	r0, #100	; 0x64
    19ee:	4ad9      	ldr	r2, [pc, #868]	; (1d54 <_ZN14blink_nrf518224main17h5d64dfdd3a94922fE+0xfc4>)
    19f0:	4614      	mov	r4, r2
    19f2:	6020      	str	r0, [r4, #0]
    19f4:	2063      	movs	r0, #99	; 0x63
    19f6:	4632      	mov	r2, r6
    19f8:	4626      	mov	r6, r4
    19fa:	902e      	str	r0, [sp, #184]	; 0xb8
    19fc:	6030      	str	r0, [r6, #0]
    19fe:	02c8      	lsls	r0, r1, #11
    1a00:	4048      	eors	r0, r1
    1a02:	0cd9      	lsrs	r1, r3, #19
    1a04:	4059      	eors	r1, r3
    1a06:	4041      	eors	r1, r0
    1a08:	0a04      	lsrs	r4, r0, #8
    1a0a:	404c      	eors	r4, r1
    1a0c:	60d5      	str	r5, [r2, #12]
    1a0e:	6117      	str	r7, [r2, #16]
    1a10:	9331      	str	r3, [sp, #196]	; 0xc4
    1a12:	6153      	str	r3, [r2, #20]
    1a14:	6194      	str	r4, [r2, #24]
    1a16:	2114      	movs	r1, #20
    1a18:	4620      	mov	r0, r4
    1a1a:	f002 fde7 	bl	45ec <__aeabi_uidivmod>
    1a1e:	310a      	adds	r1, #10
    1a20:	4608      	mov	r0, r1
    1a22:	f003 fd2f 	bl	5484 <__aeabi_ui2f>
    1a26:	49cc      	ldr	r1, [pc, #816]	; (1d58 <_ZN14blink_nrf518224main17h5d64dfdd3a94922fE+0xfc8>)
    1a28:	f003 f810 	bl	4a4c <__aeabi_fdiv>
    1a2c:	992e      	ldr	r1, [sp, #184]	; 0xb8
    1a2e:	900c      	str	r0, [sp, #48]	; 0x30
    1a30:	2900      	cmp	r1, #0
    1a32:	d007      	beq.n	1a44 <_ZN14blink_nrf518224main17h5d64dfdd3a94922fE+0xcb4>
    1a34:	9830      	ldr	r0, [sp, #192]	; 0xc0
    1a36:	1808      	adds	r0, r1, r0
    1a38:	902e      	str	r0, [sp, #184]	; 0xb8
    1a3a:	4630      	mov	r0, r6
    1a3c:	4ec7      	ldr	r6, [pc, #796]	; (1d5c <_ZN14blink_nrf518224main17h5d64dfdd3a94922fE+0xfcc>)
    1a3e:	9b31      	ldr	r3, [sp, #196]	; 0xc4
    1a40:	463a      	mov	r2, r7
    1a42:	e013      	b.n	1a6c <_ZN14blink_nrf518224main17h5d64dfdd3a94922fE+0xcdc>
    1a44:	a839      	add	r0, sp, #228	; 0xe4
    1a46:	2110      	movs	r1, #16
    1a48:	f001 fde8 	bl	361c <_ZN4zinc3hal8nrf518224rand9fill_rand17h7dfab05370fe1cccE>
    1a4c:	9d39      	ldr	r5, [sp, #228]	; 0xe4
    1a4e:	48c3      	ldr	r0, [pc, #780]	; (1d5c <_ZN14blink_nrf518224main17h5d64dfdd3a94922fE+0xfcc>)
    1a50:	4601      	mov	r1, r0
    1a52:	60cd      	str	r5, [r1, #12]
    1a54:	9a3a      	ldr	r2, [sp, #232]	; 0xe8
    1a56:	610a      	str	r2, [r1, #16]
    1a58:	9b3b      	ldr	r3, [sp, #236]	; 0xec
    1a5a:	614b      	str	r3, [r1, #20]
    1a5c:	9c3c      	ldr	r4, [sp, #240]	; 0xf0
    1a5e:	618c      	str	r4, [r1, #24]
    1a60:	2064      	movs	r0, #100	; 0x64
    1a62:	6030      	str	r0, [r6, #0]
    1a64:	2063      	movs	r0, #99	; 0x63
    1a66:	902e      	str	r0, [sp, #184]	; 0xb8
    1a68:	4630      	mov	r0, r6
    1a6a:	460e      	mov	r6, r1
    1a6c:	9f2e      	ldr	r7, [sp, #184]	; 0xb8
    1a6e:	6007      	str	r7, [r0, #0]
    1a70:	02e8      	lsls	r0, r5, #11
    1a72:	4068      	eors	r0, r5
    1a74:	0ce1      	lsrs	r1, r4, #19
    1a76:	4061      	eors	r1, r4
    1a78:	4041      	eors	r1, r0
    1a7a:	0a05      	lsrs	r5, r0, #8
    1a7c:	404d      	eors	r5, r1
    1a7e:	922d      	str	r2, [sp, #180]	; 0xb4
    1a80:	60f2      	str	r2, [r6, #12]
    1a82:	9331      	str	r3, [sp, #196]	; 0xc4
    1a84:	4630      	mov	r0, r6
    1a86:	3010      	adds	r0, #16
    1a88:	c038      	stmia	r0!, {r3, r4, r5}
    1a8a:	2105      	movs	r1, #5
    1a8c:	4628      	mov	r0, r5
    1a8e:	f002 fdad 	bl	45ec <__aeabi_uidivmod>
    1a92:	0088      	lsls	r0, r1, #2
    1a94:	9009      	str	r0, [sp, #36]	; 0x24
    1a96:	2f00      	cmp	r7, #0
    1a98:	d008      	beq.n	1aac <_ZN14blink_nrf518224main17h5d64dfdd3a94922fE+0xd1c>
    1a9a:	9830      	ldr	r0, [sp, #192]	; 0xc0
    1a9c:	992e      	ldr	r1, [sp, #184]	; 0xb8
    1a9e:	1808      	adds	r0, r1, r0
    1aa0:	902e      	str	r0, [sp, #184]	; 0xb8
    1aa2:	48ac      	ldr	r0, [pc, #688]	; (1d54 <_ZN14blink_nrf518224main17h5d64dfdd3a94922fE+0xfc4>)
    1aa4:	9b31      	ldr	r3, [sp, #196]	; 0xc4
    1aa6:	992d      	ldr	r1, [sp, #180]	; 0xb4
    1aa8:	462a      	mov	r2, r5
    1aaa:	e011      	b.n	1ad0 <_ZN14blink_nrf518224main17h5d64dfdd3a94922fE+0xd40>
    1aac:	a839      	add	r0, sp, #228	; 0xe4
    1aae:	2110      	movs	r1, #16
    1ab0:	f001 fdb4 	bl	361c <_ZN4zinc3hal8nrf518224rand9fill_rand17h7dfab05370fe1cccE>
    1ab4:	9939      	ldr	r1, [sp, #228]	; 0xe4
    1ab6:	60f1      	str	r1, [r6, #12]
    1ab8:	9b3a      	ldr	r3, [sp, #232]	; 0xe8
    1aba:	6133      	str	r3, [r6, #16]
    1abc:	9c3b      	ldr	r4, [sp, #236]	; 0xec
    1abe:	6174      	str	r4, [r6, #20]
    1ac0:	9a3c      	ldr	r2, [sp, #240]	; 0xf0
    1ac2:	61b2      	str	r2, [r6, #24]
    1ac4:	2064      	movs	r0, #100	; 0x64
    1ac6:	4da3      	ldr	r5, [pc, #652]	; (1d54 <_ZN14blink_nrf518224main17h5d64dfdd3a94922fE+0xfc4>)
    1ac8:	6028      	str	r0, [r5, #0]
    1aca:	2063      	movs	r0, #99	; 0x63
    1acc:	902e      	str	r0, [sp, #184]	; 0xb8
    1ace:	4628      	mov	r0, r5
    1ad0:	9d2e      	ldr	r5, [sp, #184]	; 0xb8
    1ad2:	6005      	str	r5, [r0, #0]
    1ad4:	02c8      	lsls	r0, r1, #11
    1ad6:	4048      	eors	r0, r1
    1ad8:	0cd1      	lsrs	r1, r2, #19
    1ada:	4051      	eors	r1, r2
    1adc:	4041      	eors	r1, r0
    1ade:	0a07      	lsrs	r7, r0, #8
    1ae0:	404f      	eors	r7, r1
    1ae2:	9331      	str	r3, [sp, #196]	; 0xc4
    1ae4:	60f3      	str	r3, [r6, #12]
    1ae6:	6134      	str	r4, [r6, #16]
    1ae8:	922d      	str	r2, [sp, #180]	; 0xb4
    1aea:	6172      	str	r2, [r6, #20]
    1aec:	61b7      	str	r7, [r6, #24]
    1aee:	217f      	movs	r1, #127	; 0x7f
    1af0:	4638      	mov	r0, r7
    1af2:	f002 fd7b 	bl	45ec <__aeabi_uidivmod>
    1af6:	910b      	str	r1, [sp, #44]	; 0x2c
    1af8:	2d00      	cmp	r5, #0
    1afa:	d006      	beq.n	1b0a <_ZN14blink_nrf518224main17h5d64dfdd3a94922fE+0xd7a>
    1afc:	9830      	ldr	r0, [sp, #192]	; 0xc0
    1afe:	992e      	ldr	r1, [sp, #184]	; 0xb8
    1b00:	180b      	adds	r3, r1, r0
    1b02:	4894      	ldr	r0, [pc, #592]	; (1d54 <_ZN14blink_nrf518224main17h5d64dfdd3a94922fE+0xfc4>)
    1b04:	9931      	ldr	r1, [sp, #196]	; 0xc4
    1b06:	9d2d      	ldr	r5, [sp, #180]	; 0xb4
    1b08:	e010      	b.n	1b2c <_ZN14blink_nrf518224main17h5d64dfdd3a94922fE+0xd9c>
    1b0a:	a839      	add	r0, sp, #228	; 0xe4
    1b0c:	2110      	movs	r1, #16
    1b0e:	f001 fd85 	bl	361c <_ZN4zinc3hal8nrf518224rand9fill_rand17h7dfab05370fe1cccE>
    1b12:	9939      	ldr	r1, [sp, #228]	; 0xe4
    1b14:	60f1      	str	r1, [r6, #12]
    1b16:	9c3a      	ldr	r4, [sp, #232]	; 0xe8
    1b18:	6134      	str	r4, [r6, #16]
    1b1a:	9d3b      	ldr	r5, [sp, #236]	; 0xec
    1b1c:	6175      	str	r5, [r6, #20]
    1b1e:	9f3c      	ldr	r7, [sp, #240]	; 0xf0
    1b20:	61b7      	str	r7, [r6, #24]
    1b22:	2064      	movs	r0, #100	; 0x64
    1b24:	4a8b      	ldr	r2, [pc, #556]	; (1d54 <_ZN14blink_nrf518224main17h5d64dfdd3a94922fE+0xfc4>)
    1b26:	6010      	str	r0, [r2, #0]
    1b28:	2363      	movs	r3, #99	; 0x63
    1b2a:	4610      	mov	r0, r2
    1b2c:	6003      	str	r3, [r0, #0]
    1b2e:	02c8      	lsls	r0, r1, #11
    1b30:	4048      	eors	r0, r1
    1b32:	0cf9      	lsrs	r1, r7, #19
    1b34:	4079      	eors	r1, r7
    1b36:	4041      	eors	r1, r0
    1b38:	0a00      	lsrs	r0, r0, #8
    1b3a:	4048      	eors	r0, r1
    1b3c:	942e      	str	r4, [sp, #184]	; 0xb8
    1b3e:	4631      	mov	r1, r6
    1b40:	310c      	adds	r1, #12
    1b42:	c1b0      	stmia	r1!, {r4, r5, r7}
    1b44:	61b0      	str	r0, [r6, #24]
    1b46:	2114      	movs	r1, #20
    1b48:	9031      	str	r0, [sp, #196]	; 0xc4
    1b4a:	461c      	mov	r4, r3
    1b4c:	f002 fd4e 	bl	45ec <__aeabi_uidivmod>
    1b50:	4608      	mov	r0, r1
    1b52:	f003 fc97 	bl	5484 <__aeabi_ui2f>
    1b56:	4601      	mov	r1, r0
    1b58:	9832      	ldr	r0, [sp, #200]	; 0xc8
    1b5a:	4041      	eors	r1, r0
    1b5c:	910a      	str	r1, [sp, #40]	; 0x28
    1b5e:	2c00      	cmp	r4, #0
    1b60:	d005      	beq.n	1b6e <_ZN14blink_nrf518224main17h5d64dfdd3a94922fE+0xdde>
    1b62:	9830      	ldr	r0, [sp, #192]	; 0xc0
    1b64:	1820      	adds	r0, r4, r0
    1b66:	4a7b      	ldr	r2, [pc, #492]	; (1d54 <_ZN14blink_nrf518224main17h5d64dfdd3a94922fE+0xfc4>)
    1b68:	9b31      	ldr	r3, [sp, #196]	; 0xc4
    1b6a:	992e      	ldr	r1, [sp, #184]	; 0xb8
    1b6c:	e00f      	b.n	1b8e <_ZN14blink_nrf518224main17h5d64dfdd3a94922fE+0xdfe>
    1b6e:	a839      	add	r0, sp, #228	; 0xe4
    1b70:	2110      	movs	r1, #16
    1b72:	f001 fd53 	bl	361c <_ZN4zinc3hal8nrf518224rand9fill_rand17h7dfab05370fe1cccE>
    1b76:	9939      	ldr	r1, [sp, #228]	; 0xe4
    1b78:	60f1      	str	r1, [r6, #12]
    1b7a:	9d3a      	ldr	r5, [sp, #232]	; 0xe8
    1b7c:	6135      	str	r5, [r6, #16]
    1b7e:	9f3b      	ldr	r7, [sp, #236]	; 0xec
    1b80:	6177      	str	r7, [r6, #20]
    1b82:	9b3c      	ldr	r3, [sp, #240]	; 0xf0
    1b84:	61b3      	str	r3, [r6, #24]
    1b86:	2064      	movs	r0, #100	; 0x64
    1b88:	4a72      	ldr	r2, [pc, #456]	; (1d54 <_ZN14blink_nrf518224main17h5d64dfdd3a94922fE+0xfc4>)
    1b8a:	6010      	str	r0, [r2, #0]
    1b8c:	2063      	movs	r0, #99	; 0x63
    1b8e:	902e      	str	r0, [sp, #184]	; 0xb8
    1b90:	6010      	str	r0, [r2, #0]
    1b92:	02c8      	lsls	r0, r1, #11
    1b94:	4048      	eors	r0, r1
    1b96:	0cd9      	lsrs	r1, r3, #19
    1b98:	4059      	eors	r1, r3
    1b9a:	4041      	eors	r1, r0
    1b9c:	0a04      	lsrs	r4, r0, #8
    1b9e:	404c      	eors	r4, r1
    1ba0:	60f5      	str	r5, [r6, #12]
    1ba2:	6137      	str	r7, [r6, #16]
    1ba4:	9331      	str	r3, [sp, #196]	; 0xc4
    1ba6:	6173      	str	r3, [r6, #20]
    1ba8:	61b4      	str	r4, [r6, #24]
    1baa:	2114      	movs	r1, #20
    1bac:	4620      	mov	r0, r4
    1bae:	f002 fd1d 	bl	45ec <__aeabi_uidivmod>
    1bb2:	310a      	adds	r1, #10
    1bb4:	4608      	mov	r0, r1
    1bb6:	f003 fc65 	bl	5484 <__aeabi_ui2f>
    1bba:	4967      	ldr	r1, [pc, #412]	; (1d58 <_ZN14blink_nrf518224main17h5d64dfdd3a94922fE+0xfc8>)
    1bbc:	f002 ff46 	bl	4a4c <__aeabi_fdiv>
    1bc0:	992e      	ldr	r1, [sp, #184]	; 0xb8
    1bc2:	9008      	str	r0, [sp, #32]
    1bc4:	2900      	cmp	r1, #0
    1bc6:	d008      	beq.n	1bda <_ZN14blink_nrf518224main17h5d64dfdd3a94922fE+0xe4a>
    1bc8:	9830      	ldr	r0, [sp, #192]	; 0xc0
    1bca:	1808      	adds	r0, r1, r0
    1bcc:	902d      	str	r0, [sp, #180]	; 0xb4
    1bce:	4632      	mov	r2, r6
    1bd0:	4b60      	ldr	r3, [pc, #384]	; (1d54 <_ZN14blink_nrf518224main17h5d64dfdd3a94922fE+0xfc4>)
    1bd2:	972c      	str	r7, [sp, #176]	; 0xb0
    1bd4:	4627      	mov	r7, r4
    1bd6:	9c31      	ldr	r4, [sp, #196]	; 0xc4
    1bd8:	e013      	b.n	1c02 <_ZN14blink_nrf518224main17h5d64dfdd3a94922fE+0xe72>
    1bda:	a839      	add	r0, sp, #228	; 0xe4
    1bdc:	2110      	movs	r1, #16
    1bde:	f001 fd1d 	bl	361c <_ZN4zinc3hal8nrf518224rand9fill_rand17h7dfab05370fe1cccE>
    1be2:	9d39      	ldr	r5, [sp, #228]	; 0xe4
    1be4:	60f5      	str	r5, [r6, #12]
    1be6:	983a      	ldr	r0, [sp, #232]	; 0xe8
    1be8:	902c      	str	r0, [sp, #176]	; 0xb0
    1bea:	6130      	str	r0, [r6, #16]
    1bec:	9c3b      	ldr	r4, [sp, #236]	; 0xec
    1bee:	6174      	str	r4, [r6, #20]
    1bf0:	9f3c      	ldr	r7, [sp, #240]	; 0xf0
    1bf2:	61b7      	str	r7, [r6, #24]
    1bf4:	2064      	movs	r0, #100	; 0x64
    1bf6:	4957      	ldr	r1, [pc, #348]	; (1d54 <_ZN14blink_nrf518224main17h5d64dfdd3a94922fE+0xfc4>)
    1bf8:	6008      	str	r0, [r1, #0]
    1bfa:	2063      	movs	r0, #99	; 0x63
    1bfc:	902d      	str	r0, [sp, #180]	; 0xb4
    1bfe:	4632      	mov	r2, r6
    1c00:	460b      	mov	r3, r1
    1c02:	9e2d      	ldr	r6, [sp, #180]	; 0xb4
    1c04:	601e      	str	r6, [r3, #0]
    1c06:	02e8      	lsls	r0, r5, #11
    1c08:	4068      	eors	r0, r5
    1c0a:	0cf9      	lsrs	r1, r7, #19
    1c0c:	4079      	eors	r1, r7
    1c0e:	4041      	eors	r1, r0
    1c10:	0a00      	lsrs	r0, r0, #8
    1c12:	4048      	eors	r0, r1
    1c14:	992c      	ldr	r1, [sp, #176]	; 0xb0
    1c16:	60d1      	str	r1, [r2, #12]
    1c18:	9431      	str	r4, [sp, #196]	; 0xc4
    1c1a:	6114      	str	r4, [r2, #16]
    1c1c:	6157      	str	r7, [r2, #20]
    1c1e:	6190      	str	r0, [r2, #24]
    1c20:	2105      	movs	r1, #5
    1c22:	902e      	str	r0, [sp, #184]	; 0xb8
    1c24:	4615      	mov	r5, r2
    1c26:	461c      	mov	r4, r3
    1c28:	f002 fce0 	bl	45ec <__aeabi_uidivmod>
    1c2c:	0088      	lsls	r0, r1, #2
    1c2e:	9006      	str	r0, [sp, #24]
    1c30:	2e00      	cmp	r6, #0
    1c32:	d00a      	beq.n	1c4a <_ZN14blink_nrf518224main17h5d64dfdd3a94922fE+0xeba>
    1c34:	9830      	ldr	r0, [sp, #192]	; 0xc0
    1c36:	992d      	ldr	r1, [sp, #180]	; 0xb4
    1c38:	1808      	adds	r0, r1, r0
    1c3a:	902b      	str	r0, [sp, #172]	; 0xac
    1c3c:	462a      	mov	r2, r5
    1c3e:	4623      	mov	r3, r4
    1c40:	972d      	str	r7, [sp, #180]	; 0xb4
    1c42:	9c31      	ldr	r4, [sp, #196]	; 0xc4
    1c44:	992c      	ldr	r1, [sp, #176]	; 0xb0
    1c46:	9f2e      	ldr	r7, [sp, #184]	; 0xb8
    1c48:	e012      	b.n	1c70 <_ZN14blink_nrf518224main17h5d64dfdd3a94922fE+0xee0>
    1c4a:	a839      	add	r0, sp, #228	; 0xe4
    1c4c:	2110      	movs	r1, #16
    1c4e:	f001 fce5 	bl	361c <_ZN4zinc3hal8nrf518224rand9fill_rand17h7dfab05370fe1cccE>
    1c52:	9939      	ldr	r1, [sp, #228]	; 0xe4
    1c54:	60e9      	str	r1, [r5, #12]
    1c56:	4623      	mov	r3, r4
    1c58:	9c3a      	ldr	r4, [sp, #232]	; 0xe8
    1c5a:	612c      	str	r4, [r5, #16]
    1c5c:	983b      	ldr	r0, [sp, #236]	; 0xec
    1c5e:	902d      	str	r0, [sp, #180]	; 0xb4
    1c60:	6168      	str	r0, [r5, #20]
    1c62:	9f3c      	ldr	r7, [sp, #240]	; 0xf0
    1c64:	61af      	str	r7, [r5, #24]
    1c66:	2064      	movs	r0, #100	; 0x64
    1c68:	6018      	str	r0, [r3, #0]
    1c6a:	2063      	movs	r0, #99	; 0x63
    1c6c:	902b      	str	r0, [sp, #172]	; 0xac
    1c6e:	462a      	mov	r2, r5
    1c70:	9e2b      	ldr	r6, [sp, #172]	; 0xac
    1c72:	601e      	str	r6, [r3, #0]
    1c74:	02c8      	lsls	r0, r1, #11
    1c76:	4048      	eors	r0, r1
    1c78:	0cf9      	lsrs	r1, r7, #19
    1c7a:	4079      	eors	r1, r7
    1c7c:	4041      	eors	r1, r0
    1c7e:	0a05      	lsrs	r5, r0, #8
    1c80:	404d      	eors	r5, r1
    1c82:	9431      	str	r4, [sp, #196]	; 0xc4
    1c84:	60d4      	str	r4, [r2, #12]
    1c86:	982d      	ldr	r0, [sp, #180]	; 0xb4
    1c88:	6110      	str	r0, [r2, #16]
    1c8a:	972e      	str	r7, [sp, #184]	; 0xb8
    1c8c:	6157      	str	r7, [r2, #20]
    1c8e:	6195      	str	r5, [r2, #24]
    1c90:	217f      	movs	r1, #127	; 0x7f
    1c92:	4628      	mov	r0, r5
    1c94:	9114      	str	r1, [sp, #80]	; 0x50
    1c96:	4617      	mov	r7, r2
    1c98:	461c      	mov	r4, r3
    1c9a:	f002 fca7 	bl	45ec <__aeabi_uidivmod>
    1c9e:	9107      	str	r1, [sp, #28]
    1ca0:	2e00      	cmp	r6, #0
    1ca2:	d008      	beq.n	1cb6 <_ZN14blink_nrf518224main17h5d64dfdd3a94922fE+0xf26>
    1ca4:	9830      	ldr	r0, [sp, #192]	; 0xc0
    1ca6:	9a2b      	ldr	r2, [sp, #172]	; 0xac
    1ca8:	1810      	adds	r0, r2, r0
    1caa:	902c      	str	r0, [sp, #176]	; 0xb0
    1cac:	463a      	mov	r2, r7
    1cae:	4627      	mov	r7, r4
    1cb0:	9b31      	ldr	r3, [sp, #196]	; 0xc4
    1cb2:	9e2e      	ldr	r6, [sp, #184]	; 0xb8
    1cb4:	e012      	b.n	1cdc <_ZN14blink_nrf518224main17h5d64dfdd3a94922fE+0xf4c>
    1cb6:	a839      	add	r0, sp, #228	; 0xe4
    1cb8:	2110      	movs	r1, #16
    1cba:	f001 fcaf 	bl	361c <_ZN4zinc3hal8nrf518224rand9fill_rand17h7dfab05370fe1cccE>
    1cbe:	9b39      	ldr	r3, [sp, #228]	; 0xe4
    1cc0:	60fb      	str	r3, [r7, #12]
    1cc2:	983a      	ldr	r0, [sp, #232]	; 0xe8
    1cc4:	902d      	str	r0, [sp, #180]	; 0xb4
    1cc6:	6138      	str	r0, [r7, #16]
    1cc8:	9e3b      	ldr	r6, [sp, #236]	; 0xec
    1cca:	617e      	str	r6, [r7, #20]
    1ccc:	9d3c      	ldr	r5, [sp, #240]	; 0xf0
    1cce:	61bd      	str	r5, [r7, #24]
    1cd0:	2064      	movs	r0, #100	; 0x64
    1cd2:	6020      	str	r0, [r4, #0]
    1cd4:	2063      	movs	r0, #99	; 0x63
    1cd6:	902c      	str	r0, [sp, #176]	; 0xb0
    1cd8:	463a      	mov	r2, r7
    1cda:	4627      	mov	r7, r4
    1cdc:	9829      	ldr	r0, [sp, #164]	; 0xa4
    1cde:	4920      	ldr	r1, [pc, #128]	; (1d60 <_ZN14blink_nrf518224main17h5d64dfdd3a94922fE+0xfd0>)
    1ce0:	5808      	ldr	r0, [r1, r0]
    1ce2:	9004      	str	r0, [sp, #16]
    1ce4:	9822      	ldr	r0, [sp, #136]	; 0x88
    1ce6:	5808      	ldr	r0, [r1, r0]
    1ce8:	9005      	str	r0, [sp, #20]
    1cea:	9819      	ldr	r0, [sp, #100]	; 0x64
    1cec:	5808      	ldr	r0, [r1, r0]
    1cee:	9019      	str	r0, [sp, #100]	; 0x64
    1cf0:	9811      	ldr	r0, [sp, #68]	; 0x44
    1cf2:	5808      	ldr	r0, [r1, r0]
    1cf4:	9022      	str	r0, [sp, #136]	; 0x88
    1cf6:	980d      	ldr	r0, [sp, #52]	; 0x34
    1cf8:	5808      	ldr	r0, [r1, r0]
    1cfa:	9029      	str	r0, [sp, #164]	; 0xa4
    1cfc:	9809      	ldr	r0, [sp, #36]	; 0x24
    1cfe:	5808      	ldr	r0, [r1, r0]
    1d00:	902b      	str	r0, [sp, #172]	; 0xac
    1d02:	9806      	ldr	r0, [sp, #24]
    1d04:	5808      	ldr	r0, [r1, r0]
    1d06:	9031      	str	r0, [sp, #196]	; 0xc4
    1d08:	9c2c      	ldr	r4, [sp, #176]	; 0xb0
    1d0a:	603c      	str	r4, [r7, #0]
    1d0c:	02d8      	lsls	r0, r3, #11
    1d0e:	4058      	eors	r0, r3
    1d10:	0ce9      	lsrs	r1, r5, #19
    1d12:	4069      	eors	r1, r5
    1d14:	4041      	eors	r1, r0
    1d16:	0a07      	lsrs	r7, r0, #8
    1d18:	404f      	eors	r7, r1
    1d1a:	982d      	ldr	r0, [sp, #180]	; 0xb4
    1d1c:	60d0      	str	r0, [r2, #12]
    1d1e:	962e      	str	r6, [sp, #184]	; 0xb8
    1d20:	6116      	str	r6, [r2, #16]
    1d22:	6155      	str	r5, [r2, #20]
    1d24:	6197      	str	r7, [r2, #24]
    1d26:	2114      	movs	r1, #20
    1d28:	4638      	mov	r0, r7
    1d2a:	4616      	mov	r6, r2
    1d2c:	f002 fc5e 	bl	45ec <__aeabi_uidivmod>
    1d30:	4608      	mov	r0, r1
    1d32:	f003 fba7 	bl	5484 <__aeabi_ui2f>
    1d36:	4601      	mov	r1, r0
    1d38:	9832      	ldr	r0, [sp, #200]	; 0xc8
    1d3a:	4041      	eors	r1, r0
    1d3c:	9132      	str	r1, [sp, #200]	; 0xc8
    1d3e:	2c00      	cmp	r4, #0
    1d40:	d010      	beq.n	1d64 <_ZN14blink_nrf518224main17h5d64dfdd3a94922fE+0xfd4>
    1d42:	9830      	ldr	r0, [sp, #192]	; 0xc0
    1d44:	992c      	ldr	r1, [sp, #176]	; 0xb0
    1d46:	1808      	adds	r0, r1, r0
    1d48:	4632      	mov	r2, r6
    1d4a:	4902      	ldr	r1, [pc, #8]	; (1d54 <_ZN14blink_nrf518224main17h5d64dfdd3a94922fE+0xfc4>)
    1d4c:	9b2d      	ldr	r3, [sp, #180]	; 0xb4
    1d4e:	9c2e      	ldr	r4, [sp, #184]	; 0xb8
    1d50:	e01b      	b.n	1d8a <_ZN14blink_nrf518224main17h5d64dfdd3a94922fE+0xffa>
    1d52:	46c0      	nop			; (mov r8, r8)
    1d54:	2000043c 	.word	0x2000043c
    1d58:	41a00000 	.word	0x41a00000
    1d5c:	20000000 	.word	0x20000000
    1d60:	00008fac 	.word	0x00008fac
    1d64:	a839      	add	r0, sp, #228	; 0xe4
    1d66:	2110      	movs	r1, #16
    1d68:	f001 fc58 	bl	361c <_ZN4zinc3hal8nrf518224rand9fill_rand17h7dfab05370fe1cccE>
    1d6c:	9b39      	ldr	r3, [sp, #228]	; 0xe4
    1d6e:	4631      	mov	r1, r6
    1d70:	60cb      	str	r3, [r1, #12]
    1d72:	9c3a      	ldr	r4, [sp, #232]	; 0xe8
    1d74:	610c      	str	r4, [r1, #16]
    1d76:	9d3b      	ldr	r5, [sp, #236]	; 0xec
    1d78:	614d      	str	r5, [r1, #20]
    1d7a:	9f3c      	ldr	r7, [sp, #240]	; 0xf0
    1d7c:	618f      	str	r7, [r1, #24]
    1d7e:	2064      	movs	r0, #100	; 0x64
    1d80:	4ef3      	ldr	r6, [pc, #972]	; (2150 <_ZN14blink_nrf518224main17h5d64dfdd3a94922fE+0x13c0>)
    1d82:	6030      	str	r0, [r6, #0]
    1d84:	2063      	movs	r0, #99	; 0x63
    1d86:	460a      	mov	r2, r1
    1d88:	4631      	mov	r1, r6
    1d8a:	6008      	str	r0, [r1, #0]
    1d8c:	02d8      	lsls	r0, r3, #11
    1d8e:	4058      	eors	r0, r3
    1d90:	0cf9      	lsrs	r1, r7, #19
    1d92:	4079      	eors	r1, r7
    1d94:	4041      	eors	r1, r0
    1d96:	0a00      	lsrs	r0, r0, #8
    1d98:	4048      	eors	r0, r1
    1d9a:	4611      	mov	r1, r2
    1d9c:	310c      	adds	r1, #12
    1d9e:	c1b0      	stmia	r1!, {r4, r5, r7}
    1da0:	6190      	str	r0, [r2, #24]
    1da2:	9904      	ldr	r1, [sp, #16]
    1da4:	9139      	str	r1, [sp, #228]	; 0xe4
    1da6:	ac39      	add	r4, sp, #228	; 0xe4
    1da8:	992a      	ldr	r1, [sp, #168]	; 0xa8
    1daa:	7121      	strb	r1, [r4, #4]
    1dac:	a955      	add	r1, sp, #340	; 0x154
    1dae:	784a      	ldrb	r2, [r1, #1]
    1db0:	71a2      	strb	r2, [r4, #6]
    1db2:	780a      	ldrb	r2, [r1, #0]
    1db4:	7162      	strb	r2, [r4, #5]
    1db6:	7889      	ldrb	r1, [r1, #2]
    1db8:	71e1      	strb	r1, [r4, #7]
    1dba:	9928      	ldr	r1, [sp, #160]	; 0xa0
    1dbc:	913b      	str	r1, [sp, #236]	; 0xec
    1dbe:	9926      	ldr	r1, [sp, #152]	; 0x98
    1dc0:	913c      	str	r1, [sp, #240]	; 0xf0
    1dc2:	9905      	ldr	r1, [sp, #20]
    1dc4:	913d      	str	r1, [sp, #244]	; 0xf4
    1dc6:	9925      	ldr	r1, [sp, #148]	; 0x94
    1dc8:	7521      	strb	r1, [r4, #20]
    1dca:	a938      	add	r1, sp, #224	; 0xe0
    1dcc:	784a      	ldrb	r2, [r1, #1]
    1dce:	75a2      	strb	r2, [r4, #22]
    1dd0:	780a      	ldrb	r2, [r1, #0]
    1dd2:	7562      	strb	r2, [r4, #21]
    1dd4:	7889      	ldrb	r1, [r1, #2]
    1dd6:	75e1      	strb	r1, [r4, #23]
    1dd8:	9921      	ldr	r1, [sp, #132]	; 0x84
    1dda:	913f      	str	r1, [sp, #252]	; 0xfc
    1ddc:	9920      	ldr	r1, [sp, #128]	; 0x80
    1dde:	9140      	str	r1, [sp, #256]	; 0x100
    1de0:	9919      	ldr	r1, [sp, #100]	; 0x64
    1de2:	9141      	str	r1, [sp, #260]	; 0x104
    1de4:	2124      	movs	r1, #36	; 0x24
    1de6:	9a1e      	ldr	r2, [sp, #120]	; 0x78
    1de8:	5462      	strb	r2, [r4, r1]
    1dea:	a937      	add	r1, sp, #220	; 0xdc
    1dec:	784a      	ldrb	r2, [r1, #1]
    1dee:	2326      	movs	r3, #38	; 0x26
    1df0:	54e2      	strb	r2, [r4, r3]
    1df2:	780a      	ldrb	r2, [r1, #0]
    1df4:	2325      	movs	r3, #37	; 0x25
    1df6:	54e2      	strb	r2, [r4, r3]
    1df8:	7889      	ldrb	r1, [r1, #2]
    1dfa:	2227      	movs	r2, #39	; 0x27
    1dfc:	54a1      	strb	r1, [r4, r2]
    1dfe:	991a      	ldr	r1, [sp, #104]	; 0x68
    1e00:	9143      	str	r1, [sp, #268]	; 0x10c
    1e02:	9915      	ldr	r1, [sp, #84]	; 0x54
    1e04:	9144      	str	r1, [sp, #272]	; 0x110
    1e06:	9922      	ldr	r1, [sp, #136]	; 0x88
    1e08:	9145      	str	r1, [sp, #276]	; 0x114
    1e0a:	2134      	movs	r1, #52	; 0x34
    1e0c:	9a13      	ldr	r2, [sp, #76]	; 0x4c
    1e0e:	5462      	strb	r2, [r4, r1]
    1e10:	a936      	add	r1, sp, #216	; 0xd8
    1e12:	784a      	ldrb	r2, [r1, #1]
    1e14:	2336      	movs	r3, #54	; 0x36
    1e16:	54e2      	strb	r2, [r4, r3]
    1e18:	780a      	ldrb	r2, [r1, #0]
    1e1a:	2335      	movs	r3, #53	; 0x35
    1e1c:	54e2      	strb	r2, [r4, r3]
    1e1e:	7889      	ldrb	r1, [r1, #2]
    1e20:	2237      	movs	r2, #55	; 0x37
    1e22:	54a1      	strb	r1, [r4, r2]
    1e24:	9912      	ldr	r1, [sp, #72]	; 0x48
    1e26:	9147      	str	r1, [sp, #284]	; 0x11c
    1e28:	9910      	ldr	r1, [sp, #64]	; 0x40
    1e2a:	9148      	str	r1, [sp, #288]	; 0x120
    1e2c:	9929      	ldr	r1, [sp, #164]	; 0xa4
    1e2e:	9149      	str	r1, [sp, #292]	; 0x124
    1e30:	2144      	movs	r1, #68	; 0x44
    1e32:	9a0f      	ldr	r2, [sp, #60]	; 0x3c
    1e34:	5462      	strb	r2, [r4, r1]
    1e36:	a935      	add	r1, sp, #212	; 0xd4
    1e38:	784a      	ldrb	r2, [r1, #1]
    1e3a:	2346      	movs	r3, #70	; 0x46
    1e3c:	54e2      	strb	r2, [r4, r3]
    1e3e:	780a      	ldrb	r2, [r1, #0]
    1e40:	2345      	movs	r3, #69	; 0x45
    1e42:	54e2      	strb	r2, [r4, r3]
    1e44:	7889      	ldrb	r1, [r1, #2]
    1e46:	2247      	movs	r2, #71	; 0x47
    1e48:	54a1      	strb	r1, [r4, r2]
    1e4a:	990e      	ldr	r1, [sp, #56]	; 0x38
    1e4c:	914b      	str	r1, [sp, #300]	; 0x12c
    1e4e:	990c      	ldr	r1, [sp, #48]	; 0x30
    1e50:	914c      	str	r1, [sp, #304]	; 0x130
    1e52:	992b      	ldr	r1, [sp, #172]	; 0xac
    1e54:	914d      	str	r1, [sp, #308]	; 0x134
    1e56:	2154      	movs	r1, #84	; 0x54
    1e58:	9a0b      	ldr	r2, [sp, #44]	; 0x2c
    1e5a:	5462      	strb	r2, [r4, r1]
    1e5c:	a934      	add	r1, sp, #208	; 0xd0
    1e5e:	784a      	ldrb	r2, [r1, #1]
    1e60:	2356      	movs	r3, #86	; 0x56
    1e62:	54e2      	strb	r2, [r4, r3]
    1e64:	780a      	ldrb	r2, [r1, #0]
    1e66:	2355      	movs	r3, #85	; 0x55
    1e68:	54e2      	strb	r2, [r4, r3]
    1e6a:	7889      	ldrb	r1, [r1, #2]
    1e6c:	2257      	movs	r2, #87	; 0x57
    1e6e:	54a1      	strb	r1, [r4, r2]
    1e70:	990a      	ldr	r1, [sp, #40]	; 0x28
    1e72:	914f      	str	r1, [sp, #316]	; 0x13c
    1e74:	9908      	ldr	r1, [sp, #32]
    1e76:	9150      	str	r1, [sp, #320]	; 0x140
    1e78:	9931      	ldr	r1, [sp, #196]	; 0xc4
    1e7a:	9151      	str	r1, [sp, #324]	; 0x144
    1e7c:	2164      	movs	r1, #100	; 0x64
    1e7e:	9122      	str	r1, [sp, #136]	; 0x88
    1e80:	9a07      	ldr	r2, [sp, #28]
    1e82:	5462      	strb	r2, [r4, r1]
    1e84:	a933      	add	r1, sp, #204	; 0xcc
    1e86:	784a      	ldrb	r2, [r1, #1]
    1e88:	2366      	movs	r3, #102	; 0x66
    1e8a:	54e2      	strb	r2, [r4, r3]
    1e8c:	780a      	ldrb	r2, [r1, #0]
    1e8e:	2365      	movs	r3, #101	; 0x65
    1e90:	54e2      	strb	r2, [r4, r3]
    1e92:	7889      	ldrb	r1, [r1, #2]
    1e94:	2267      	movs	r2, #103	; 0x67
    1e96:	54a1      	strb	r1, [r4, r2]
    1e98:	9932      	ldr	r1, [sp, #200]	; 0xc8
    1e9a:	9153      	str	r1, [sp, #332]	; 0x14c
    1e9c:	2114      	movs	r1, #20
    1e9e:	9105      	str	r1, [sp, #20]
    1ea0:	f002 fba4 	bl	45ec <__aeabi_uidivmod>
    1ea4:	310a      	adds	r1, #10
    1ea6:	4608      	mov	r0, r1
    1ea8:	f003 faec 	bl	5484 <__aeabi_ui2f>
    1eac:	49a9      	ldr	r1, [pc, #676]	; (2154 <_ZN14blink_nrf518224main17h5d64dfdd3a94922fE+0x13c4>)
    1eae:	f002 fdcd 	bl	4a4c <__aeabi_fdiv>
    1eb2:	9054      	str	r0, [sp, #336]	; 0x150
    1eb4:	48a8      	ldr	r0, [pc, #672]	; (2158 <_ZN14blink_nrf518224main17h5d64dfdd3a94922fE+0x13c8>)
    1eb6:	6881      	ldr	r1, [r0, #8]
    1eb8:	9107      	str	r1, [sp, #28]
    1eba:	9157      	str	r1, [sp, #348]	; 0x15c
    1ebc:	6841      	ldr	r1, [r0, #4]
    1ebe:	9106      	str	r1, [sp, #24]
    1ec0:	9156      	str	r1, [sp, #344]	; 0x158
    1ec2:	6800      	ldr	r0, [r0, #0]
    1ec4:	9015      	str	r0, [sp, #84]	; 0x54
    1ec6:	9055      	str	r0, [sp, #340]	; 0x154
    1ec8:	a855      	add	r0, sp, #340	; 0x154
    1eca:	2540      	movs	r5, #64	; 0x40
    1ecc:	2230      	movs	r2, #48	; 0x30
    1ece:	4629      	mov	r1, r5
    1ed0:	f7fe fb86 	bl	5e0 <_ZN14blink_nrf518227display4draw17haa5976ca818aacebE>
    1ed4:	4620      	mov	r0, r4
    1ed6:	3070      	adds	r0, #112	; 0x70
    1ed8:	9026      	str	r0, [sp, #152]	; 0x98
    1eda:	4620      	mov	r0, r4
    1edc:	3068      	adds	r0, #104	; 0x68
    1ede:	9012      	str	r0, [sp, #72]	; 0x48
    1ee0:	4620      	mov	r0, r4
    1ee2:	3064      	adds	r0, #100	; 0x64
    1ee4:	9011      	str	r0, [sp, #68]	; 0x44
    1ee6:	4620      	mov	r0, r4
    1ee8:	3058      	adds	r0, #88	; 0x58
    1eea:	9010      	str	r0, [sp, #64]	; 0x40
    1eec:	4620      	mov	r0, r4
    1eee:	3054      	adds	r0, #84	; 0x54
    1ef0:	900f      	str	r0, [sp, #60]	; 0x3c
    1ef2:	4620      	mov	r0, r4
    1ef4:	3048      	adds	r0, #72	; 0x48
    1ef6:	900e      	str	r0, [sp, #56]	; 0x38
    1ef8:	4620      	mov	r0, r4
    1efa:	3044      	adds	r0, #68	; 0x44
    1efc:	900d      	str	r0, [sp, #52]	; 0x34
    1efe:	4620      	mov	r0, r4
    1f00:	3038      	adds	r0, #56	; 0x38
    1f02:	900c      	str	r0, [sp, #48]	; 0x30
    1f04:	4620      	mov	r0, r4
    1f06:	3034      	adds	r0, #52	; 0x34
    1f08:	900b      	str	r0, [sp, #44]	; 0x2c
    1f0a:	4620      	mov	r0, r4
    1f0c:	3028      	adds	r0, #40	; 0x28
    1f0e:	900a      	str	r0, [sp, #40]	; 0x28
    1f10:	4620      	mov	r0, r4
    1f12:	3024      	adds	r0, #36	; 0x24
    1f14:	9009      	str	r0, [sp, #36]	; 0x24
    1f16:	4620      	mov	r0, r4
    1f18:	3018      	adds	r0, #24
    1f1a:	9008      	str	r0, [sp, #32]
    1f1c:	3408      	adds	r4, #8
    1f1e:	9413      	str	r4, [sp, #76]	; 0x4c
    1f20:	2000      	movs	r0, #0
    1f22:	901a      	str	r0, [sp, #104]	; 0x68
    1f24:	e006      	b.n	1f34 <_ZN14blink_nrf518224main17h5d64dfdd3a94922fE+0x11a4>
    1f26:	5411      	strb	r1, [r2, r0]
    1f28:	488c      	ldr	r0, [pc, #560]	; (215c <_ZN14blink_nrf518224main17h5d64dfdd3a94922fE+0x13cc>)
    1f2a:	991b      	ldr	r1, [sp, #108]	; 0x6c
    1f2c:	5411      	strb	r1, [r2, r0]
    1f2e:	f7fe f9ab 	bl	288 <_ZN14blink_nrf518227display14update_display17h4431b73682dcb2eaE>
    1f32:	9d19      	ldr	r5, [sp, #100]	; 0x64
    1f34:	981a      	ldr	r0, [sp, #104]	; 0x68
    1f36:	1c40      	adds	r0, r0, #1
    1f38:	901a      	str	r0, [sp, #104]	; 0x68
    1f3a:	2832      	cmp	r0, #50	; 0x32
    1f3c:	d116      	bne.n	1f6c <_ZN14blink_nrf518224main17h5d64dfdd3a94922fE+0x11dc>
    1f3e:	2001      	movs	r0, #1
    1f40:	4987      	ldr	r1, [pc, #540]	; (2160 <_ZN14blink_nrf518224main17h5d64dfdd3a94922fE+0x13d0>)
    1f42:	7008      	strb	r0, [r1, #0]
    1f44:	2000      	movs	r0, #0
    1f46:	4987      	ldr	r1, [pc, #540]	; (2164 <_ZN14blink_nrf518224main17h5d64dfdd3a94922fE+0x13d4>)
    1f48:	6008      	str	r0, [r1, #0]
    1f4a:	4987      	ldr	r1, [pc, #540]	; (2168 <_ZN14blink_nrf518224main17h5d64dfdd3a94922fE+0x13d8>)
    1f4c:	460b      	mov	r3, r1
    1f4e:	6899      	ldr	r1, [r3, #8]
    1f50:	4a86      	ldr	r2, [pc, #536]	; (216c <_ZN14blink_nrf518224main17h5d64dfdd3a94922fE+0x13dc>)
    1f52:	6091      	str	r1, [r2, #8]
    1f54:	6859      	ldr	r1, [r3, #4]
    1f56:	6051      	str	r1, [r2, #4]
    1f58:	6819      	ldr	r1, [r3, #0]
    1f5a:	6011      	str	r1, [r2, #0]
    1f5c:	4984      	ldr	r1, [pc, #528]	; (2170 <_ZN14blink_nrf518224main17h5d64dfdd3a94922fE+0x13e0>)
    1f5e:	6008      	str	r0, [r1, #0]
    1f60:	4984      	ldr	r1, [pc, #528]	; (2174 <_ZN14blink_nrf518224main17h5d64dfdd3a94922fE+0x13e4>)
    1f62:	6008      	str	r0, [r1, #0]
    1f64:	4984      	ldr	r1, [pc, #528]	; (2178 <_ZN14blink_nrf518224main17h5d64dfdd3a94922fE+0x13e8>)
    1f66:	6008      	str	r0, [r1, #0]
    1f68:	4984      	ldr	r1, [pc, #528]	; (217c <_ZN14blink_nrf518224main17h5d64dfdd3a94922fE+0x13ec>)
    1f6a:	6008      	str	r0, [r1, #0]
    1f6c:	9519      	str	r5, [sp, #100]	; 0x64
    1f6e:	a855      	add	r0, sp, #340	; 0x154
    1f70:	991d      	ldr	r1, [sp, #116]	; 0x74
    1f72:	7001      	strb	r1, [r0, #0]
    1f74:	f001 fa4a 	bl	340c <_ZN70_$LT$zinc..hal..nrf51822..pin..Pin$u20$as$u20$zinc..hal..pin..Gpio$GT$5level17hd366ba0616e528fcE>
    1f78:	4601      	mov	r1, r0
    1f7a:	a855      	add	r0, sp, #340	; 0x154
    1f7c:	9a1c      	ldr	r2, [sp, #112]	; 0x70
    1f7e:	7002      	strb	r2, [r0, #0]
    1f80:	b2c9      	uxtb	r1, r1
    1f82:	2200      	movs	r2, #0
    1f84:	2900      	cmp	r1, #0
    1f86:	9c18      	ldr	r4, [sp, #96]	; 0x60
    1f88:	d000      	beq.n	1f8c <_ZN14blink_nrf518224main17h5d64dfdd3a94922fE+0x11fc>
    1f8a:	4614      	mov	r4, r2
    1f8c:	43d5      	mvns	r5, r2
    1f8e:	2900      	cmp	r1, #0
    1f90:	d100      	bne.n	1f94 <_ZN14blink_nrf518224main17h5d64dfdd3a94922fE+0x1204>
    1f92:	460d      	mov	r5, r1
    1f94:	f001 fa3a 	bl	340c <_ZN70_$LT$zinc..hal..nrf51822..pin..Pin$u20$as$u20$zinc..hal..pin..Gpio$GT$5level17hd366ba0616e528fcE>
    1f98:	9923      	ldr	r1, [sp, #140]	; 0x8c
    1f9a:	4208      	tst	r0, r1
    1f9c:	d000      	beq.n	1fa0 <_ZN14blink_nrf518224main17h5d64dfdd3a94922fE+0x1210>
    1f9e:	4625      	mov	r5, r4
    1fa0:	4877      	ldr	r0, [pc, #476]	; (2180 <_ZN14blink_nrf518224main17h5d64dfdd3a94922fE+0x13f0>)
    1fa2:	4205      	tst	r5, r0
    1fa4:	d021      	beq.n	1fea <_ZN14blink_nrf518224main17h5d64dfdd3a94922fE+0x125a>
    1fa6:	9e07      	ldr	r6, [sp, #28]
    1fa8:	9657      	str	r6, [sp, #348]	; 0x15c
    1faa:	9f06      	ldr	r7, [sp, #24]
    1fac:	9756      	str	r7, [sp, #344]	; 0x158
    1fae:	9815      	ldr	r0, [sp, #84]	; 0x54
    1fb0:	9055      	str	r0, [sp, #340]	; 0x154
    1fb2:	a855      	add	r0, sp, #340	; 0x154
    1fb4:	2230      	movs	r2, #48	; 0x30
    1fb6:	9c19      	ldr	r4, [sp, #100]	; 0x64
    1fb8:	4621      	mov	r1, r4
    1fba:	9232      	str	r2, [sp, #200]	; 0xc8
    1fbc:	f7fe fc72 	bl	8a4 <_ZN14blink_nrf518227display11clear_image17h8a05d38a1b3eda46E>
    1fc0:	9657      	str	r6, [sp, #348]	; 0x15c
    1fc2:	9756      	str	r7, [sp, #344]	; 0x158
    1fc4:	9815      	ldr	r0, [sp, #84]	; 0x54
    1fc6:	9055      	str	r0, [sp, #340]	; 0x154
    1fc8:	1928      	adds	r0, r5, r4
    1fca:	b202      	sxth	r2, r0
    1fcc:	2173      	movs	r1, #115	; 0x73
    1fce:	2a73      	cmp	r2, #115	; 0x73
    1fd0:	db00      	blt.n	1fd4 <_ZN14blink_nrf518224main17h5d64dfdd3a94922fE+0x1244>
    1fd2:	4608      	mov	r0, r1
    1fd4:	b201      	sxth	r1, r0
    1fd6:	2400      	movs	r4, #0
    1fd8:	2900      	cmp	r1, #0
    1fda:	db00      	blt.n	1fde <_ZN14blink_nrf518224main17h5d64dfdd3a94922fE+0x124e>
    1fdc:	4604      	mov	r4, r0
    1fde:	a855      	add	r0, sp, #340	; 0x154
    1fe0:	4621      	mov	r1, r4
    1fe2:	9a32      	ldr	r2, [sp, #200]	; 0xc8
    1fe4:	f7fe fafc 	bl	5e0 <_ZN14blink_nrf518227display4draw17haa5976ca818aacebE>
    1fe8:	e000      	b.n	1fec <_ZN14blink_nrf518224main17h5d64dfdd3a94922fE+0x125c>
    1fea:	9c19      	ldr	r4, [sp, #100]	; 0x64
    1fec:	9813      	ldr	r0, [sp, #76]	; 0x4c
    1fee:	6800      	ldr	r0, [r0, #0]
    1ff0:	f003 f9d8 	bl	53a4 <__aeabi_f2iz>
    1ff4:	4602      	mov	r2, r0
    1ff6:	ae39      	add	r6, sp, #228	; 0xe4
    1ff8:	7931      	ldrb	r1, [r6, #4]
    1ffa:	9839      	ldr	r0, [sp, #228]	; 0xe4
    1ffc:	f7fe fc52 	bl	8a4 <_ZN14blink_nrf518227display11clear_image17h8a05d38a1b3eda46E>
    2000:	9808      	ldr	r0, [sp, #32]
    2002:	6800      	ldr	r0, [r0, #0]
    2004:	f003 f9ce 	bl	53a4 <__aeabi_f2iz>
    2008:	4602      	mov	r2, r0
    200a:	7d31      	ldrb	r1, [r6, #20]
    200c:	983d      	ldr	r0, [sp, #244]	; 0xf4
    200e:	f7fe fc49 	bl	8a4 <_ZN14blink_nrf518227display11clear_image17h8a05d38a1b3eda46E>
    2012:	980a      	ldr	r0, [sp, #40]	; 0x28
    2014:	6800      	ldr	r0, [r0, #0]
    2016:	f003 f9c5 	bl	53a4 <__aeabi_f2iz>
    201a:	4602      	mov	r2, r0
    201c:	9809      	ldr	r0, [sp, #36]	; 0x24
    201e:	7801      	ldrb	r1, [r0, #0]
    2020:	9841      	ldr	r0, [sp, #260]	; 0x104
    2022:	f7fe fc3f 	bl	8a4 <_ZN14blink_nrf518227display11clear_image17h8a05d38a1b3eda46E>
    2026:	980c      	ldr	r0, [sp, #48]	; 0x30
    2028:	6800      	ldr	r0, [r0, #0]
    202a:	f003 f9bb 	bl	53a4 <__aeabi_f2iz>
    202e:	4602      	mov	r2, r0
    2030:	980b      	ldr	r0, [sp, #44]	; 0x2c
    2032:	7801      	ldrb	r1, [r0, #0]
    2034:	9845      	ldr	r0, [sp, #276]	; 0x114
    2036:	f7fe fc35 	bl	8a4 <_ZN14blink_nrf518227display11clear_image17h8a05d38a1b3eda46E>
    203a:	980e      	ldr	r0, [sp, #56]	; 0x38
    203c:	6800      	ldr	r0, [r0, #0]
    203e:	f003 f9b1 	bl	53a4 <__aeabi_f2iz>
    2042:	4602      	mov	r2, r0
    2044:	980d      	ldr	r0, [sp, #52]	; 0x34
    2046:	7801      	ldrb	r1, [r0, #0]
    2048:	9849      	ldr	r0, [sp, #292]	; 0x124
    204a:	f7fe fc2b 	bl	8a4 <_ZN14blink_nrf518227display11clear_image17h8a05d38a1b3eda46E>
    204e:	9810      	ldr	r0, [sp, #64]	; 0x40
    2050:	6800      	ldr	r0, [r0, #0]
    2052:	f003 f9a7 	bl	53a4 <__aeabi_f2iz>
    2056:	4602      	mov	r2, r0
    2058:	980f      	ldr	r0, [sp, #60]	; 0x3c
    205a:	7801      	ldrb	r1, [r0, #0]
    205c:	984d      	ldr	r0, [sp, #308]	; 0x134
    205e:	f7fe fc21 	bl	8a4 <_ZN14blink_nrf518227display11clear_image17h8a05d38a1b3eda46E>
    2062:	9812      	ldr	r0, [sp, #72]	; 0x48
    2064:	6800      	ldr	r0, [r0, #0]
    2066:	f003 f99d 	bl	53a4 <__aeabi_f2iz>
    206a:	4602      	mov	r2, r0
    206c:	9811      	ldr	r0, [sp, #68]	; 0x44
    206e:	7801      	ldrb	r1, [r0, #0]
    2070:	9851      	ldr	r0, [sp, #324]	; 0x144
    2072:	f7fe fc17 	bl	8a4 <_ZN14blink_nrf518227display11clear_image17h8a05d38a1b3eda46E>
    2076:	1ca0      	adds	r0, r4, #2
    2078:	b200      	sxth	r0, r0
    207a:	901e      	str	r0, [sp, #120]	; 0x78
    207c:	9419      	str	r4, [sp, #100]	; 0x64
    207e:	4620      	mov	r0, r4
    2080:	300a      	adds	r0, #10
    2082:	b200      	sxth	r0, r0
    2084:	9021      	str	r0, [sp, #132]	; 0x84
    2086:	981a      	ldr	r0, [sp, #104]	; 0x68
    2088:	0880      	lsrs	r0, r0, #2
    208a:	3028      	adds	r0, #40	; 0x28
    208c:	9020      	str	r0, [sp, #128]	; 0x80
    208e:	4637      	mov	r7, r6
    2090:	68b9      	ldr	r1, [r7, #8]
    2092:	68f8      	ldr	r0, [r7, #12]
    2094:	f002 fb48 	bl	4728 <__aeabi_fadd>
    2098:	4605      	mov	r5, r0
    209a:	60bd      	str	r5, [r7, #8]
    209c:	2085      	movs	r0, #133	; 0x85
    209e:	05c1      	lsls	r1, r0, #23
    20a0:	4628      	mov	r0, r5
    20a2:	f002 fb0d 	bl	46c0 <__aeabi_fcmpgt>
    20a6:	2100      	movs	r1, #0
    20a8:	9128      	str	r1, [sp, #160]	; 0xa0
    20aa:	43c9      	mvns	r1, r1
    20ac:	912c      	str	r1, [sp, #176]	; 0xb0
    20ae:	4639      	mov	r1, r7
    20b0:	3108      	adds	r1, #8
    20b2:	9131      	str	r1, [sp, #196]	; 0xc4
    20b4:	4639      	mov	r1, r7
    20b6:	310c      	adds	r1, #12
    20b8:	3610      	adds	r6, #16
    20ba:	962d      	str	r6, [sp, #180]	; 0xb4
    20bc:	2800      	cmp	r0, #0
    20be:	9732      	str	r7, [sp, #200]	; 0xc8
    20c0:	d100      	bne.n	20c4 <_ZN14blink_nrf518224main17h5d64dfdd3a94922fE+0x1334>
    20c2:	e0ca      	b.n	225a <_ZN14blink_nrf518224main17h5d64dfdd3a94922fE+0x14ca>
    20c4:	4b22      	ldr	r3, [pc, #136]	; (2150 <_ZN14blink_nrf518224main17h5d64dfdd3a94922fE+0x13c0>)
    20c6:	6818      	ldr	r0, [r3, #0]
    20c8:	2800      	cmp	r0, #0
    20ca:	4a28      	ldr	r2, [pc, #160]	; (216c <_ZN14blink_nrf518224main17h5d64dfdd3a94922fE+0x13dc>)
    20cc:	9125      	str	r1, [sp, #148]	; 0x94
    20ce:	d008      	beq.n	20e2 <_ZN14blink_nrf518224main17h5d64dfdd3a94922fE+0x1352>
    20d0:	9930      	ldr	r1, [sp, #192]	; 0xc0
    20d2:	1840      	adds	r0, r0, r1
    20d4:	9029      	str	r0, [sp, #164]	; 0xa4
    20d6:	68d0      	ldr	r0, [r2, #12]
    20d8:	6911      	ldr	r1, [r2, #16]
    20da:	912a      	str	r1, [sp, #168]	; 0xa8
    20dc:	6957      	ldr	r7, [r2, #20]
    20de:	6995      	ldr	r5, [r2, #24]
    20e0:	e012      	b.n	2108 <_ZN14blink_nrf518224main17h5d64dfdd3a94922fE+0x1378>
    20e2:	a855      	add	r0, sp, #340	; 0x154
    20e4:	2110      	movs	r1, #16
    20e6:	f001 fa99 	bl	361c <_ZN4zinc3hal8nrf518224rand9fill_rand17h7dfab05370fe1cccE>
    20ea:	4b19      	ldr	r3, [pc, #100]	; (2150 <_ZN14blink_nrf518224main17h5d64dfdd3a94922fE+0x13c0>)
    20ec:	4a1f      	ldr	r2, [pc, #124]	; (216c <_ZN14blink_nrf518224main17h5d64dfdd3a94922fE+0x13dc>)
    20ee:	9855      	ldr	r0, [sp, #340]	; 0x154
    20f0:	60d0      	str	r0, [r2, #12]
    20f2:	9956      	ldr	r1, [sp, #344]	; 0x158
    20f4:	912a      	str	r1, [sp, #168]	; 0xa8
    20f6:	6111      	str	r1, [r2, #16]
    20f8:	9f57      	ldr	r7, [sp, #348]	; 0x15c
    20fa:	6157      	str	r7, [r2, #20]
    20fc:	9d58      	ldr	r5, [sp, #352]	; 0x160
    20fe:	6195      	str	r5, [r2, #24]
    2100:	9922      	ldr	r1, [sp, #136]	; 0x88
    2102:	6019      	str	r1, [r3, #0]
    2104:	2163      	movs	r1, #99	; 0x63
    2106:	9129      	str	r1, [sp, #164]	; 0xa4
    2108:	9e29      	ldr	r6, [sp, #164]	; 0xa4
    210a:	601e      	str	r6, [r3, #0]
    210c:	02c1      	lsls	r1, r0, #11
    210e:	4041      	eors	r1, r0
    2110:	0ce8      	lsrs	r0, r5, #19
    2112:	4068      	eors	r0, r5
    2114:	4048      	eors	r0, r1
    2116:	0a0c      	lsrs	r4, r1, #8
    2118:	4044      	eors	r4, r0
    211a:	982a      	ldr	r0, [sp, #168]	; 0xa8
    211c:	60d0      	str	r0, [r2, #12]
    211e:	972b      	str	r7, [sp, #172]	; 0xac
    2120:	6117      	str	r7, [r2, #16]
    2122:	952e      	str	r5, [sp, #184]	; 0xb8
    2124:	6155      	str	r5, [r2, #20]
    2126:	6194      	str	r4, [r2, #24]
    2128:	2105      	movs	r1, #5
    212a:	4620      	mov	r0, r4
    212c:	4617      	mov	r7, r2
    212e:	f002 fa5d 	bl	45ec <__aeabi_uidivmod>
    2132:	0088      	lsls	r0, r1, #2
    2134:	4913      	ldr	r1, [pc, #76]	; (2184 <_ZN14blink_nrf518224main17h5d64dfdd3a94922fE+0x13f4>)
    2136:	5808      	ldr	r0, [r1, r0]
    2138:	9d32      	ldr	r5, [sp, #200]	; 0xc8
    213a:	6028      	str	r0, [r5, #0]
    213c:	2e00      	cmp	r6, #0
    213e:	d023      	beq.n	2188 <_ZN14blink_nrf518224main17h5d64dfdd3a94922fE+0x13f8>
    2140:	9930      	ldr	r1, [sp, #192]	; 0xc0
    2142:	9a29      	ldr	r2, [sp, #164]	; 0xa4
    2144:	1856      	adds	r6, r2, r1
    2146:	4902      	ldr	r1, [pc, #8]	; (2150 <_ZN14blink_nrf518224main17h5d64dfdd3a94922fE+0x13c0>)
    2148:	9b2e      	ldr	r3, [sp, #184]	; 0xb8
    214a:	9a2a      	ldr	r2, [sp, #168]	; 0xa8
    214c:	e02e      	b.n	21ac <_ZN14blink_nrf518224main17h5d64dfdd3a94922fE+0x141c>
    214e:	46c0      	nop			; (mov r8, r8)
    2150:	2000043c 	.word	0x2000043c
    2154:	41a00000 	.word	0x41a00000
    2158:	00008fec 	.word	0x00008fec
    215c:	00000401 	.word	0x00000401
    2160:	20000438 	.word	0x20000438
    2164:	20000424 	.word	0x20000424
    2168:	0000b1c4 	.word	0x0000b1c4
    216c:	20000000 	.word	0x20000000
    2170:	20000428 	.word	0x20000428
    2174:	2000042c 	.word	0x2000042c
    2178:	20000430 	.word	0x20000430
    217c:	20000434 	.word	0x20000434
    2180:	0000ffff 	.word	0x0000ffff
    2184:	00008fac 	.word	0x00008fac
    2188:	a855      	add	r0, sp, #340	; 0x154
    218a:	2110      	movs	r1, #16
    218c:	f001 fa46 	bl	361c <_ZN4zinc3hal8nrf518224rand9fill_rand17h7dfab05370fe1cccE>
    2190:	9a55      	ldr	r2, [sp, #340]	; 0x154
    2192:	60fa      	str	r2, [r7, #12]
    2194:	9856      	ldr	r0, [sp, #344]	; 0x158
    2196:	902b      	str	r0, [sp, #172]	; 0xac
    2198:	6138      	str	r0, [r7, #16]
    219a:	9b57      	ldr	r3, [sp, #348]	; 0x15c
    219c:	617b      	str	r3, [r7, #20]
    219e:	9c58      	ldr	r4, [sp, #352]	; 0x160
    21a0:	61bc      	str	r4, [r7, #24]
    21a2:	9822      	ldr	r0, [sp, #136]	; 0x88
    21a4:	49e6      	ldr	r1, [pc, #920]	; (2540 <_ZN14blink_nrf518224main17h5d64dfdd3a94922fE+0x17b0>)
    21a6:	6008      	str	r0, [r1, #0]
    21a8:	6828      	ldr	r0, [r5, #0]
    21aa:	2663      	movs	r6, #99	; 0x63
    21ac:	4635      	mov	r5, r6
    21ae:	600e      	str	r6, [r1, #0]
    21b0:	02d1      	lsls	r1, r2, #11
    21b2:	4051      	eors	r1, r2
    21b4:	0ce2      	lsrs	r2, r4, #19
    21b6:	4062      	eors	r2, r4
    21b8:	404a      	eors	r2, r1
    21ba:	0a0e      	lsrs	r6, r1, #8
    21bc:	4056      	eors	r6, r2
    21be:	992b      	ldr	r1, [sp, #172]	; 0xac
    21c0:	60f9      	str	r1, [r7, #12]
    21c2:	932e      	str	r3, [sp, #184]	; 0xb8
    21c4:	4639      	mov	r1, r7
    21c6:	3110      	adds	r1, #16
    21c8:	c158      	stmia	r1!, {r3, r4, r6}
    21ca:	7a00      	ldrb	r0, [r0, #8]
    21cc:	217f      	movs	r1, #127	; 0x7f
    21ce:	1a08      	subs	r0, r1, r0
    21d0:	9923      	ldr	r1, [sp, #140]	; 0x8c
    21d2:	4208      	tst	r0, r1
    21d4:	d101      	bne.n	21da <_ZN14blink_nrf518224main17h5d64dfdd3a94922fE+0x144a>
    21d6:	f000 ff7c 	bl	30d2 <_ZN14blink_nrf518224main17h5d64dfdd3a94922fE+0x2342>
    21da:	b2c1      	uxtb	r1, r0
    21dc:	4630      	mov	r0, r6
    21de:	f002 fa05 	bl	45ec <__aeabi_uidivmod>
    21e2:	9f32      	ldr	r7, [sp, #200]	; 0xc8
    21e4:	7139      	strb	r1, [r7, #4]
    21e6:	48d7      	ldr	r0, [pc, #860]	; (2544 <_ZN14blink_nrf518224main17h5d64dfdd3a94922fE+0x17b4>)
    21e8:	9931      	ldr	r1, [sp, #196]	; 0xc4
    21ea:	6008      	str	r0, [r1, #0]
    21ec:	4608      	mov	r0, r1
    21ee:	2d00      	cmp	r5, #0
    21f0:	d006      	beq.n	2200 <_ZN14blink_nrf518224main17h5d64dfdd3a94922fE+0x1470>
    21f2:	9830      	ldr	r0, [sp, #192]	; 0xc0
    21f4:	1828      	adds	r0, r5, r0
    21f6:	4dd3      	ldr	r5, [pc, #844]	; (2544 <_ZN14blink_nrf518224main17h5d64dfdd3a94922fE+0x17b4>)
    21f8:	4ad3      	ldr	r2, [pc, #844]	; (2548 <_ZN14blink_nrf518224main17h5d64dfdd3a94922fE+0x17b8>)
    21fa:	49d1      	ldr	r1, [pc, #836]	; (2540 <_ZN14blink_nrf518224main17h5d64dfdd3a94922fE+0x17b0>)
    21fc:	9b2b      	ldr	r3, [sp, #172]	; 0xac
    21fe:	e013      	b.n	2228 <_ZN14blink_nrf518224main17h5d64dfdd3a94922fE+0x1498>
    2200:	4605      	mov	r5, r0
    2202:	a855      	add	r0, sp, #340	; 0x154
    2204:	2110      	movs	r1, #16
    2206:	f001 fa09 	bl	361c <_ZN4zinc3hal8nrf518224rand9fill_rand17h7dfab05370fe1cccE>
    220a:	9b55      	ldr	r3, [sp, #340]	; 0x154
    220c:	4ace      	ldr	r2, [pc, #824]	; (2548 <_ZN14blink_nrf518224main17h5d64dfdd3a94922fE+0x17b8>)
    220e:	60d3      	str	r3, [r2, #12]
    2210:	9856      	ldr	r0, [sp, #344]	; 0x158
    2212:	902e      	str	r0, [sp, #184]	; 0xb8
    2214:	6110      	str	r0, [r2, #16]
    2216:	9c57      	ldr	r4, [sp, #348]	; 0x15c
    2218:	6154      	str	r4, [r2, #20]
    221a:	9e58      	ldr	r6, [sp, #352]	; 0x160
    221c:	6196      	str	r6, [r2, #24]
    221e:	49c8      	ldr	r1, [pc, #800]	; (2540 <_ZN14blink_nrf518224main17h5d64dfdd3a94922fE+0x17b0>)
    2220:	9822      	ldr	r0, [sp, #136]	; 0x88
    2222:	6008      	str	r0, [r1, #0]
    2224:	682d      	ldr	r5, [r5, #0]
    2226:	2063      	movs	r0, #99	; 0x63
    2228:	6008      	str	r0, [r1, #0]
    222a:	02d8      	lsls	r0, r3, #11
    222c:	4058      	eors	r0, r3
    222e:	0cf1      	lsrs	r1, r6, #19
    2230:	4071      	eors	r1, r6
    2232:	4041      	eors	r1, r0
    2234:	0a00      	lsrs	r0, r0, #8
    2236:	4048      	eors	r0, r1
    2238:	992e      	ldr	r1, [sp, #184]	; 0xb8
    223a:	4613      	mov	r3, r2
    223c:	330c      	adds	r3, #12
    223e:	c352      	stmia	r3!, {r1, r4, r6}
    2240:	6190      	str	r0, [r2, #24]
    2242:	2114      	movs	r1, #20
    2244:	f002 f9d2 	bl	45ec <__aeabi_uidivmod>
    2248:	9820      	ldr	r0, [sp, #128]	; 0x80
    224a:	1840      	adds	r0, r0, r1
    224c:	f003 f91a 	bl	5484 <__aeabi_ui2f>
    2250:	49be      	ldr	r1, [pc, #760]	; (254c <_ZN14blink_nrf518224main17h5d64dfdd3a94922fE+0x17bc>)
    2252:	f002 fbfb 	bl	4a4c <__aeabi_fdiv>
    2256:	9925      	ldr	r1, [sp, #148]	; 0x94
    2258:	6008      	str	r0, [r1, #0]
    225a:	2004      	movs	r0, #4
    225c:	902a      	str	r0, [sp, #168]	; 0xa8
    225e:	563e      	ldrsb	r6, [r7, r0]
    2260:	683c      	ldr	r4, [r7, #0]
    2262:	4628      	mov	r0, r5
    2264:	f003 f89e 	bl	53a4 <__aeabi_f2iz>
    2268:	283f      	cmp	r0, #63	; 0x3f
    226a:	dd00      	ble.n	226e <_ZN14blink_nrf518224main17h5d64dfdd3a94922fE+0x14de>
    226c:	e10b      	b.n	2486 <_ZN14blink_nrf518224main17h5d64dfdd3a94922fE+0x16f6>
    226e:	2e00      	cmp	r6, #0
    2270:	da00      	bge.n	2274 <_ZN14blink_nrf518224main17h5d64dfdd3a94922fE+0x14e4>
    2272:	e108      	b.n	2486 <_ZN14blink_nrf518224main17h5d64dfdd3a94922fE+0x16f6>
    2274:	b2f5      	uxtb	r5, r6
    2276:	7a23      	ldrb	r3, [r4, #8]
    2278:	1959      	adds	r1, r3, r5
    227a:	2900      	cmp	r1, #0
    227c:	d100      	bne.n	2280 <_ZN14blink_nrf518224main17h5d64dfdd3a94922fE+0x14f0>
    227e:	e102      	b.n	2486 <_ZN14blink_nrf518224main17h5d64dfdd3a94922fE+0x16f6>
    2280:	7a62      	ldrb	r2, [r4, #9]
    2282:	1816      	adds	r6, r2, r0
    2284:	b236      	sxth	r6, r6
    2286:	2e01      	cmp	r6, #1
    2288:	da00      	bge.n	228c <_ZN14blink_nrf518224main17h5d64dfdd3a94922fE+0x14fc>
    228a:	e0fc      	b.n	2486 <_ZN14blink_nrf518224main17h5d64dfdd3a94922fE+0x16f6>
    228c:	462e      	mov	r6, r5
    228e:	4306      	orrs	r6, r0
    2290:	4faf      	ldr	r7, [pc, #700]	; (2550 <_ZN14blink_nrf518224main17h5d64dfdd3a94922fE+0x17c0>)
    2292:	423e      	tst	r6, r7
    2294:	d120      	bne.n	22d8 <_ZN14blink_nrf518224main17h5d64dfdd3a94922fE+0x1548>
    2296:	9e27      	ldr	r6, [sp, #156]	; 0x9c
    2298:	42b3      	cmp	r3, r6
    229a:	d11d      	bne.n	22d8 <_ZN14blink_nrf518224main17h5d64dfdd3a94922fE+0x1548>
    229c:	2a40      	cmp	r2, #64	; 0x40
    229e:	d11b      	bne.n	22d8 <_ZN14blink_nrf518224main17h5d64dfdd3a94922fE+0x1548>
    22a0:	6860      	ldr	r0, [r4, #4]
    22a2:	992f      	ldr	r1, [sp, #188]	; 0xbc
    22a4:	4288      	cmp	r0, r1
    22a6:	d300      	bcc.n	22aa <_ZN14blink_nrf518224main17h5d64dfdd3a94922fE+0x151a>
    22a8:	982f      	ldr	r0, [sp, #188]	; 0xbc
    22aa:	2800      	cmp	r0, #0
    22ac:	4ea9      	ldr	r6, [pc, #676]	; (2554 <_ZN14blink_nrf518224main17h5d64dfdd3a94922fE+0x17c4>)
    22ae:	d00b      	beq.n	22c8 <_ZN14blink_nrf518224main17h5d64dfdd3a94922fE+0x1538>
    22b0:	6821      	ldr	r1, [r4, #0]
    22b2:	2200      	movs	r2, #0
    22b4:	18b3      	adds	r3, r6, r2
    22b6:	2b00      	cmp	r3, #0
    22b8:	d006      	beq.n	22c8 <_ZN14blink_nrf518224main17h5d64dfdd3a94922fE+0x1538>
    22ba:	5c8c      	ldrb	r4, [r1, r2]
    22bc:	781d      	ldrb	r5, [r3, #0]
    22be:	4325      	orrs	r5, r4
    22c0:	701d      	strb	r5, [r3, #0]
    22c2:	1c52      	adds	r2, r2, #1
    22c4:	4282      	cmp	r2, r0
    22c6:	d3f5      	bcc.n	22b4 <_ZN14blink_nrf518224main17h5d64dfdd3a94922fE+0x1524>
    22c8:	2001      	movs	r0, #1
    22ca:	0280      	lsls	r0, r0, #10
    22cc:	2100      	movs	r1, #0
    22ce:	5431      	strb	r1, [r6, r0]
    22d0:	48a1      	ldr	r0, [pc, #644]	; (2558 <_ZN14blink_nrf518224main17h5d64dfdd3a94922fE+0x17c8>)
    22d2:	991b      	ldr	r1, [sp, #108]	; 0x6c
    22d4:	5431      	strb	r1, [r6, r0]
    22d6:	e0d6      	b.n	2486 <_ZN14blink_nrf518224main17h5d64dfdd3a94922fE+0x16f6>
    22d8:	4ba0      	ldr	r3, [pc, #640]	; (255c <_ZN14blink_nrf518224main17h5d64dfdd3a94922fE+0x17cc>)
    22da:	4003      	ands	r3, r0
    22dc:	283f      	cmp	r0, #63	; 0x3f
    22de:	dc56      	bgt.n	238e <_ZN14blink_nrf518224main17h5d64dfdd3a94922fE+0x15fe>
    22e0:	2b00      	cmp	r3, #0
    22e2:	d154      	bne.n	238e <_ZN14blink_nrf518224main17h5d64dfdd3a94922fE+0x15fe>
    22e4:	2a08      	cmp	r2, #8
    22e6:	d152      	bne.n	238e <_ZN14blink_nrf518224main17h5d64dfdd3a94922fE+0x15fe>
    22e8:	b28b      	uxth	r3, r1
    22ea:	227f      	movs	r2, #127	; 0x7f
    22ec:	2b7f      	cmp	r3, #127	; 0x7f
    22ee:	d800      	bhi.n	22f2 <_ZN14blink_nrf518224main17h5d64dfdd3a94922fE+0x1562>
    22f0:	460a      	mov	r2, r1
    22f2:	1b51      	subs	r1, r2, r5
    22f4:	912e      	str	r1, [sp, #184]	; 0xb8
    22f6:	b20b      	sxth	r3, r1
    22f8:	0f01      	lsrs	r1, r0, #28
    22fa:	9a1b      	ldr	r2, [sp, #108]	; 0x6c
    22fc:	4011      	ands	r1, r2
    22fe:	1840      	adds	r0, r0, r1
    2300:	b200      	sxth	r0, r0
    2302:	10c6      	asrs	r6, r0, #3
    2304:	01f0      	lsls	r0, r6, #7
    2306:	9923      	ldr	r1, [sp, #140]	; 0x8c
    2308:	01cf      	lsls	r7, r1, #7
    230a:	4007      	ands	r7, r0
    230c:	1978      	adds	r0, r7, r5
    230e:	181a      	adds	r2, r3, r0
    2310:	2101      	movs	r1, #1
    2312:	429a      	cmp	r2, r3
    2314:	d200      	bcs.n	2318 <_ZN14blink_nrf518224main17h5d64dfdd3a94922fE+0x1588>
    2316:	9128      	str	r1, [sp, #160]	; 0xa0
    2318:	9928      	ldr	r1, [sp, #160]	; 0xa0
    231a:	2900      	cmp	r1, #0
    231c:	d001      	beq.n	2322 <_ZN14blink_nrf518224main17h5d64dfdd3a94922fE+0x1592>
    231e:	f000 fefd 	bl	311c <_ZN14blink_nrf518224main17h5d64dfdd3a94922fE+0x238c>
    2322:	962b      	str	r6, [sp, #172]	; 0xac
    2324:	992f      	ldr	r1, [sp, #188]	; 0xbc
    2326:	428a      	cmp	r2, r1
    2328:	d901      	bls.n	232e <_ZN14blink_nrf518224main17h5d64dfdd3a94922fE+0x159e>
    232a:	f000 fefa 	bl	3122 <_ZN14blink_nrf518224main17h5d64dfdd3a94922fE+0x2392>
    232e:	6861      	ldr	r1, [r4, #4]
    2330:	428b      	cmp	r3, r1
    2332:	d901      	bls.n	2338 <_ZN14blink_nrf518224main17h5d64dfdd3a94922fE+0x15a8>
    2334:	f000 fef9 	bl	312a <_ZN14blink_nrf518224main17h5d64dfdd3a94922fE+0x239a>
    2338:	6821      	ldr	r1, [r4, #0]
    233a:	4a85      	ldr	r2, [pc, #532]	; (2550 <_ZN14blink_nrf518224main17h5d64dfdd3a94922fE+0x17c0>)
    233c:	9c2e      	ldr	r4, [sp, #184]	; 0xb8
    233e:	4214      	tst	r4, r2
    2340:	d00f      	beq.n	2362 <_ZN14blink_nrf518224main17h5d64dfdd3a94922fE+0x15d2>
    2342:	4a84      	ldr	r2, [pc, #528]	; (2554 <_ZN14blink_nrf518224main17h5d64dfdd3a94922fE+0x17c4>)
    2344:	1810      	adds	r0, r2, r0
    2346:	4252      	negs	r2, r2
    2348:	1b52      	subs	r2, r2, r5
    234a:	1bd2      	subs	r2, r2, r7
    234c:	2400      	movs	r4, #0
    234e:	1905      	adds	r5, r0, r4
    2350:	42a2      	cmp	r2, r4
    2352:	d006      	beq.n	2362 <_ZN14blink_nrf518224main17h5d64dfdd3a94922fE+0x15d2>
    2354:	5d0f      	ldrb	r7, [r1, r4]
    2356:	782e      	ldrb	r6, [r5, #0]
    2358:	433e      	orrs	r6, r7
    235a:	702e      	strb	r6, [r5, #0]
    235c:	1c64      	adds	r4, r4, #1
    235e:	429c      	cmp	r4, r3
    2360:	d3f5      	bcc.n	234e <_ZN14blink_nrf518224main17h5d64dfdd3a94922fE+0x15be>
    2362:	2001      	movs	r0, #1
    2364:	0280      	lsls	r0, r0, #10
    2366:	4c7b      	ldr	r4, [pc, #492]	; (2554 <_ZN14blink_nrf518224main17h5d64dfdd3a94922fE+0x17c4>)
    2368:	5c22      	ldrb	r2, [r4, r0]
    236a:	9d2b      	ldr	r5, [sp, #172]	; 0xac
    236c:	b2e9      	uxtb	r1, r5
    236e:	428a      	cmp	r2, r1
    2370:	462b      	mov	r3, r5
    2372:	d200      	bcs.n	2376 <_ZN14blink_nrf518224main17h5d64dfdd3a94922fE+0x15e6>
    2374:	4613      	mov	r3, r2
    2376:	5423      	strb	r3, [r4, r0]
    2378:	4877      	ldr	r0, [pc, #476]	; (2558 <_ZN14blink_nrf518224main17h5d64dfdd3a94922fE+0x17c8>)
    237a:	5c22      	ldrb	r2, [r4, r0]
    237c:	428a      	cmp	r2, r1
    237e:	4611      	mov	r1, r2
    2380:	d200      	bcs.n	2384 <_ZN14blink_nrf518224main17h5d64dfdd3a94922fE+0x15f4>
    2382:	4629      	mov	r1, r5
    2384:	2a07      	cmp	r2, #7
    2386:	d800      	bhi.n	238a <_ZN14blink_nrf518224main17h5d64dfdd3a94922fE+0x15fa>
    2388:	460d      	mov	r5, r1
    238a:	5425      	strb	r5, [r4, r0]
    238c:	e07b      	b.n	2486 <_ZN14blink_nrf518224main17h5d64dfdd3a94922fE+0x16f6>
    238e:	2a08      	cmp	r2, #8
    2390:	d166      	bne.n	2460 <_ZN14blink_nrf518224main17h5d64dfdd3a94922fE+0x16d0>
    2392:	b28a      	uxth	r2, r1
    2394:	2a7f      	cmp	r2, #127	; 0x7f
    2396:	9a14      	ldr	r2, [sp, #80]	; 0x50
    2398:	d800      	bhi.n	239c <_ZN14blink_nrf518224main17h5d64dfdd3a94922fE+0x160c>
    239a:	460a      	mov	r2, r1
    239c:	1b51      	subs	r1, r2, r5
    239e:	4602      	mov	r2, r0
    23a0:	3208      	adds	r2, #8
    23a2:	b213      	sxth	r3, r2
    23a4:	0f1b      	lsrs	r3, r3, #28
    23a6:	9e1b      	ldr	r6, [sp, #108]	; 0x6c
    23a8:	4033      	ands	r3, r6
    23aa:	18d3      	adds	r3, r2, r3
    23ac:	43b3      	bics	r3, r6
    23ae:	1ad2      	subs	r2, r2, r3
    23b0:	0f03      	lsrs	r3, r0, #28
    23b2:	4033      	ands	r3, r6
    23b4:	18c3      	adds	r3, r0, r3
    23b6:	b21b      	sxth	r3, r3
    23b8:	10db      	asrs	r3, r3, #3
    23ba:	2800      	cmp	r0, #0
    23bc:	9f2c      	ldr	r7, [sp, #176]	; 0xb0
    23be:	db00      	blt.n	23c2 <_ZN14blink_nrf518224main17h5d64dfdd3a94922fE+0x1632>
    23c0:	461f      	mov	r7, r3
    23c2:	b20e      	sxth	r6, r1
    23c4:	01f8      	lsls	r0, r7, #7
    23c6:	1945      	adds	r5, r0, r5
    23c8:	cc18      	ldmia	r4, {r3, r4}
    23ca:	982c      	ldr	r0, [sp, #176]	; 0xb0
    23cc:	4287      	cmp	r7, r0
    23ce:	dd25      	ble.n	241c <_ZN14blink_nrf518224main17h5d64dfdd3a94922fE+0x168c>
    23d0:	4668      	mov	r0, sp
    23d2:	2100      	movs	r1, #0
    23d4:	c042      	stmia	r0!, {r1, r6}
    23d6:	932b      	str	r3, [sp, #172]	; 0xac
    23d8:	4618      	mov	r0, r3
    23da:	4621      	mov	r1, r4
    23dc:	922e      	str	r2, [sp, #184]	; 0xb8
    23de:	462b      	mov	r3, r5
    23e0:	f7fd ff96 	bl	310 <_ZN14blink_nrf518227display11slice_paint17hb4297fb6849e963eE>
    23e4:	2001      	movs	r0, #1
    23e6:	0280      	lsls	r0, r0, #10
    23e8:	495a      	ldr	r1, [pc, #360]	; (2554 <_ZN14blink_nrf518224main17h5d64dfdd3a94922fE+0x17c4>)
    23ea:	5c0a      	ldrb	r2, [r1, r0]
    23ec:	b2f9      	uxtb	r1, r7
    23ee:	428a      	cmp	r2, r1
    23f0:	463b      	mov	r3, r7
    23f2:	d200      	bcs.n	23f6 <_ZN14blink_nrf518224main17h5d64dfdd3a94922fE+0x1666>
    23f4:	4613      	mov	r3, r2
    23f6:	4a57      	ldr	r2, [pc, #348]	; (2554 <_ZN14blink_nrf518224main17h5d64dfdd3a94922fE+0x17c4>)
    23f8:	5413      	strb	r3, [r2, r0]
    23fa:	4857      	ldr	r0, [pc, #348]	; (2558 <_ZN14blink_nrf518224main17h5d64dfdd3a94922fE+0x17c8>)
    23fc:	5c12      	ldrb	r2, [r2, r0]
    23fe:	428a      	cmp	r2, r1
    2400:	4611      	mov	r1, r2
    2402:	d200      	bcs.n	2406 <_ZN14blink_nrf518224main17h5d64dfdd3a94922fE+0x1676>
    2404:	4639      	mov	r1, r7
    2406:	2a07      	cmp	r2, #7
    2408:	463b      	mov	r3, r7
    240a:	9a2e      	ldr	r2, [sp, #184]	; 0xb8
    240c:	d800      	bhi.n	2410 <_ZN14blink_nrf518224main17h5d64dfdd3a94922fE+0x1680>
    240e:	460b      	mov	r3, r1
    2410:	4950      	ldr	r1, [pc, #320]	; (2554 <_ZN14blink_nrf518224main17h5d64dfdd3a94922fE+0x17c4>)
    2412:	540b      	strb	r3, [r1, r0]
    2414:	b238      	sxth	r0, r7
    2416:	2806      	cmp	r0, #6
    2418:	9b2b      	ldr	r3, [sp, #172]	; 0xac
    241a:	dc34      	bgt.n	2486 <_ZN14blink_nrf518224main17h5d64dfdd3a94922fE+0x16f6>
    241c:	4668      	mov	r0, sp
    241e:	9928      	ldr	r1, [sp, #160]	; 0xa0
    2420:	c042      	stmia	r0!, {r1, r6}
    2422:	982c      	ldr	r0, [sp, #176]	; 0xb0
    2424:	1810      	adds	r0, r2, r0
    2426:	1fc2      	subs	r2, r0, #7
    2428:	3580      	adds	r5, #128	; 0x80
    242a:	4618      	mov	r0, r3
    242c:	4621      	mov	r1, r4
    242e:	462b      	mov	r3, r5
    2430:	f7fd ff6e 	bl	310 <_ZN14blink_nrf518227display11slice_paint17hb4297fb6849e963eE>
    2434:	2001      	movs	r0, #1
    2436:	0281      	lsls	r1, r0, #10
    2438:	4d46      	ldr	r5, [pc, #280]	; (2554 <_ZN14blink_nrf518224main17h5d64dfdd3a94922fE+0x17c4>)
    243a:	5c6b      	ldrb	r3, [r5, r1]
    243c:	1c78      	adds	r0, r7, #1
    243e:	b2c2      	uxtb	r2, r0
    2440:	4293      	cmp	r3, r2
    2442:	4604      	mov	r4, r0
    2444:	d200      	bcs.n	2448 <_ZN14blink_nrf518224main17h5d64dfdd3a94922fE+0x16b8>
    2446:	461c      	mov	r4, r3
    2448:	546c      	strb	r4, [r5, r1]
    244a:	4943      	ldr	r1, [pc, #268]	; (2558 <_ZN14blink_nrf518224main17h5d64dfdd3a94922fE+0x17c8>)
    244c:	5c6b      	ldrb	r3, [r5, r1]
    244e:	4293      	cmp	r3, r2
    2450:	461a      	mov	r2, r3
    2452:	d200      	bcs.n	2456 <_ZN14blink_nrf518224main17h5d64dfdd3a94922fE+0x16c6>
    2454:	4602      	mov	r2, r0
    2456:	2b07      	cmp	r3, #7
    2458:	d800      	bhi.n	245c <_ZN14blink_nrf518224main17h5d64dfdd3a94922fE+0x16cc>
    245a:	4610      	mov	r0, r2
    245c:	5468      	strb	r0, [r5, r1]
    245e:	e012      	b.n	2486 <_ZN14blink_nrf518224main17h5d64dfdd3a94922fE+0x16f6>
    2460:	483f      	ldr	r0, [pc, #252]	; (2560 <_ZN14blink_nrf518224main17h5d64dfdd3a94922fE+0x17d0>)
    2462:	9055      	str	r0, [sp, #340]	; 0x154
    2464:	2001      	movs	r0, #1
    2466:	9056      	str	r0, [sp, #344]	; 0x158
    2468:	9c28      	ldr	r4, [sp, #160]	; 0xa0
    246a:	9457      	str	r4, [sp, #348]	; 0x15c
    246c:	483d      	ldr	r0, [pc, #244]	; (2564 <_ZN14blink_nrf518224main17h5d64dfdd3a94922fE+0x17d4>)
    246e:	9059      	str	r0, [sp, #356]	; 0x164
    2470:	945a      	str	r4, [sp, #360]	; 0x168
    2472:	a838      	add	r0, sp, #224	; 0xe0
    2474:	aa55      	add	r2, sp, #340	; 0x154
    2476:	493c      	ldr	r1, [pc, #240]	; (2568 <_ZN14blink_nrf518224main17h5d64dfdd3a94922fE+0x17d8>)
    2478:	f001 fa64 	bl	3944 <_ZN4core3fmt5write17h56e3d15cb4a744eaE>
    247c:	483b      	ldr	r0, [pc, #236]	; (256c <_ZN14blink_nrf518224main17h5d64dfdd3a94922fE+0x17dc>)
    247e:	493c      	ldr	r1, [pc, #240]	; (2570 <_ZN14blink_nrf518224main17h5d64dfdd3a94922fE+0x17e0>)
    2480:	4622      	mov	r2, r4
    2482:	f000 ff01 	bl	3288 <_ZN4zinc3hal8nrf518224uart4Uart7writeln17h3374573b82f4d38aE>
    2486:	9831      	ldr	r0, [sp, #196]	; 0xc4
    2488:	6804      	ldr	r4, [r0, #0]
    248a:	493a      	ldr	r1, [pc, #232]	; (2574 <_ZN14blink_nrf518224main17h5d64dfdd3a94922fE+0x17e4>)
    248c:	4620      	mov	r0, r4
    248e:	f002 f90d 	bl	46ac <__aeabi_fcmple>
    2492:	2800      	cmp	r0, #0
    2494:	9d32      	ldr	r5, [sp, #200]	; 0xc8
    2496:	d10f      	bne.n	24b8 <_ZN14blink_nrf518224main17h5d64dfdd3a94922fE+0x1728>
    2498:	4937      	ldr	r1, [pc, #220]	; (2578 <_ZN14blink_nrf518224main17h5d64dfdd3a94922fE+0x17e8>)
    249a:	4620      	mov	r0, r4
    249c:	f002 f910 	bl	46c0 <__aeabi_fcmpgt>
    24a0:	2800      	cmp	r0, #0
    24a2:	d109      	bne.n	24b8 <_ZN14blink_nrf518224main17h5d64dfdd3a94922fE+0x1728>
    24a4:	7928      	ldrb	r0, [r5, #4]
    24a6:	9921      	ldr	r1, [sp, #132]	; 0x84
    24a8:	4288      	cmp	r0, r1
    24aa:	dc05      	bgt.n	24b8 <_ZN14blink_nrf518224main17h5d64dfdd3a94922fE+0x1728>
    24ac:	6829      	ldr	r1, [r5, #0]
    24ae:	7a09      	ldrb	r1, [r1, #8]
    24b0:	1808      	adds	r0, r1, r0
    24b2:	991e      	ldr	r1, [sp, #120]	; 0x78
    24b4:	4288      	cmp	r0, r1
    24b6:	da63      	bge.n	2580 <_ZN14blink_nrf518224main17h5d64dfdd3a94922fE+0x17f0>
    24b8:	9826      	ldr	r0, [sp, #152]	; 0x98
    24ba:	9e2d      	ldr	r6, [sp, #180]	; 0xb4
    24bc:	4286      	cmp	r6, r0
    24be:	d000      	beq.n	24c2 <_ZN14blink_nrf518224main17h5d64dfdd3a94922fE+0x1732>
    24c0:	e5e5      	b.n	208e <_ZN14blink_nrf518224main17h5d64dfdd3a94922fE+0x12fe>
    24c2:	981a      	ldr	r0, [sp, #104]	; 0x68
    24c4:	2805      	cmp	r0, #5
    24c6:	d331      	bcc.n	252c <_ZN14blink_nrf518224main17h5d64dfdd3a94922fE+0x179c>
    24c8:	2105      	movs	r1, #5
    24ca:	981a      	ldr	r0, [sp, #104]	; 0x68
    24cc:	f002 f808 	bl	44e0 <__udivsi3>
    24d0:	4604      	mov	r4, r0
    24d2:	267e      	movs	r6, #126	; 0x7e
    24d4:	250a      	movs	r5, #10
    24d6:	9632      	str	r6, [sp, #200]	; 0xc8
    24d8:	2d00      	cmp	r5, #0
    24da:	d101      	bne.n	24e0 <_ZN14blink_nrf518224main17h5d64dfdd3a94922fE+0x1750>
    24dc:	f000 fdfc 	bl	30d8 <_ZN14blink_nrf518224main17h5d64dfdd3a94922fE+0x2348>
    24e0:	4620      	mov	r0, r4
    24e2:	4629      	mov	r1, r5
    24e4:	f002 f882 	bl	45ec <__aeabi_uidivmod>
    24e8:	460e      	mov	r6, r1
    24ea:	1ba4      	subs	r4, r4, r6
    24ec:	2d0a      	cmp	r5, #10
    24ee:	d201      	bcs.n	24f4 <_ZN14blink_nrf518224main17h5d64dfdd3a94922fE+0x1764>
    24f0:	f000 fdf5 	bl	30de <_ZN14blink_nrf518224main17h5d64dfdd3a94922fE+0x234e>
    24f4:	270a      	movs	r7, #10
    24f6:	4628      	mov	r0, r5
    24f8:	4639      	mov	r1, r7
    24fa:	f001 fff1 	bl	44e0 <__udivsi3>
    24fe:	4601      	mov	r1, r0
    2500:	4630      	mov	r0, r6
    2502:	f001 ffed 	bl	44e0 <__udivsi3>
    2506:	4601      	mov	r1, r0
    2508:	982c      	ldr	r0, [sp, #176]	; 0xb0
    250a:	9a32      	ldr	r2, [sp, #200]	; 0xc8
    250c:	1810      	adds	r0, r2, r0
    250e:	1f46      	subs	r6, r0, #5
    2510:	2909      	cmp	r1, #9
    2512:	d901      	bls.n	2518 <_ZN14blink_nrf518224main17h5d64dfdd3a94922fE+0x1788>
    2514:	f000 fde6 	bl	30e4 <_ZN14blink_nrf518224main17h5d64dfdd3a94922fE+0x2354>
    2518:	0088      	lsls	r0, r1, #2
    251a:	4918      	ldr	r1, [pc, #96]	; (257c <_ZN14blink_nrf518224main17h5d64dfdd3a94922fE+0x17ec>)
    251c:	5808      	ldr	r0, [r1, r0]
    251e:	2238      	movs	r2, #56	; 0x38
    2520:	4631      	mov	r1, r6
    2522:	f7fe f85d 	bl	5e0 <_ZN14blink_nrf518227display4draw17haa5976ca818aacebE>
    2526:	437d      	muls	r5, r7
    2528:	2c00      	cmp	r4, #0
    252a:	d1d4      	bne.n	24d6 <_ZN14blink_nrf518224main17h5d64dfdd3a94922fE+0x1746>
    252c:	2001      	movs	r0, #1
    252e:	0280      	lsls	r0, r0, #10
    2530:	4a08      	ldr	r2, [pc, #32]	; (2554 <_ZN14blink_nrf518224main17h5d64dfdd3a94922fE+0x17c4>)
    2532:	5c11      	ldrb	r1, [r2, r0]
    2534:	2907      	cmp	r1, #7
    2536:	d200      	bcs.n	253a <_ZN14blink_nrf518224main17h5d64dfdd3a94922fE+0x17aa>
    2538:	e4f5      	b.n	1f26 <_ZN14blink_nrf518224main17h5d64dfdd3a94922fE+0x1196>
    253a:	991b      	ldr	r1, [sp, #108]	; 0x6c
    253c:	e4f3      	b.n	1f26 <_ZN14blink_nrf518224main17h5d64dfdd3a94922fE+0x1196>
    253e:	46c0      	nop			; (mov r8, r8)
    2540:	2000043c 	.word	0x2000043c
    2544:	c0e00000 	.word	0xc0e00000
    2548:	20000000 	.word	0x20000000
    254c:	43480000 	.word	0x43480000
    2550:	0000ffff 	.word	0x0000ffff
    2554:	2000001c 	.word	0x2000001c
    2558:	00000401 	.word	0x00000401
    255c:	00008007 	.word	0x00008007
    2560:	0000c8d0 	.word	0x0000c8d0
    2564:	00006648 	.word	0x00006648
    2568:	00006630 	.word	0x00006630
    256c:	00006469 	.word	0x00006469
    2570:	00006648 	.word	0x00006648
    2574:	42280000 	.word	0x42280000
    2578:	425c0000 	.word	0x425c0000
    257c:	000065bc 	.word	0x000065bc
    2580:	2700      	movs	r7, #0
    2582:	4819      	ldr	r0, [pc, #100]	; (25e8 <_ZN14blink_nrf518224main17h5d64dfdd3a94922fE+0x1858>)
    2584:	7007      	strb	r7, [r0, #0]
    2586:	4819      	ldr	r0, [pc, #100]	; (25ec <_ZN14blink_nrf518224main17h5d64dfdd3a94922fE+0x185c>)
    2588:	6007      	str	r7, [r0, #0]
    258a:	4819      	ldr	r0, [pc, #100]	; (25f0 <_ZN14blink_nrf518224main17h5d64dfdd3a94922fE+0x1860>)
    258c:	6881      	ldr	r1, [r0, #8]
    258e:	4a19      	ldr	r2, [pc, #100]	; (25f4 <_ZN14blink_nrf518224main17h5d64dfdd3a94922fE+0x1864>)
    2590:	6091      	str	r1, [r2, #8]
    2592:	6841      	ldr	r1, [r0, #4]
    2594:	6051      	str	r1, [r2, #4]
    2596:	6800      	ldr	r0, [r0, #0]
    2598:	6010      	str	r0, [r2, #0]
    259a:	4817      	ldr	r0, [pc, #92]	; (25f8 <_ZN14blink_nrf518224main17h5d64dfdd3a94922fE+0x1868>)
    259c:	6007      	str	r7, [r0, #0]
    259e:	4817      	ldr	r0, [pc, #92]	; (25fc <_ZN14blink_nrf518224main17h5d64dfdd3a94922fE+0x186c>)
    25a0:	6007      	str	r7, [r0, #0]
    25a2:	4817      	ldr	r0, [pc, #92]	; (2600 <_ZN14blink_nrf518224main17h5d64dfdd3a94922fE+0x1870>)
    25a4:	6007      	str	r7, [r0, #0]
    25a6:	4817      	ldr	r0, [pc, #92]	; (2604 <_ZN14blink_nrf518224main17h5d64dfdd3a94922fE+0x1874>)
    25a8:	6007      	str	r7, [r0, #0]
    25aa:	2601      	movs	r6, #1
    25ac:	4c16      	ldr	r4, [pc, #88]	; (2608 <_ZN14blink_nrf518224main17h5d64dfdd3a94922fE+0x1878>)
    25ae:	4630      	mov	r0, r6
    25b0:	4621      	mov	r1, r4
    25b2:	f7fd fe0f 	bl	1d4 <_ZN14blink_nrf518227display7fade_to17h8c516a49d9bd70f0E>
    25b6:	9d03      	ldr	r5, [sp, #12]
    25b8:	4628      	mov	r0, r5
    25ba:	4621      	mov	r1, r4
    25bc:	f7fd fe0a 	bl	1d4 <_ZN14blink_nrf518227display7fade_to17h8c516a49d9bd70f0E>
    25c0:	962e      	str	r6, [sp, #184]	; 0xb8
    25c2:	4630      	mov	r0, r6
    25c4:	4621      	mov	r1, r4
    25c6:	f7fd fe05 	bl	1d4 <_ZN14blink_nrf518227display7fade_to17h8c516a49d9bd70f0E>
    25ca:	4628      	mov	r0, r5
    25cc:	463d      	mov	r5, r7
    25ce:	4621      	mov	r1, r4
    25d0:	f7fd fe00 	bl	1d4 <_ZN14blink_nrf518227display7fade_to17h8c516a49d9bd70f0E>
    25d4:	2105      	movs	r1, #5
    25d6:	981a      	ldr	r0, [sp, #104]	; 0x68
    25d8:	9128      	str	r1, [sp, #160]	; 0xa0
    25da:	f001 ff81 	bl	44e0 <__udivsi3>
    25de:	4604      	mov	r4, r0
    25e0:	982f      	ldr	r0, [sp, #188]	; 0xbc
    25e2:	9930      	ldr	r1, [sp, #192]	; 0xc0
    25e4:	4a09      	ldr	r2, [pc, #36]	; (260c <_ZN14blink_nrf518224main17h5d64dfdd3a94922fE+0x187c>)
    25e6:	e013      	b.n	2610 <_ZN14blink_nrf518224main17h5d64dfdd3a94922fE+0x1880>
    25e8:	20000438 	.word	0x20000438
    25ec:	20000424 	.word	0x20000424
    25f0:	0000c92c 	.word	0x0000c92c
    25f4:	20000000 	.word	0x20000000
    25f8:	20000428 	.word	0x20000428
    25fc:	2000042c 	.word	0x2000042c
    2600:	20000430 	.word	0x20000430
    2604:	20000434 	.word	0x20000434
    2608:	3e4ccccd 	.word	0x3e4ccccd
    260c:	2000001c 	.word	0x2000001c
    2610:	7015      	strb	r5, [r2, #0]
    2612:	1840      	adds	r0, r0, r1
    2614:	1c52      	adds	r2, r2, #1
    2616:	2800      	cmp	r0, #0
    2618:	d1fa      	bne.n	2610 <_ZN14blink_nrf518224main17h5d64dfdd3a94922fE+0x1880>
    261a:	982e      	ldr	r0, [sp, #184]	; 0xb8
    261c:	0280      	lsls	r0, r0, #10
    261e:	4918      	ldr	r1, [pc, #96]	; (2680 <_ZN14blink_nrf518224main17h5d64dfdd3a94922fE+0x18f0>)
    2620:	902d      	str	r0, [sp, #180]	; 0xb4
    2622:	540d      	strb	r5, [r1, r0]
    2624:	4817      	ldr	r0, [pc, #92]	; (2684 <_ZN14blink_nrf518224main17h5d64dfdd3a94922fE+0x18f4>)
    2626:	2607      	movs	r6, #7
    2628:	540e      	strb	r6, [r1, r0]
    262a:	4817      	ldr	r0, [pc, #92]	; (2688 <_ZN14blink_nrf518224main17h5d64dfdd3a94922fE+0x18f8>)
    262c:	7005      	strb	r5, [r0, #0]
    262e:	4817      	ldr	r0, [pc, #92]	; (268c <_ZN14blink_nrf518224main17h5d64dfdd3a94922fE+0x18fc>)
    2630:	6005      	str	r5, [r0, #0]
    2632:	4817      	ldr	r0, [pc, #92]	; (2690 <_ZN14blink_nrf518224main17h5d64dfdd3a94922fE+0x1900>)
    2634:	6881      	ldr	r1, [r0, #8]
    2636:	4a17      	ldr	r2, [pc, #92]	; (2694 <_ZN14blink_nrf518224main17h5d64dfdd3a94922fE+0x1904>)
    2638:	6091      	str	r1, [r2, #8]
    263a:	6841      	ldr	r1, [r0, #4]
    263c:	6051      	str	r1, [r2, #4]
    263e:	6800      	ldr	r0, [r0, #0]
    2640:	6010      	str	r0, [r2, #0]
    2642:	4815      	ldr	r0, [pc, #84]	; (2698 <_ZN14blink_nrf518224main17h5d64dfdd3a94922fE+0x1908>)
    2644:	6005      	str	r5, [r0, #0]
    2646:	4815      	ldr	r0, [pc, #84]	; (269c <_ZN14blink_nrf518224main17h5d64dfdd3a94922fE+0x190c>)
    2648:	6005      	str	r5, [r0, #0]
    264a:	4815      	ldr	r0, [pc, #84]	; (26a0 <_ZN14blink_nrf518224main17h5d64dfdd3a94922fE+0x1910>)
    264c:	6005      	str	r5, [r0, #0]
    264e:	4815      	ldr	r0, [pc, #84]	; (26a4 <_ZN14blink_nrf518224main17h5d64dfdd3a94922fE+0x1914>)
    2650:	6005      	str	r5, [r0, #0]
    2652:	4815      	ldr	r0, [pc, #84]	; (26a8 <_ZN14blink_nrf518224main17h5d64dfdd3a94922fE+0x1918>)
    2654:	6881      	ldr	r1, [r0, #8]
    2656:	913b      	str	r1, [sp, #236]	; 0xec
    2658:	6841      	ldr	r1, [r0, #4]
    265a:	913a      	str	r1, [sp, #232]	; 0xe8
    265c:	6800      	ldr	r0, [r0, #0]
    265e:	9039      	str	r0, [sp, #228]	; 0xe4
    2660:	a839      	add	r0, sp, #228	; 0xe4
    2662:	4629      	mov	r1, r5
    2664:	462a      	mov	r2, r5
    2666:	f7fd ffbb 	bl	5e0 <_ZN14blink_nrf518227display4draw17haa5976ca818aacebE>
    266a:	f7fd fe0d 	bl	288 <_ZN14blink_nrf518227display14update_display17h4431b73682dcb2eaE>
    266e:	480f      	ldr	r0, [pc, #60]	; (26ac <_ZN14blink_nrf518224main17h5d64dfdd3a94922fE+0x191c>)
    2670:	4629      	mov	r1, r5
    2672:	f000 ffeb 	bl	364c <_ZN4zinc3hal8nrf518228sleep_us17h401a33623f589258E>
    2676:	1c60      	adds	r0, r4, #1
    2678:	9026      	str	r0, [sp, #152]	; 0x98
    267a:	9631      	str	r6, [sp, #196]	; 0xc4
    267c:	e018      	b.n	26b0 <_ZN14blink_nrf518224main17h5d64dfdd3a94922fE+0x1920>
    267e:	46c0      	nop			; (mov r8, r8)
    2680:	2000001c 	.word	0x2000001c
    2684:	00000401 	.word	0x00000401
    2688:	20000438 	.word	0x20000438
    268c:	20000424 	.word	0x20000424
    2690:	0000c420 	.word	0x0000c420
    2694:	20000000 	.word	0x20000000
    2698:	20000428 	.word	0x20000428
    269c:	2000042c 	.word	0x2000042c
    26a0:	20000430 	.word	0x20000430
    26a4:	20000434 	.word	0x20000434
    26a8:	0000c82c 	.word	0x0000c82c
    26ac:	0007a120 	.word	0x0007a120
    26b0:	a839      	add	r0, sp, #228	; 0xe4
    26b2:	2100      	movs	r1, #0
    26b4:	7001      	strb	r1, [r0, #0]
    26b6:	7041      	strb	r1, [r0, #1]
    26b8:	7081      	strb	r1, [r0, #2]
    26ba:	70c1      	strb	r1, [r0, #3]
    26bc:	7101      	strb	r1, [r0, #4]
    26be:	7141      	strb	r1, [r0, #5]
    26c0:	7181      	strb	r1, [r0, #6]
    26c2:	71c1      	strb	r1, [r0, #7]
    26c4:	7201      	strb	r1, [r0, #8]
    26c6:	912b      	str	r1, [sp, #172]	; 0xac
    26c8:	7241      	strb	r1, [r0, #9]
    26ca:	1c68      	adds	r0, r5, #1
    26cc:	9029      	str	r0, [sp, #164]	; 0xa4
    26ce:	2609      	movs	r6, #9
    26d0:	2d00      	cmp	r5, #0
    26d2:	d025      	beq.n	2720 <_ZN14blink_nrf518224main17h5d64dfdd3a94922fE+0x1990>
    26d4:	270a      	movs	r7, #10
    26d6:	2609      	movs	r6, #9
    26d8:	2f00      	cmp	r7, #0
    26da:	d101      	bne.n	26e0 <_ZN14blink_nrf518224main17h5d64dfdd3a94922fE+0x1950>
    26dc:	f000 fcdc 	bl	3098 <_ZN14blink_nrf518224main17h5d64dfdd3a94922fE+0x2308>
    26e0:	4628      	mov	r0, r5
    26e2:	4639      	mov	r1, r7
    26e4:	f001 ff82 	bl	45ec <__aeabi_uidivmod>
    26e8:	460c      	mov	r4, r1
    26ea:	1b2d      	subs	r5, r5, r4
    26ec:	2f0a      	cmp	r7, #10
    26ee:	d201      	bcs.n	26f4 <_ZN14blink_nrf518224main17h5d64dfdd3a94922fE+0x1964>
    26f0:	f000 fcd5 	bl	309e <_ZN14blink_nrf518224main17h5d64dfdd3a94922fE+0x230e>
    26f4:	2e09      	cmp	r6, #9
    26f6:	d901      	bls.n	26fc <_ZN14blink_nrf518224main17h5d64dfdd3a94922fE+0x196c>
    26f8:	f000 fcd4 	bl	30a4 <_ZN14blink_nrf518224main17h5d64dfdd3a94922fE+0x2314>
    26fc:	9532      	str	r5, [sp, #200]	; 0xc8
    26fe:	250a      	movs	r5, #10
    2700:	4638      	mov	r0, r7
    2702:	4629      	mov	r1, r5
    2704:	f001 feec 	bl	44e0 <__udivsi3>
    2708:	4601      	mov	r1, r0
    270a:	4620      	mov	r0, r4
    270c:	f001 fee8 	bl	44e0 <__udivsi3>
    2710:	a939      	add	r1, sp, #228	; 0xe4
    2712:	5588      	strb	r0, [r1, r6]
    2714:	9830      	ldr	r0, [sp, #192]	; 0xc0
    2716:	1836      	adds	r6, r6, r0
    2718:	436f      	muls	r7, r5
    271a:	9d32      	ldr	r5, [sp, #200]	; 0xc8
    271c:	2d00      	cmp	r5, #0
    271e:	d1db      	bne.n	26d8 <_ZN14blink_nrf518224main17h5d64dfdd3a94922fE+0x1948>
    2720:	1c74      	adds	r4, r6, #1
    2722:	2e09      	cmp	r6, #9
    2724:	d300      	bcc.n	2728 <_ZN14blink_nrf518224main17h5d64dfdd3a94922fE+0x1998>
    2726:	4634      	mov	r4, r6
    2728:	2c09      	cmp	r4, #9
    272a:	4e02      	ldr	r6, [pc, #8]	; (2734 <_ZN14blink_nrf518224main17h5d64dfdd3a94922fE+0x19a4>)
    272c:	4f02      	ldr	r7, [pc, #8]	; (2738 <_ZN14blink_nrf518224main17h5d64dfdd3a94922fE+0x19a8>)
    272e:	d816      	bhi.n	275e <_ZN14blink_nrf518224main17h5d64dfdd3a94922fE+0x19ce>
    2730:	e004      	b.n	273c <_ZN14blink_nrf518224main17h5d64dfdd3a94922fE+0x19ac>
    2732:	46c0      	nop			; (mov r8, r8)
    2734:	000065bc 	.word	0x000065bc
    2738:	2000001c 	.word	0x2000001c
    273c:	2551      	movs	r5, #81	; 0x51
    273e:	a839      	add	r0, sp, #228	; 0xe4
    2740:	5d01      	ldrb	r1, [r0, r4]
    2742:	2909      	cmp	r1, #9
    2744:	d901      	bls.n	274a <_ZN14blink_nrf518224main17h5d64dfdd3a94922fE+0x19ba>
    2746:	f000 fcb2 	bl	30ae <_ZN14blink_nrf518224main17h5d64dfdd3a94922fE+0x231e>
    274a:	0088      	lsls	r0, r1, #2
    274c:	5830      	ldr	r0, [r6, r0]
    274e:	2228      	movs	r2, #40	; 0x28
    2750:	4629      	mov	r1, r5
    2752:	f7fd ff45 	bl	5e0 <_ZN14blink_nrf518227display4draw17haa5976ca818aacebE>
    2756:	1dad      	adds	r5, r5, #6
    2758:	1c64      	adds	r4, r4, #1
    275a:	2c0a      	cmp	r4, #10
    275c:	d3ef      	bcc.n	273e <_ZN14blink_nrf518224main17h5d64dfdd3a94922fE+0x19ae>
    275e:	982d      	ldr	r0, [sp, #180]	; 0xb4
    2760:	5c38      	ldrb	r0, [r7, r0]
    2762:	2805      	cmp	r0, #5
    2764:	d300      	bcc.n	2768 <_ZN14blink_nrf518224main17h5d64dfdd3a94922fE+0x19d8>
    2766:	9828      	ldr	r0, [sp, #160]	; 0xa0
    2768:	992d      	ldr	r1, [sp, #180]	; 0xb4
    276a:	5478      	strb	r0, [r7, r1]
    276c:	4805      	ldr	r0, [pc, #20]	; (2784 <_ZN14blink_nrf518224main17h5d64dfdd3a94922fE+0x19f4>)
    276e:	5c39      	ldrb	r1, [r7, r0]
    2770:	9a27      	ldr	r2, [sp, #156]	; 0x9c
    2772:	188a      	adds	r2, r1, r2
    2774:	327b      	adds	r2, #123	; 0x7b
    2776:	b2d2      	uxtb	r2, r2
    2778:	2a02      	cmp	r2, #2
    277a:	9a28      	ldr	r2, [sp, #160]	; 0xa0
    277c:	9e31      	ldr	r6, [sp, #196]	; 0xc4
    277e:	d804      	bhi.n	278a <_ZN14blink_nrf518224main17h5d64dfdd3a94922fE+0x19fa>
    2780:	e002      	b.n	2788 <_ZN14blink_nrf518224main17h5d64dfdd3a94922fE+0x19f8>
    2782:	46c0      	nop			; (mov r8, r8)
    2784:	00000401 	.word	0x00000401
    2788:	460a      	mov	r2, r1
    278a:	543a      	strb	r2, [r7, r0]
    278c:	f7fd fd7c 	bl	288 <_ZN14blink_nrf518227display14update_display17h4431b73682dcb2eaE>
    2790:	9826      	ldr	r0, [sp, #152]	; 0x98
    2792:	9929      	ldr	r1, [sp, #164]	; 0xa4
    2794:	4281      	cmp	r1, r0
    2796:	460d      	mov	r5, r1
    2798:	d38a      	bcc.n	26b0 <_ZN14blink_nrf518224main17h5d64dfdd3a94922fE+0x1920>
    279a:	992e      	ldr	r1, [sp, #184]	; 0xb8
    279c:	0208      	lsls	r0, r1, #8
    279e:	9028      	str	r0, [sp, #160]	; 0xa0
    27a0:	982b      	ldr	r0, [sp, #172]	; 0xac
    27a2:	9032      	str	r0, [sp, #200]	; 0xc8
    27a4:	9130      	str	r1, [sp, #192]	; 0xc0
    27a6:	2140      	movs	r1, #64	; 0x40
    27a8:	9122      	str	r1, [sp, #136]	; 0x88
    27aa:	1a09      	subs	r1, r1, r0
    27ac:	b2c9      	uxtb	r1, r1
    27ae:	9126      	str	r1, [sp, #152]	; 0x98
    27b0:	9b28      	ldr	r3, [sp, #160]	; 0xa0
    27b2:	4319      	orrs	r1, r3
    27b4:	5c7a      	ldrb	r2, [r7, r1]
    27b6:	9c2e      	ldr	r4, [sp, #184]	; 0xb8
    27b8:	4322      	orrs	r2, r4
    27ba:	547a      	strb	r2, [r7, r1]
    27bc:	992d      	ldr	r1, [sp, #180]	; 0xb4
    27be:	9c2b      	ldr	r4, [sp, #172]	; 0xac
    27c0:	547c      	strb	r4, [r7, r1]
    27c2:	4d27      	ldr	r5, [pc, #156]	; (2860 <_ZN14blink_nrf518224main17h5d64dfdd3a94922fE+0x1ad0>)
    27c4:	557e      	strb	r6, [r7, r5]
    27c6:	9525      	str	r5, [sp, #148]	; 0x94
    27c8:	4602      	mov	r2, r0
    27ca:	3240      	adds	r2, #64	; 0x40
    27cc:	b2d2      	uxtb	r2, r2
    27ce:	9229      	str	r2, [sp, #164]	; 0xa4
    27d0:	431a      	orrs	r2, r3
    27d2:	5cbe      	ldrb	r6, [r7, r2]
    27d4:	982e      	ldr	r0, [sp, #184]	; 0xb8
    27d6:	4306      	orrs	r6, r0
    27d8:	54be      	strb	r6, [r7, r2]
    27da:	547c      	strb	r4, [r7, r1]
    27dc:	9a31      	ldr	r2, [sp, #196]	; 0xc4
    27de:	557a      	strb	r2, [r7, r5]
    27e0:	461a      	mov	r2, r3
    27e2:	3280      	adds	r2, #128	; 0x80
    27e4:	9b26      	ldr	r3, [sp, #152]	; 0x98
    27e6:	189d      	adds	r5, r3, r2
    27e8:	5d7e      	ldrb	r6, [r7, r5]
    27ea:	4306      	orrs	r6, r0
    27ec:	557e      	strb	r6, [r7, r5]
    27ee:	547c      	strb	r4, [r7, r1]
    27f0:	9b31      	ldr	r3, [sp, #196]	; 0xc4
    27f2:	9825      	ldr	r0, [sp, #148]	; 0x94
    27f4:	543b      	strb	r3, [r7, r0]
    27f6:	2541      	movs	r5, #65	; 0x41
    27f8:	9b32      	ldr	r3, [sp, #200]	; 0xc8
    27fa:	1aed      	subs	r5, r5, r3
    27fc:	b2ed      	uxtb	r5, r5
    27fe:	18ad      	adds	r5, r5, r2
    2800:	5d7e      	ldrb	r6, [r7, r5]
    2802:	9f24      	ldr	r7, [sp, #144]	; 0x90
    2804:	433e      	orrs	r6, r7
    2806:	4b17      	ldr	r3, [pc, #92]	; (2864 <_ZN14blink_nrf518224main17h5d64dfdd3a94922fE+0x1ad4>)
    2808:	555e      	strb	r6, [r3, r5]
    280a:	4b16      	ldr	r3, [pc, #88]	; (2864 <_ZN14blink_nrf518224main17h5d64dfdd3a94922fE+0x1ad4>)
    280c:	545c      	strb	r4, [r3, r1]
    280e:	4b15      	ldr	r3, [pc, #84]	; (2864 <_ZN14blink_nrf518224main17h5d64dfdd3a94922fE+0x1ad4>)
    2810:	9d31      	ldr	r5, [sp, #196]	; 0xc4
    2812:	541d      	strb	r5, [r3, r0]
    2814:	9b29      	ldr	r3, [sp, #164]	; 0xa4
    2816:	189b      	adds	r3, r3, r2
    2818:	4d12      	ldr	r5, [pc, #72]	; (2864 <_ZN14blink_nrf518224main17h5d64dfdd3a94922fE+0x1ad4>)
    281a:	5ced      	ldrb	r5, [r5, r3]
    281c:	9e2e      	ldr	r6, [sp, #184]	; 0xb8
    281e:	4335      	orrs	r5, r6
    2820:	4e10      	ldr	r6, [pc, #64]	; (2864 <_ZN14blink_nrf518224main17h5d64dfdd3a94922fE+0x1ad4>)
    2822:	54f5      	strb	r5, [r6, r3]
    2824:	9e31      	ldr	r6, [sp, #196]	; 0xc4
    2826:	4b0f      	ldr	r3, [pc, #60]	; (2864 <_ZN14blink_nrf518224main17h5d64dfdd3a94922fE+0x1ad4>)
    2828:	545c      	strb	r4, [r3, r1]
    282a:	4b0e      	ldr	r3, [pc, #56]	; (2864 <_ZN14blink_nrf518224main17h5d64dfdd3a94922fE+0x1ad4>)
    282c:	4605      	mov	r5, r0
    282e:	555e      	strb	r6, [r3, r5]
    2830:	9832      	ldr	r0, [sp, #200]	; 0xc8
    2832:	3041      	adds	r0, #65	; 0x41
    2834:	b2c0      	uxtb	r0, r0
    2836:	1880      	adds	r0, r0, r2
    2838:	4a0a      	ldr	r2, [pc, #40]	; (2864 <_ZN14blink_nrf518224main17h5d64dfdd3a94922fE+0x1ad4>)
    283a:	5c12      	ldrb	r2, [r2, r0]
    283c:	433a      	orrs	r2, r7
    283e:	4f09      	ldr	r7, [pc, #36]	; (2864 <_ZN14blink_nrf518224main17h5d64dfdd3a94922fE+0x1ad4>)
    2840:	543a      	strb	r2, [r7, r0]
    2842:	547c      	strb	r4, [r7, r1]
    2844:	557e      	strb	r6, [r7, r5]
    2846:	f7fd fd1f 	bl	288 <_ZN14blink_nrf518227display14update_display17h4431b73682dcb2eaE>
    284a:	2064      	movs	r0, #100	; 0x64
    284c:	4621      	mov	r1, r4
    284e:	f000 fefd 	bl	364c <_ZN4zinc3hal8nrf518228sleep_us17h401a33623f589258E>
    2852:	9a30      	ldr	r2, [sp, #192]	; 0xc0
    2854:	b2d0      	uxtb	r0, r2
    2856:	1c51      	adds	r1, r2, #1
    2858:	2821      	cmp	r0, #33	; 0x21
    285a:	d306      	bcc.n	286a <_ZN14blink_nrf518224main17h5d64dfdd3a94922fE+0x1ada>
    285c:	e004      	b.n	2868 <_ZN14blink_nrf518224main17h5d64dfdd3a94922fE+0x1ad8>
    285e:	46c0      	nop			; (mov r8, r8)
    2860:	00000401 	.word	0x00000401
    2864:	2000001c 	.word	0x2000001c
    2868:	4611      	mov	r1, r2
    286a:	2821      	cmp	r0, #33	; 0x21
    286c:	4610      	mov	r0, r2
    286e:	d398      	bcc.n	27a2 <_ZN14blink_nrf518224main17h5d64dfdd3a94922fE+0x1a12>
    2870:	2101      	movs	r1, #1
    2872:	2200      	movs	r2, #0
    2874:	9c2f      	ldr	r4, [sp, #188]	; 0xbc
    2876:	922d      	str	r2, [sp, #180]	; 0xb4
    2878:	9126      	str	r1, [sp, #152]	; 0x98
    287a:	4635      	mov	r5, r6
    287c:	4613      	mov	r3, r2
    287e:	3310      	adds	r3, #16
    2880:	20f8      	movs	r0, #248	; 0xf8
    2882:	4619      	mov	r1, r3
    2884:	4001      	ands	r1, r0
    2886:	010a      	lsls	r2, r1, #4
    2888:	261f      	movs	r6, #31
    288a:	922b      	str	r2, [sp, #172]	; 0xac
    288c:	4332      	orrs	r2, r6
    288e:	42a2      	cmp	r2, r4
    2890:	d301      	bcc.n	2896 <_ZN14blink_nrf518224main17h5d64dfdd3a94922fE+0x1b06>
    2892:	f000 fc10 	bl	30b6 <_ZN14blink_nrf518224main17h5d64dfdd3a94922fE+0x2326>
    2896:	5cbc      	ldrb	r4, [r7, r2]
    2898:	402b      	ands	r3, r5
    289a:	2101      	movs	r1, #1
    289c:	460d      	mov	r5, r1
    289e:	409d      	lsls	r5, r3
    28a0:	432c      	orrs	r4, r5
    28a2:	54bc      	strb	r4, [r7, r2]
    28a4:	460c      	mov	r4, r1
    28a6:	02a1      	lsls	r1, r4, #10
    28a8:	2200      	movs	r2, #0
    28aa:	9132      	str	r1, [sp, #200]	; 0xc8
    28ac:	9230      	str	r2, [sp, #192]	; 0xc0
    28ae:	547a      	strb	r2, [r7, r1]
    28b0:	4a09      	ldr	r2, [pc, #36]	; (28d8 <_ZN14blink_nrf518224main17h5d64dfdd3a94922fE+0x1b48>)
    28b2:	9931      	ldr	r1, [sp, #196]	; 0xc4
    28b4:	54b9      	strb	r1, [r7, r2]
    28b6:	2218      	movs	r2, #24
    28b8:	4639      	mov	r1, r7
    28ba:	9b2d      	ldr	r3, [sp, #180]	; 0xb4
    28bc:	1ad7      	subs	r7, r2, r3
    28be:	463a      	mov	r2, r7
    28c0:	902e      	str	r0, [sp, #184]	; 0xb8
    28c2:	4002      	ands	r2, r0
    28c4:	0112      	lsls	r2, r2, #4
    28c6:	4613      	mov	r3, r2
    28c8:	9621      	str	r6, [sp, #132]	; 0x84
    28ca:	4333      	orrs	r3, r6
    28cc:	982f      	ldr	r0, [sp, #188]	; 0xbc
    28ce:	4283      	cmp	r3, r0
    28d0:	9831      	ldr	r0, [sp, #196]	; 0xc4
    28d2:	d303      	bcc.n	28dc <_ZN14blink_nrf518224main17h5d64dfdd3a94922fE+0x1b4c>
    28d4:	e3f8      	b.n	30c8 <_ZN14blink_nrf518224main17h5d64dfdd3a94922fE+0x2338>
    28d6:	46c0      	nop			; (mov r8, r8)
    28d8:	00000401 	.word	0x00000401
    28dc:	5cce      	ldrb	r6, [r1, r3]
    28de:	4007      	ands	r7, r0
    28e0:	9429      	str	r4, [sp, #164]	; 0xa4
    28e2:	40bc      	lsls	r4, r7
    28e4:	4326      	orrs	r6, r4
    28e6:	54ce      	strb	r6, [r1, r3]
    28e8:	9b32      	ldr	r3, [sp, #200]	; 0xc8
    28ea:	9e30      	ldr	r6, [sp, #192]	; 0xc0
    28ec:	54ce      	strb	r6, [r1, r3]
    28ee:	4b05      	ldr	r3, [pc, #20]	; (2904 <_ZN14blink_nrf518224main17h5d64dfdd3a94922fE+0x1b74>)
    28f0:	54c8      	strb	r0, [r1, r3]
    28f2:	2361      	movs	r3, #97	; 0x61
    28f4:	9f2b      	ldr	r7, [sp, #172]	; 0xac
    28f6:	431f      	orrs	r7, r3
    28f8:	9e2f      	ldr	r6, [sp, #188]	; 0xbc
    28fa:	42b7      	cmp	r7, r6
    28fc:	463e      	mov	r6, r7
    28fe:	460f      	mov	r7, r1
    2900:	d302      	bcc.n	2908 <_ZN14blink_nrf518224main17h5d64dfdd3a94922fE+0x1b78>
    2902:	e3f3      	b.n	30ec <_ZN14blink_nrf518224main17h5d64dfdd3a94922fE+0x235c>
    2904:	00000401 	.word	0x00000401
    2908:	4631      	mov	r1, r6
    290a:	5c7e      	ldrb	r6, [r7, r1]
    290c:	432e      	orrs	r6, r5
    290e:	547e      	strb	r6, [r7, r1]
    2910:	9d30      	ldr	r5, [sp, #192]	; 0xc0
    2912:	9932      	ldr	r1, [sp, #200]	; 0xc8
    2914:	547d      	strb	r5, [r7, r1]
    2916:	4905      	ldr	r1, [pc, #20]	; (292c <_ZN14blink_nrf518224main17h5d64dfdd3a94922fE+0x1b9c>)
    2918:	5478      	strb	r0, [r7, r1]
    291a:	431a      	orrs	r2, r3
    291c:	992f      	ldr	r1, [sp, #188]	; 0xbc
    291e:	428a      	cmp	r2, r1
    2920:	4606      	mov	r6, r0
    2922:	4628      	mov	r0, r5
    2924:	9d32      	ldr	r5, [sp, #200]	; 0xc8
    2926:	d303      	bcc.n	2930 <_ZN14blink_nrf518224main17h5d64dfdd3a94922fE+0x1ba0>
    2928:	e3c5      	b.n	30b6 <_ZN14blink_nrf518224main17h5d64dfdd3a94922fE+0x2326>
    292a:	46c0      	nop			; (mov r8, r8)
    292c:	00000401 	.word	0x00000401
    2930:	5cb9      	ldrb	r1, [r7, r2]
    2932:	4321      	orrs	r1, r4
    2934:	54b9      	strb	r1, [r7, r2]
    2936:	5578      	strb	r0, [r7, r5]
    2938:	4908      	ldr	r1, [pc, #32]	; (295c <_ZN14blink_nrf518224main17h5d64dfdd3a94922fE+0x1bcc>)
    293a:	547e      	strb	r6, [r7, r1]
    293c:	9b2d      	ldr	r3, [sp, #180]	; 0xb4
    293e:	3311      	adds	r3, #17
    2940:	4619      	mov	r1, r3
    2942:	9a2e      	ldr	r2, [sp, #184]	; 0xb8
    2944:	4011      	ands	r1, r2
    2946:	0109      	lsls	r1, r1, #4
    2948:	2262      	movs	r2, #98	; 0x62
    294a:	922b      	str	r2, [sp, #172]	; 0xac
    294c:	4311      	orrs	r1, r2
    294e:	9a2f      	ldr	r2, [sp, #188]	; 0xbc
    2950:	4291      	cmp	r1, r2
    2952:	4602      	mov	r2, r0
    2954:	4628      	mov	r0, r5
    2956:	d303      	bcc.n	2960 <_ZN14blink_nrf518224main17h5d64dfdd3a94922fE+0x1bd0>
    2958:	e3b2      	b.n	30c0 <_ZN14blink_nrf518224main17h5d64dfdd3a94922fE+0x2330>
    295a:	46c0      	nop			; (mov r8, r8)
    295c:	00000401 	.word	0x00000401
    2960:	5c7c      	ldrb	r4, [r7, r1]
    2962:	9425      	str	r4, [sp, #148]	; 0x94
    2964:	4033      	ands	r3, r6
    2966:	4634      	mov	r4, r6
    2968:	9e29      	ldr	r6, [sp, #164]	; 0xa4
    296a:	4635      	mov	r5, r6
    296c:	409d      	lsls	r5, r3
    296e:	9b25      	ldr	r3, [sp, #148]	; 0x94
    2970:	431d      	orrs	r5, r3
    2972:	547d      	strb	r5, [r7, r1]
    2974:	4605      	mov	r5, r0
    2976:	557a      	strb	r2, [r7, r5]
    2978:	4907      	ldr	r1, [pc, #28]	; (2998 <_ZN14blink_nrf518224main17h5d64dfdd3a94922fE+0x1c08>)
    297a:	547c      	strb	r4, [r7, r1]
    297c:	2119      	movs	r1, #25
    297e:	982d      	ldr	r0, [sp, #180]	; 0xb4
    2980:	1a08      	subs	r0, r1, r0
    2982:	4601      	mov	r1, r0
    2984:	9b2e      	ldr	r3, [sp, #184]	; 0xb8
    2986:	4019      	ands	r1, r3
    2988:	0109      	lsls	r1, r1, #4
    298a:	9b2b      	ldr	r3, [sp, #172]	; 0xac
    298c:	4319      	orrs	r1, r3
    298e:	9b2f      	ldr	r3, [sp, #188]	; 0xbc
    2990:	4299      	cmp	r1, r3
    2992:	4614      	mov	r4, r2
    2994:	d302      	bcc.n	299c <_ZN14blink_nrf518224main17h5d64dfdd3a94922fE+0x1c0c>
    2996:	e393      	b.n	30c0 <_ZN14blink_nrf518224main17h5d64dfdd3a94922fE+0x2330>
    2998:	00000401 	.word	0x00000401
    299c:	5c7a      	ldrb	r2, [r7, r1]
    299e:	9b31      	ldr	r3, [sp, #196]	; 0xc4
    29a0:	4018      	ands	r0, r3
    29a2:	4086      	lsls	r6, r0
    29a4:	4316      	orrs	r6, r2
    29a6:	547e      	strb	r6, [r7, r1]
    29a8:	557c      	strb	r4, [r7, r5]
    29aa:	4807      	ldr	r0, [pc, #28]	; (29c8 <_ZN14blink_nrf518224main17h5d64dfdd3a94922fE+0x1c38>)
    29ac:	9e31      	ldr	r6, [sp, #196]	; 0xc4
    29ae:	543e      	strb	r6, [r7, r0]
    29b0:	f7fd fc6a 	bl	288 <_ZN14blink_nrf518227display14update_display17h4431b73682dcb2eaE>
    29b4:	2064      	movs	r0, #100	; 0x64
    29b6:	4621      	mov	r1, r4
    29b8:	f000 fe48 	bl	364c <_ZN4zinc3hal8nrf518228sleep_us17h401a33623f589258E>
    29bc:	9a26      	ldr	r2, [sp, #152]	; 0x98
    29be:	b2d0      	uxtb	r0, r2
    29c0:	1c51      	adds	r1, r2, #1
    29c2:	2805      	cmp	r0, #5
    29c4:	d303      	bcc.n	29ce <_ZN14blink_nrf518224main17h5d64dfdd3a94922fE+0x1c3e>
    29c6:	e001      	b.n	29cc <_ZN14blink_nrf518224main17h5d64dfdd3a94922fE+0x1c3c>
    29c8:	00000401 	.word	0x00000401
    29cc:	4611      	mov	r1, r2
    29ce:	2805      	cmp	r0, #5
    29d0:	9c2f      	ldr	r4, [sp, #188]	; 0xbc
    29d2:	d200      	bcs.n	29d6 <_ZN14blink_nrf518224main17h5d64dfdd3a94922fE+0x1c46>
    29d4:	e74f      	b.n	2876 <_ZN14blink_nrf518224main17h5d64dfdd3a94922fE+0x1ae6>
    29d6:	2622      	movs	r6, #34	; 0x22
    29d8:	2021      	movs	r0, #33	; 0x21
    29da:	9922      	ldr	r1, [sp, #136]	; 0x88
    29dc:	1a09      	subs	r1, r1, r0
    29de:	b2c9      	uxtb	r1, r1
    29e0:	9b28      	ldr	r3, [sp, #160]	; 0xa0
    29e2:	4319      	orrs	r1, r3
    29e4:	5c7a      	ldrb	r2, [r7, r1]
    29e6:	2410      	movs	r4, #16
    29e8:	942d      	str	r4, [sp, #180]	; 0xb4
    29ea:	4322      	orrs	r2, r4
    29ec:	547a      	strb	r2, [r7, r1]
    29ee:	9930      	ldr	r1, [sp, #192]	; 0xc0
    29f0:	5579      	strb	r1, [r7, r5]
    29f2:	490d      	ldr	r1, [pc, #52]	; (2a28 <_ZN14blink_nrf518224main17h5d64dfdd3a94922fE+0x1c98>)
    29f4:	462c      	mov	r4, r5
    29f6:	9d31      	ldr	r5, [sp, #196]	; 0xc4
    29f8:	547d      	strb	r5, [r7, r1]
    29fa:	3040      	adds	r0, #64	; 0x40
    29fc:	b2c0      	uxtb	r0, r0
    29fe:	4318      	orrs	r0, r3
    2a00:	5c3a      	ldrb	r2, [r7, r0]
    2a02:	9b2d      	ldr	r3, [sp, #180]	; 0xb4
    2a04:	431a      	orrs	r2, r3
    2a06:	543a      	strb	r2, [r7, r0]
    2a08:	9830      	ldr	r0, [sp, #192]	; 0xc0
    2a0a:	5538      	strb	r0, [r7, r4]
    2a0c:	547d      	strb	r5, [r7, r1]
    2a0e:	9c30      	ldr	r4, [sp, #192]	; 0xc0
    2a10:	f7fd fc3a 	bl	288 <_ZN14blink_nrf518227display14update_display17h4431b73682dcb2eaE>
    2a14:	2064      	movs	r0, #100	; 0x64
    2a16:	4621      	mov	r1, r4
    2a18:	f000 fe18 	bl	364c <_ZN4zinc3hal8nrf518228sleep_us17h401a33623f589258E>
    2a1c:	b2f0      	uxtb	r0, r6
    2a1e:	1c71      	adds	r1, r6, #1
    2a20:	283a      	cmp	r0, #58	; 0x3a
    2a22:	d304      	bcc.n	2a2e <_ZN14blink_nrf518224main17h5d64dfdd3a94922fE+0x1c9e>
    2a24:	e002      	b.n	2a2c <_ZN14blink_nrf518224main17h5d64dfdd3a94922fE+0x1c9c>
    2a26:	46c0      	nop			; (mov r8, r8)
    2a28:	00000401 	.word	0x00000401
    2a2c:	4631      	mov	r1, r6
    2a2e:	283a      	cmp	r0, #58	; 0x3a
    2a30:	4630      	mov	r0, r6
    2a32:	460e      	mov	r6, r1
    2a34:	9d32      	ldr	r5, [sp, #200]	; 0xc8
    2a36:	d3d0      	bcc.n	29da <_ZN14blink_nrf518224main17h5d64dfdd3a94922fE+0x1c4a>
    2a38:	9b05      	ldr	r3, [sp, #20]
    2a3a:	9d2f      	ldr	r5, [sp, #188]	; 0xbc
    2a3c:	9821      	ldr	r0, [sp, #132]	; 0x84
    2a3e:	01c0      	lsls	r0, r0, #7
    2a40:	0119      	lsls	r1, r3, #4
    2a42:	4001      	ands	r1, r0
    2a44:	2206      	movs	r2, #6
    2a46:	430a      	orrs	r2, r1
    2a48:	1c58      	adds	r0, r3, #1
    2a4a:	902d      	str	r0, [sp, #180]	; 0xb4
    2a4c:	42aa      	cmp	r2, r5
    2a4e:	461e      	mov	r6, r3
    2a50:	d300      	bcc.n	2a54 <_ZN14blink_nrf518224main17h5d64dfdd3a94922fE+0x1cc4>
    2a52:	e350      	b.n	30f6 <_ZN14blink_nrf518224main17h5d64dfdd3a94922fE+0x2366>
    2a54:	5cbb      	ldrb	r3, [r7, r2]
    2a56:	9c31      	ldr	r4, [sp, #196]	; 0xc4
    2a58:	4026      	ands	r6, r4
    2a5a:	9829      	ldr	r0, [sp, #164]	; 0xa4
    2a5c:	40b0      	lsls	r0, r6
    2a5e:	4626      	mov	r6, r4
    2a60:	4303      	orrs	r3, r0
    2a62:	54bb      	strb	r3, [r7, r2]
    2a64:	9c30      	ldr	r4, [sp, #192]	; 0xc0
    2a66:	9b32      	ldr	r3, [sp, #200]	; 0xc8
    2a68:	54fc      	strb	r4, [r7, r3]
    2a6a:	4a03      	ldr	r2, [pc, #12]	; (2a78 <_ZN14blink_nrf518224main17h5d64dfdd3a94922fE+0x1ce8>)
    2a6c:	54be      	strb	r6, [r7, r2]
    2a6e:	227a      	movs	r2, #122	; 0x7a
    2a70:	4311      	orrs	r1, r2
    2a72:	42a9      	cmp	r1, r5
    2a74:	d302      	bcc.n	2a7c <_ZN14blink_nrf518224main17h5d64dfdd3a94922fE+0x1cec>
    2a76:	e323      	b.n	30c0 <_ZN14blink_nrf518224main17h5d64dfdd3a94922fE+0x2330>
    2a78:	00000401 	.word	0x00000401
    2a7c:	5c7a      	ldrb	r2, [r7, r1]
    2a7e:	4302      	orrs	r2, r0
    2a80:	547a      	strb	r2, [r7, r1]
    2a82:	54fc      	strb	r4, [r7, r3]
    2a84:	4806      	ldr	r0, [pc, #24]	; (2aa0 <_ZN14blink_nrf518224main17h5d64dfdd3a94922fE+0x1d10>)
    2a86:	543e      	strb	r6, [r7, r0]
    2a88:	f7fd fbfe 	bl	288 <_ZN14blink_nrf518227display14update_display17h4431b73682dcb2eaE>
    2a8c:	2064      	movs	r0, #100	; 0x64
    2a8e:	4621      	mov	r1, r4
    2a90:	f000 fddc 	bl	364c <_ZN4zinc3hal8nrf518228sleep_us17h401a33623f589258E>
    2a94:	992d      	ldr	r1, [sp, #180]	; 0xb4
    2a96:	b2c8      	uxtb	r0, r1
    2a98:	282e      	cmp	r0, #46	; 0x2e
    2a9a:	460b      	mov	r3, r1
    2a9c:	d3ce      	bcc.n	2a3c <_ZN14blink_nrf518224main17h5d64dfdd3a94922fE+0x1cac>
    2a9e:	e001      	b.n	2aa4 <_ZN14blink_nrf518224main17h5d64dfdd3a94922fE+0x1d14>
    2aa0:	00000401 	.word	0x00000401
    2aa4:	4832      	ldr	r0, [pc, #200]	; (2b70 <_ZN14blink_nrf518224main17h5d64dfdd3a94922fE+0x1de0>)
    2aa6:	5c39      	ldrb	r1, [r7, r0]
    2aa8:	2520      	movs	r5, #32
    2aaa:	4329      	orrs	r1, r5
    2aac:	5439      	strb	r1, [r7, r0]
    2aae:	4831      	ldr	r0, [pc, #196]	; (2b74 <_ZN14blink_nrf518224main17h5d64dfdd3a94922fE+0x1de4>)
    2ab0:	5c39      	ldrb	r1, [r7, r0]
    2ab2:	4329      	orrs	r1, r5
    2ab4:	5439      	strb	r1, [r7, r0]
    2ab6:	9e30      	ldr	r6, [sp, #192]	; 0xc0
    2ab8:	9c32      	ldr	r4, [sp, #200]	; 0xc8
    2aba:	553e      	strb	r6, [r7, r4]
    2abc:	482e      	ldr	r0, [pc, #184]	; (2b78 <_ZN14blink_nrf518224main17h5d64dfdd3a94922fE+0x1de8>)
    2abe:	902b      	str	r0, [sp, #172]	; 0xac
    2ac0:	9931      	ldr	r1, [sp, #196]	; 0xc4
    2ac2:	5439      	strb	r1, [r7, r0]
    2ac4:	f7fd fbe0 	bl	288 <_ZN14blink_nrf518227display14update_display17h4431b73682dcb2eaE>
    2ac8:	2064      	movs	r0, #100	; 0x64
    2aca:	902d      	str	r0, [sp, #180]	; 0xb4
    2acc:	4631      	mov	r1, r6
    2ace:	f000 fdbd 	bl	364c <_ZN4zinc3hal8nrf518228sleep_us17h401a33623f589258E>
    2ad2:	482a      	ldr	r0, [pc, #168]	; (2b7c <_ZN14blink_nrf518224main17h5d64dfdd3a94922fE+0x1dec>)
    2ad4:	5c39      	ldrb	r1, [r7, r0]
    2ad6:	4329      	orrs	r1, r5
    2ad8:	5439      	strb	r1, [r7, r0]
    2ada:	205f      	movs	r0, #95	; 0x5f
    2adc:	00c0      	lsls	r0, r0, #3
    2ade:	5c39      	ldrb	r1, [r7, r0]
    2ae0:	4329      	orrs	r1, r5
    2ae2:	5439      	strb	r1, [r7, r0]
    2ae4:	553e      	strb	r6, [r7, r4]
    2ae6:	9831      	ldr	r0, [sp, #196]	; 0xc4
    2ae8:	992b      	ldr	r1, [sp, #172]	; 0xac
    2aea:	5478      	strb	r0, [r7, r1]
    2aec:	f7fd fbcc 	bl	288 <_ZN14blink_nrf518227display14update_display17h4431b73682dcb2eaE>
    2af0:	982d      	ldr	r0, [sp, #180]	; 0xb4
    2af2:	4631      	mov	r1, r6
    2af4:	f000 fdaa 	bl	364c <_ZN4zinc3hal8nrf518228sleep_us17h401a33623f589258E>
    2af8:	2051      	movs	r0, #81	; 0x51
    2afa:	00c0      	lsls	r0, r0, #3
    2afc:	5c39      	ldrb	r1, [r7, r0]
    2afe:	4329      	orrs	r1, r5
    2b00:	5439      	strb	r1, [r7, r0]
    2b02:	481f      	ldr	r0, [pc, #124]	; (2b80 <_ZN14blink_nrf518224main17h5d64dfdd3a94922fE+0x1df0>)
    2b04:	5c39      	ldrb	r1, [r7, r0]
    2b06:	4329      	orrs	r1, r5
    2b08:	5439      	strb	r1, [r7, r0]
    2b0a:	553e      	strb	r6, [r7, r4]
    2b0c:	9c2b      	ldr	r4, [sp, #172]	; 0xac
    2b0e:	9831      	ldr	r0, [sp, #196]	; 0xc4
    2b10:	5538      	strb	r0, [r7, r4]
    2b12:	f7fd fbb9 	bl	288 <_ZN14blink_nrf518227display14update_display17h4431b73682dcb2eaE>
    2b16:	982d      	ldr	r0, [sp, #180]	; 0xb4
    2b18:	4631      	mov	r1, r6
    2b1a:	f000 fd97 	bl	364c <_ZN4zinc3hal8nrf518228sleep_us17h401a33623f589258E>
    2b1e:	4819      	ldr	r0, [pc, #100]	; (2b84 <_ZN14blink_nrf518224main17h5d64dfdd3a94922fE+0x1df4>)
    2b20:	5c39      	ldrb	r1, [r7, r0]
    2b22:	4329      	orrs	r1, r5
    2b24:	5439      	strb	r1, [r7, r0]
    2b26:	4818      	ldr	r0, [pc, #96]	; (2b88 <_ZN14blink_nrf518224main17h5d64dfdd3a94922fE+0x1df8>)
    2b28:	5c39      	ldrb	r1, [r7, r0]
    2b2a:	4329      	orrs	r1, r5
    2b2c:	5439      	strb	r1, [r7, r0]
    2b2e:	9832      	ldr	r0, [sp, #200]	; 0xc8
    2b30:	543e      	strb	r6, [r7, r0]
    2b32:	9831      	ldr	r0, [sp, #196]	; 0xc4
    2b34:	5538      	strb	r0, [r7, r4]
    2b36:	f7fd fba7 	bl	288 <_ZN14blink_nrf518227display14update_display17h4431b73682dcb2eaE>
    2b3a:	9c2d      	ldr	r4, [sp, #180]	; 0xb4
    2b3c:	4620      	mov	r0, r4
    2b3e:	4631      	mov	r1, r6
    2b40:	f000 fd84 	bl	364c <_ZN4zinc3hal8nrf518228sleep_us17h401a33623f589258E>
    2b44:	4811      	ldr	r0, [pc, #68]	; (2b8c <_ZN14blink_nrf518224main17h5d64dfdd3a94922fE+0x1dfc>)
    2b46:	5c39      	ldrb	r1, [r7, r0]
    2b48:	4329      	orrs	r1, r5
    2b4a:	5439      	strb	r1, [r7, r0]
    2b4c:	4810      	ldr	r0, [pc, #64]	; (2b90 <_ZN14blink_nrf518224main17h5d64dfdd3a94922fE+0x1e00>)
    2b4e:	5c39      	ldrb	r1, [r7, r0]
    2b50:	4329      	orrs	r1, r5
    2b52:	4635      	mov	r5, r6
    2b54:	5439      	strb	r1, [r7, r0]
    2b56:	9832      	ldr	r0, [sp, #200]	; 0xc8
    2b58:	543d      	strb	r5, [r7, r0]
    2b5a:	9e31      	ldr	r6, [sp, #196]	; 0xc4
    2b5c:	992b      	ldr	r1, [sp, #172]	; 0xac
    2b5e:	547e      	strb	r6, [r7, r1]
    2b60:	f7fd fb92 	bl	288 <_ZN14blink_nrf518227display14update_display17h4431b73682dcb2eaE>
    2b64:	4620      	mov	r0, r4
    2b66:	4629      	mov	r1, r5
    2b68:	f000 fd70 	bl	364c <_ZN4zinc3hal8nrf518228sleep_us17h401a33623f589258E>
    2b6c:	991f      	ldr	r1, [sp, #124]	; 0x7c
    2b6e:	e011      	b.n	2b94 <_ZN14blink_nrf518224main17h5d64dfdd3a94922fE+0x1e04>
    2b70:	00000286 	.word	0x00000286
    2b74:	000002f9 	.word	0x000002f9
    2b78:	00000401 	.word	0x00000401
    2b7c:	00000287 	.word	0x00000287
    2b80:	000002f7 	.word	0x000002f7
    2b84:	00000289 	.word	0x00000289
    2b88:	000002f6 	.word	0x000002f6
    2b8c:	0000028a 	.word	0x0000028a
    2b90:	000002f5 	.word	0x000002f5
    2b94:	462b      	mov	r3, r5
    2b96:	332c      	adds	r3, #44	; 0x2c
    2b98:	4618      	mov	r0, r3
    2b9a:	9a2e      	ldr	r2, [sp, #184]	; 0xb8
    2b9c:	4010      	ands	r0, r2
    2b9e:	0104      	lsls	r4, r0, #4
    2ba0:	4622      	mov	r2, r4
    2ba2:	430a      	orrs	r2, r1
    2ba4:	982f      	ldr	r0, [sp, #188]	; 0xbc
    2ba6:	4282      	cmp	r2, r0
    2ba8:	d300      	bcc.n	2bac <_ZN14blink_nrf518224main17h5d64dfdd3a94922fE+0x1e1c>
    2baa:	e284      	b.n	30b6 <_ZN14blink_nrf518224main17h5d64dfdd3a94922fE+0x2326>
    2bac:	5cb9      	ldrb	r1, [r7, r2]
    2bae:	4033      	ands	r3, r6
    2bb0:	2601      	movs	r6, #1
    2bb2:	4630      	mov	r0, r6
    2bb4:	4098      	lsls	r0, r3
    2bb6:	4301      	orrs	r1, r0
    2bb8:	54b9      	strb	r1, [r7, r2]
    2bba:	962d      	str	r6, [sp, #180]	; 0xb4
    2bbc:	02b1      	lsls	r1, r6, #10
    2bbe:	2200      	movs	r2, #0
    2bc0:	912b      	str	r1, [sp, #172]	; 0xac
    2bc2:	9232      	str	r2, [sp, #200]	; 0xc8
    2bc4:	547a      	strb	r2, [r7, r1]
    2bc6:	4a09      	ldr	r2, [pc, #36]	; (2bec <_ZN14blink_nrf518224main17h5d64dfdd3a94922fE+0x1e5c>)
    2bc8:	9931      	ldr	r1, [sp, #196]	; 0xc4
    2bca:	54b9      	strb	r1, [r7, r2]
    2bcc:	222c      	movs	r2, #44	; 0x2c
    2bce:	4639      	mov	r1, r7
    2bd0:	9530      	str	r5, [sp, #192]	; 0xc0
    2bd2:	1b57      	subs	r7, r2, r5
    2bd4:	463a      	mov	r2, r7
    2bd6:	9b2e      	ldr	r3, [sp, #184]	; 0xb8
    2bd8:	401a      	ands	r2, r3
    2bda:	0112      	lsls	r2, r2, #4
    2bdc:	4613      	mov	r3, r2
    2bde:	9d1f      	ldr	r5, [sp, #124]	; 0x7c
    2be0:	432b      	orrs	r3, r5
    2be2:	9d2f      	ldr	r5, [sp, #188]	; 0xbc
    2be4:	42ab      	cmp	r3, r5
    2be6:	9d31      	ldr	r5, [sp, #196]	; 0xc4
    2be8:	d302      	bcc.n	2bf0 <_ZN14blink_nrf518224main17h5d64dfdd3a94922fE+0x1e60>
    2bea:	e26d      	b.n	30c8 <_ZN14blink_nrf518224main17h5d64dfdd3a94922fE+0x2338>
    2bec:	00000401 	.word	0x00000401
    2bf0:	5cce      	ldrb	r6, [r1, r3]
    2bf2:	9628      	str	r6, [sp, #160]	; 0xa0
    2bf4:	402f      	ands	r7, r5
    2bf6:	9d2d      	ldr	r5, [sp, #180]	; 0xb4
    2bf8:	40bd      	lsls	r5, r7
    2bfa:	9e28      	ldr	r6, [sp, #160]	; 0xa0
    2bfc:	432e      	orrs	r6, r5
    2bfe:	54ce      	strb	r6, [r1, r3]
    2c00:	9b2b      	ldr	r3, [sp, #172]	; 0xac
    2c02:	9e32      	ldr	r6, [sp, #200]	; 0xc8
    2c04:	54ce      	strb	r6, [r1, r3]
    2c06:	4b05      	ldr	r3, [pc, #20]	; (2c1c <_ZN14blink_nrf518224main17h5d64dfdd3a94922fE+0x1e8c>)
    2c08:	9e31      	ldr	r6, [sp, #196]	; 0xc4
    2c0a:	54ce      	strb	r6, [r1, r3]
    2c0c:	2673      	movs	r6, #115	; 0x73
    2c0e:	4334      	orrs	r4, r6
    2c10:	9b2f      	ldr	r3, [sp, #188]	; 0xbc
    2c12:	429c      	cmp	r4, r3
    2c14:	460f      	mov	r7, r1
    2c16:	d303      	bcc.n	2c20 <_ZN14blink_nrf518224main17h5d64dfdd3a94922fE+0x1e90>
    2c18:	e272      	b.n	3100 <_ZN14blink_nrf518224main17h5d64dfdd3a94922fE+0x2370>
    2c1a:	46c0      	nop			; (mov r8, r8)
    2c1c:	00000401 	.word	0x00000401
    2c20:	5d3b      	ldrb	r3, [r7, r4]
    2c22:	4303      	orrs	r3, r0
    2c24:	553b      	strb	r3, [r7, r4]
    2c26:	992b      	ldr	r1, [sp, #172]	; 0xac
    2c28:	9b32      	ldr	r3, [sp, #200]	; 0xc8
    2c2a:	547b      	strb	r3, [r7, r1]
    2c2c:	48fe      	ldr	r0, [pc, #1016]	; (3028 <_ZN14blink_nrf518224main17h5d64dfdd3a94922fE+0x2298>)
    2c2e:	9c31      	ldr	r4, [sp, #196]	; 0xc4
    2c30:	543c      	strb	r4, [r7, r0]
    2c32:	9628      	str	r6, [sp, #160]	; 0xa0
    2c34:	4332      	orrs	r2, r6
    2c36:	982f      	ldr	r0, [sp, #188]	; 0xbc
    2c38:	4282      	cmp	r2, r0
    2c3a:	d300      	bcc.n	2c3e <_ZN14blink_nrf518224main17h5d64dfdd3a94922fE+0x1eae>
    2c3c:	e23b      	b.n	30b6 <_ZN14blink_nrf518224main17h5d64dfdd3a94922fE+0x2326>
    2c3e:	5cb8      	ldrb	r0, [r7, r2]
    2c40:	4328      	orrs	r0, r5
    2c42:	54b8      	strb	r0, [r7, r2]
    2c44:	547b      	strb	r3, [r7, r1]
    2c46:	48f8      	ldr	r0, [pc, #992]	; (3028 <_ZN14blink_nrf518224main17h5d64dfdd3a94922fE+0x2298>)
    2c48:	9a31      	ldr	r2, [sp, #196]	; 0xc4
    2c4a:	543a      	strb	r2, [r7, r0]
    2c4c:	9d30      	ldr	r5, [sp, #192]	; 0xc0
    2c4e:	4628      	mov	r0, r5
    2c50:	302d      	adds	r0, #45	; 0x2d
    2c52:	4601      	mov	r1, r0
    2c54:	9c2e      	ldr	r4, [sp, #184]	; 0xb8
    2c56:	4021      	ands	r1, r4
    2c58:	0109      	lsls	r1, r1, #4
    2c5a:	2274      	movs	r2, #116	; 0x74
    2c5c:	4311      	orrs	r1, r2
    2c5e:	9b2f      	ldr	r3, [sp, #188]	; 0xbc
    2c60:	4299      	cmp	r1, r3
    2c62:	d300      	bcc.n	2c66 <_ZN14blink_nrf518224main17h5d64dfdd3a94922fE+0x1ed6>
    2c64:	e22c      	b.n	30c0 <_ZN14blink_nrf518224main17h5d64dfdd3a94922fE+0x2330>
    2c66:	5c7b      	ldrb	r3, [r7, r1]
    2c68:	9326      	str	r3, [sp, #152]	; 0x98
    2c6a:	9e31      	ldr	r6, [sp, #196]	; 0xc4
    2c6c:	4030      	ands	r0, r6
    2c6e:	9b2d      	ldr	r3, [sp, #180]	; 0xb4
    2c70:	4083      	lsls	r3, r0
    2c72:	9826      	ldr	r0, [sp, #152]	; 0x98
    2c74:	4303      	orrs	r3, r0
    2c76:	547b      	strb	r3, [r7, r1]
    2c78:	9832      	ldr	r0, [sp, #200]	; 0xc8
    2c7a:	992b      	ldr	r1, [sp, #172]	; 0xac
    2c7c:	5478      	strb	r0, [r7, r1]
    2c7e:	48ea      	ldr	r0, [pc, #936]	; (3028 <_ZN14blink_nrf518224main17h5d64dfdd3a94922fE+0x2298>)
    2c80:	543e      	strb	r6, [r7, r0]
    2c82:	202d      	movs	r0, #45	; 0x2d
    2c84:	1b40      	subs	r0, r0, r5
    2c86:	4601      	mov	r1, r0
    2c88:	4021      	ands	r1, r4
    2c8a:	0109      	lsls	r1, r1, #4
    2c8c:	4311      	orrs	r1, r2
    2c8e:	9b2f      	ldr	r3, [sp, #188]	; 0xbc
    2c90:	4299      	cmp	r1, r3
    2c92:	9c1f      	ldr	r4, [sp, #124]	; 0x7c
    2c94:	d300      	bcc.n	2c98 <_ZN14blink_nrf518224main17h5d64dfdd3a94922fE+0x1f08>
    2c96:	e213      	b.n	30c0 <_ZN14blink_nrf518224main17h5d64dfdd3a94922fE+0x2330>
    2c98:	9226      	str	r2, [sp, #152]	; 0x98
    2c9a:	5c7a      	ldrb	r2, [r7, r1]
    2c9c:	4030      	ands	r0, r6
    2c9e:	9b2d      	ldr	r3, [sp, #180]	; 0xb4
    2ca0:	4083      	lsls	r3, r0
    2ca2:	4313      	orrs	r3, r2
    2ca4:	547b      	strb	r3, [r7, r1]
    2ca6:	9d32      	ldr	r5, [sp, #200]	; 0xc8
    2ca8:	982b      	ldr	r0, [sp, #172]	; 0xac
    2caa:	543d      	strb	r5, [r7, r0]
    2cac:	48de      	ldr	r0, [pc, #888]	; (3028 <_ZN14blink_nrf518224main17h5d64dfdd3a94922fE+0x2298>)
    2cae:	543e      	strb	r6, [r7, r0]
    2cb0:	f7fd faea 	bl	288 <_ZN14blink_nrf518227display14update_display17h4431b73682dcb2eaE>
    2cb4:	2064      	movs	r0, #100	; 0x64
    2cb6:	4629      	mov	r1, r5
