
target/thumbv6m-none-eabi/release/blink_nrf51822:     file format elf32-littlearm


Disassembly of section .text:

00000090 <_ZN4core3fmt5Write10write_char17h0128e4d60f9539d5E>:
      90:	b5f0      	push	{r4, r5, r6, r7, lr}
      92:	b083      	sub	sp, #12
      94:	4604      	mov	r4, r0
      96:	2980      	cmp	r1, #128	; 0x80
      98:	d204      	bcs.n	a4 <_ZN4core3fmt5Write10write_char17h0128e4d60f9539d5E+0x14>
      9a:	2503      	movs	r5, #3
      9c:	2200      	movs	r2, #0
      9e:	4613      	mov	r3, r2
      a0:	4616      	mov	r6, r2
      a2:	e036      	b.n	112 <_ZN4core3fmt5Write10write_char17h0128e4d60f9539d5E+0x82>
      a4:	0ac8      	lsrs	r0, r1, #11
      a6:	2280      	movs	r2, #128	; 0x80
      a8:	2800      	cmp	r0, #0
      aa:	d10c      	bne.n	c6 <_ZN4core3fmt5Write10write_char17h0128e4d60f9539d5E+0x36>
      ac:	203f      	movs	r0, #63	; 0x3f
      ae:	4008      	ands	r0, r1
      b0:	4310      	orrs	r0, r2
      b2:	0989      	lsrs	r1, r1, #6
      b4:	231f      	movs	r3, #31
      b6:	400b      	ands	r3, r1
      b8:	3240      	adds	r2, #64	; 0x40
      ba:	431a      	orrs	r2, r3
      bc:	2502      	movs	r5, #2
      be:	2300      	movs	r3, #0
      c0:	4601      	mov	r1, r0
      c2:	461e      	mov	r6, r3
      c4:	e025      	b.n	112 <_ZN4core3fmt5Write10write_char17h0128e4d60f9539d5E+0x82>
      c6:	0c08      	lsrs	r0, r1, #16
      c8:	2800      	cmp	r0, #0
      ca:	d10f      	bne.n	ec <_ZN4core3fmt5Write10write_char17h0128e4d60f9539d5E+0x5c>
      cc:	233f      	movs	r3, #63	; 0x3f
      ce:	4608      	mov	r0, r1
      d0:	4018      	ands	r0, r3
      d2:	4310      	orrs	r0, r2
      d4:	098f      	lsrs	r7, r1, #6
      d6:	401f      	ands	r7, r3
      d8:	4317      	orrs	r7, r2
      da:	0b09      	lsrs	r1, r1, #12
      dc:	250f      	movs	r5, #15
      de:	400d      	ands	r5, r1
      e0:	3260      	adds	r2, #96	; 0x60
      e2:	4613      	mov	r3, r2
      e4:	432b      	orrs	r3, r5
      e6:	2501      	movs	r5, #1
      e8:	2600      	movs	r6, #0
      ea:	e010      	b.n	10e <_ZN4core3fmt5Write10write_char17h0128e4d60f9539d5E+0x7e>
      ec:	253f      	movs	r5, #63	; 0x3f
      ee:	4608      	mov	r0, r1
      f0:	4028      	ands	r0, r5
      f2:	4310      	orrs	r0, r2
      f4:	098f      	lsrs	r7, r1, #6
      f6:	402f      	ands	r7, r5
      f8:	4317      	orrs	r7, r2
      fa:	0b0b      	lsrs	r3, r1, #12
      fc:	402b      	ands	r3, r5
      fe:	4313      	orrs	r3, r2
     100:	0c89      	lsrs	r1, r1, #18
     102:	2507      	movs	r5, #7
     104:	400d      	ands	r5, r1
     106:	3270      	adds	r2, #112	; 0x70
     108:	4616      	mov	r6, r2
     10a:	432e      	orrs	r6, r5
     10c:	2500      	movs	r5, #0
     10e:	4601      	mov	r1, r0
     110:	463a      	mov	r2, r7
     112:	a801      	add	r0, sp, #4
     114:	7006      	strb	r6, [r0, #0]
     116:	7043      	strb	r3, [r0, #1]
     118:	7082      	strb	r2, [r0, #2]
     11a:	70c1      	strb	r1, [r0, #3]
     11c:	9502      	str	r5, [sp, #8]
     11e:	f003 faf0 	bl	3702 <_ZN4core4char10EncodeUtf88as_slice17h2d6d8978003edb2dE>
     122:	4602      	mov	r2, r0
     124:	460b      	mov	r3, r1
     126:	4620      	mov	r0, r4
     128:	4611      	mov	r1, r2
     12a:	461a      	mov	r2, r3
     12c:	f003 f8e4 	bl	32f8 <_ZN68_$LT$zinc..hal..nrf51822..uart..Uart$u20$as$u20$core..fmt..Write$GT$9write_str17h3e998e6dc459d9e1E>
     130:	b003      	add	sp, #12
     132:	bdf0      	pop	{r4, r5, r6, r7, pc}

00000134 <_ZN4core3fmt5Write9write_fmt17hee6d9e5d888dde89E>:
     134:	b570      	push	{r4, r5, r6, lr}
     136:	b08e      	sub	sp, #56	; 0x38
     138:	ab08      	add	r3, sp, #32
     13a:	461a      	mov	r2, r3
     13c:	c970      	ldmia	r1!, {r4, r5, r6}
     13e:	c270      	stmia	r2!, {r4, r5, r6}
     140:	c970      	ldmia	r1!, {r4, r5, r6}
     142:	c270      	stmia	r2!, {r4, r5, r6}
     144:	9007      	str	r0, [sp, #28]
     146:	aa01      	add	r2, sp, #4
     148:	4610      	mov	r0, r2
     14a:	cb32      	ldmia	r3!, {r1, r4, r5}
     14c:	c032      	stmia	r0!, {r1, r4, r5}
     14e:	cb32      	ldmia	r3!, {r1, r4, r5}
     150:	c032      	stmia	r0!, {r1, r4, r5}
     152:	a807      	add	r0, sp, #28
     154:	4902      	ldr	r1, [pc, #8]	; (160 <_ZN4core3fmt5Write9write_fmt17hee6d9e5d888dde89E+0x2c>)
     156:	f003 fbf5 	bl	3944 <_ZN4core3fmt5write17h56e3d15cb4a744eaE>
     15a:	b00e      	add	sp, #56	; 0x38
     15c:	bd70      	pop	{r4, r5, r6, pc}
     15e:	46c0      	nop			; (mov r8, r8)
     160:	00006430 	.word	0x00006430

00000164 <_ZN4drop17h6724d85a51cca60bE>:
     164:	4770      	bx	lr

00000166 <_ZN55_$LT$$RF$$u27$a$u20$T$u20$as$u20$core..fmt..Display$GT$3fmt17h89c56492ecb0d40cE>:
     166:	b580      	push	{r7, lr}
     168:	460a      	mov	r2, r1
     16a:	6803      	ldr	r3, [r0, #0]
     16c:	6841      	ldr	r1, [r0, #4]
     16e:	4618      	mov	r0, r3
     170:	f004 f864 	bl	423c <_ZN42_$LT$str$u20$as$u20$core..fmt..Display$GT$3fmt17h44772e7796928d68E>
     174:	bd80      	pop	{r7, pc}

00000176 <_ZN96_$LT$core..fmt..Write..write_fmt..Adapter$LT$$u27$a$C$$u20$T$GT$$u20$as$u20$core..fmt..Write$GT$10write_char17h86637d37ff13ae87E>:
     176:	b580      	push	{r7, lr}
     178:	6800      	ldr	r0, [r0, #0]
     17a:	f7ff ff89 	bl	90 <_ZN4core3fmt5Write10write_char17h0128e4d60f9539d5E>
     17e:	bd80      	pop	{r7, pc}

00000180 <_ZN96_$LT$core..fmt..Write..write_fmt..Adapter$LT$$u27$a$C$$u20$T$GT$$u20$as$u20$core..fmt..Write$GT$9write_fmt17h5745af23a80b4d8dE>:
     180:	b570      	push	{r4, r5, r6, lr}
     182:	b09a      	sub	sp, #104	; 0x68
     184:	aa07      	add	r2, sp, #28
     186:	4613      	mov	r3, r2
     188:	c970      	ldmia	r1!, {r4, r5, r6}
     18a:	c370      	stmia	r3!, {r4, r5, r6}
     18c:	c970      	ldmia	r1!, {r4, r5, r6}
     18e:	c370      	stmia	r3!, {r4, r5, r6}
     190:	6800      	ldr	r0, [r0, #0]
     192:	a901      	add	r1, sp, #4
     194:	460b      	mov	r3, r1
     196:	ca70      	ldmia	r2!, {r4, r5, r6}
     198:	c370      	stmia	r3!, {r4, r5, r6}
     19a:	ca70      	ldmia	r2!, {r4, r5, r6}
     19c:	c370      	stmia	r3!, {r4, r5, r6}
     19e:	ab14      	add	r3, sp, #80	; 0x50
     1a0:	461a      	mov	r2, r3
     1a2:	c970      	ldmia	r1!, {r4, r5, r6}
     1a4:	c270      	stmia	r2!, {r4, r5, r6}
     1a6:	c970      	ldmia	r1!, {r4, r5, r6}
     1a8:	c270      	stmia	r2!, {r4, r5, r6}
     1aa:	9013      	str	r0, [sp, #76]	; 0x4c
     1ac:	aa0d      	add	r2, sp, #52	; 0x34
     1ae:	4610      	mov	r0, r2
     1b0:	cb32      	ldmia	r3!, {r1, r4, r5}
     1b2:	c032      	stmia	r0!, {r1, r4, r5}
     1b4:	cb32      	ldmia	r3!, {r1, r4, r5}
     1b6:	c032      	stmia	r0!, {r1, r4, r5}
     1b8:	a813      	add	r0, sp, #76	; 0x4c
     1ba:	4902      	ldr	r1, [pc, #8]	; (1c4 <_ZN96_$LT$core..fmt..Write..write_fmt..Adapter$LT$$u27$a$C$$u20$T$GT$$u20$as$u20$core..fmt..Write$GT$9write_fmt17h5745af23a80b4d8dE+0x44>)
     1bc:	f003 fbc2 	bl	3944 <_ZN4core3fmt5write17h56e3d15cb4a744eaE>
     1c0:	b01a      	add	sp, #104	; 0x68
     1c2:	bd70      	pop	{r4, r5, r6, pc}
     1c4:	00006430 	.word	0x00006430

000001c8 <_ZN96_$LT$core..fmt..Write..write_fmt..Adapter$LT$$u27$a$C$$u20$T$GT$$u20$as$u20$core..fmt..Write$GT$9write_str17ha09fbcfe950b7de2E>:
     1c8:	b580      	push	{r7, lr}
     1ca:	6800      	ldr	r0, [r0, #0]
     1cc:	f003 f894 	bl	32f8 <_ZN68_$LT$zinc..hal..nrf51822..uart..Uart$u20$as$u20$core..fmt..Write$GT$9write_str17h3e998e6dc459d9e1E>
     1d0:	bd80      	pop	{r7, pc}
     1d2:	Address 0x00000000000001d2 is out of bounds.


000001d4 <_ZN14blink_nrf518227display7fade_to17h8c516a49d9bd70f0E>:
     1d4:	b5f0      	push	{r4, r5, r6, r7, lr}
     1d6:	b085      	sub	sp, #20
     1d8:	9101      	str	r1, [sp, #4]
     1da:	4927      	ldr	r1, [pc, #156]	; (278 <_ZN14blink_nrf518227display7fade_to17h8c516a49d9bd70f0E+0xa4>)
     1dc:	780f      	ldrb	r7, [r1, #0]
     1de:	b2c5      	uxtb	r5, r0
     1e0:	1be8      	subs	r0, r5, r7
     1e2:	13c1      	asrs	r1, r0, #15
     1e4:	1844      	adds	r4, r0, r1
     1e6:	404c      	eors	r4, r1
     1e8:	4620      	mov	r0, r4
     1ea:	f005 f8fb 	bl	53e4 <__aeabi_i2f>
     1ee:	4606      	mov	r6, r0
     1f0:	4628      	mov	r0, r5
     1f2:	f005 f947 	bl	5484 <__aeabi_ui2f>
     1f6:	4605      	mov	r5, r0
     1f8:	9703      	str	r7, [sp, #12]
     1fa:	4638      	mov	r0, r7
     1fc:	f005 f942 	bl	5484 <__aeabi_ui2f>
     200:	4601      	mov	r1, r0
     202:	4628      	mov	r0, r5
     204:	4635      	mov	r5, r6
     206:	4626      	mov	r6, r4
     208:	f004 ff30 	bl	506c <__aeabi_fsub>
     20c:	4629      	mov	r1, r5
     20e:	f004 fc1d 	bl	4a4c <__aeabi_fdiv>
     212:	f005 f8c7 	bl	53a4 <__aeabi_f2iz>
     216:	4604      	mov	r4, r0
     218:	2e01      	cmp	r6, #1
     21a:	db2b      	blt.n	274 <_ZN14blink_nrf518227display7fade_to17h8c516a49d9bd70f0E+0xa0>
     21c:	9801      	ldr	r0, [sp, #4]
     21e:	4629      	mov	r1, r5
     220:	f004 fc14 	bl	4a4c <__aeabi_fdiv>
     224:	4915      	ldr	r1, [pc, #84]	; (27c <_ZN14blink_nrf518227display7fade_to17h8c516a49d9bd70f0E+0xa8>)
     226:	f004 fe01 	bl	4e2c <__aeabi_fmul>
     22a:	f004 fa5d 	bl	46e8 <__aeabi_f2ulz>
     22e:	9001      	str	r0, [sp, #4]
     230:	9100      	str	r1, [sp, #0]
     232:	2700      	movs	r7, #0
     234:	9602      	str	r6, [sp, #8]
     236:	2602      	movs	r6, #2
     238:	4811      	ldr	r0, [pc, #68]	; (280 <_ZN14blink_nrf518227display7fade_to17h8c516a49d9bd70f0E+0xac>)
     23a:	4912      	ldr	r1, [pc, #72]	; (284 <_ZN14blink_nrf518227display7fade_to17h8c516a49d9bd70f0E+0xb0>)
     23c:	4632      	mov	r2, r6
     23e:	f003 f987 	bl	3550 <_ZN4zinc3hal8nrf518223twi3Twi11write_bytes17h0e15bed708b2e767E>
     242:	a904      	add	r1, sp, #16
     244:	2080      	movs	r0, #128	; 0x80
     246:	7008      	strb	r0, [r1, #0]
     248:	4620      	mov	r0, r4
     24a:	4378      	muls	r0, r7
     24c:	9a03      	ldr	r2, [sp, #12]
     24e:	4625      	mov	r5, r4
     250:	1884      	adds	r4, r0, r2
     252:	704c      	strb	r4, [r1, #1]
     254:	480a      	ldr	r0, [pc, #40]	; (280 <_ZN14blink_nrf518227display7fade_to17h8c516a49d9bd70f0E+0xac>)
     256:	4632      	mov	r2, r6
     258:	9e02      	ldr	r6, [sp, #8]
     25a:	f003 f979 	bl	3550 <_ZN4zinc3hal8nrf518223twi3Twi11write_bytes17h0e15bed708b2e767E>
     25e:	4806      	ldr	r0, [pc, #24]	; (278 <_ZN14blink_nrf518227display7fade_to17h8c516a49d9bd70f0E+0xa4>)
     260:	7004      	strb	r4, [r0, #0]
     262:	462c      	mov	r4, r5
     264:	9801      	ldr	r0, [sp, #4]
     266:	9900      	ldr	r1, [sp, #0]
     268:	f003 f9f0 	bl	364c <_ZN4zinc3hal8nrf518228sleep_us17h401a33623f589258E>
     26c:	1c78      	adds	r0, r7, #1
     26e:	b207      	sxth	r7, r0
     270:	42b7      	cmp	r7, r6
     272:	dbe0      	blt.n	236 <_ZN14blink_nrf518227display7fade_to17h8c516a49d9bd70f0E+0x62>
     274:	b005      	add	sp, #20
     276:	bdf0      	pop	{r4, r5, r6, r7, pc}
     278:	20000420 	.word	0x20000420
     27c:	49742400 	.word	0x49742400
     280:	00006469 	.word	0x00006469
     284:	00006469 	.word	0x00006469

00000288 <_ZN14blink_nrf518227display14update_display17h4431b73682dcb2eaE>:
     288:	b5f0      	push	{r4, r5, r6, r7, lr}
     28a:	b083      	sub	sp, #12
     28c:	2001      	movs	r0, #1
     28e:	0284      	lsls	r4, r0, #10
     290:	4f1a      	ldr	r7, [pc, #104]	; (2fc <_ZN14blink_nrf518227display14update_display17h4431b73682dcb2eaE+0x74>)
     292:	5d38      	ldrb	r0, [r7, r4]
     294:	2807      	cmp	r0, #7
     296:	d828      	bhi.n	2ea <_ZN14blink_nrf518227display14update_display17h4431b73682dcb2eaE+0x62>
     298:	4d19      	ldr	r5, [pc, #100]	; (300 <_ZN14blink_nrf518227display14update_display17h4431b73682dcb2eaE+0x78>)
     29a:	491a      	ldr	r1, [pc, #104]	; (304 <_ZN14blink_nrf518227display14update_display17h4431b73682dcb2eaE+0x7c>)
     29c:	2602      	movs	r6, #2
     29e:	4628      	mov	r0, r5
     2a0:	4632      	mov	r2, r6
     2a2:	f003 f955 	bl	3550 <_ZN4zinc3hal8nrf518223twi3Twi11write_bytes17h0e15bed708b2e767E>
     2a6:	5d38      	ldrb	r0, [r7, r4]
     2a8:	a901      	add	r1, sp, #4
     2aa:	2280      	movs	r2, #128	; 0x80
     2ac:	700a      	strb	r2, [r1, #0]
     2ae:	7048      	strb	r0, [r1, #1]
     2b0:	4628      	mov	r0, r5
     2b2:	4632      	mov	r2, r6
     2b4:	f003 f94c 	bl	3550 <_ZN4zinc3hal8nrf518223twi3Twi11write_bytes17h0e15bed708b2e767E>
     2b8:	4913      	ldr	r1, [pc, #76]	; (308 <_ZN14blink_nrf518227display14update_display17h4431b73682dcb2eaE+0x80>)
     2ba:	4628      	mov	r0, r5
     2bc:	4632      	mov	r2, r6
     2be:	f003 f947 	bl	3550 <_ZN4zinc3hal8nrf518223twi3Twi11write_bytes17h0e15bed708b2e767E>
     2c2:	5d38      	ldrb	r0, [r7, r4]
     2c4:	01c0      	lsls	r0, r0, #7
     2c6:	4911      	ldr	r1, [pc, #68]	; (30c <_ZN14blink_nrf518227display14update_display17h4431b73682dcb2eaE+0x84>)
     2c8:	5c79      	ldrb	r1, [r7, r1]
     2ca:	01c9      	lsls	r1, r1, #7
     2cc:	3180      	adds	r1, #128	; 0x80
     2ce:	4281      	cmp	r1, r0
     2d0:	d30d      	bcc.n	2ee <_ZN14blink_nrf518227display14update_display17h4431b73682dcb2eaE+0x66>
     2d2:	42a1      	cmp	r1, r4
     2d4:	d80d      	bhi.n	2f2 <_ZN14blink_nrf518227display14update_display17h4431b73682dcb2eaE+0x6a>
     2d6:	183a      	adds	r2, r7, r0
     2d8:	1a0b      	subs	r3, r1, r0
     2da:	a802      	add	r0, sp, #8
     2dc:	2140      	movs	r1, #64	; 0x40
     2de:	f003 f963 	bl	35a8 <_ZN4zinc3hal8nrf518223twi3Twi18write_bytes_prefix17h233b4f10bdb546a6E>
     2e2:	2008      	movs	r0, #8
     2e4:	5538      	strb	r0, [r7, r4]
     2e6:	4909      	ldr	r1, [pc, #36]	; (30c <_ZN14blink_nrf518227display14update_display17h4431b73682dcb2eaE+0x84>)
     2e8:	5478      	strb	r0, [r7, r1]
     2ea:	b003      	add	sp, #12
     2ec:	bdf0      	pop	{r4, r5, r6, r7, pc}
     2ee:	f003 fa81 	bl	37f4 <_ZN4core5slice22slice_index_order_fail17h645d2e1a34e44416E>
     2f2:	4608      	mov	r0, r1
     2f4:	4621      	mov	r1, r4
     2f6:	f003 fa5f 	bl	37b8 <_ZN4core5slice20slice_index_len_fail17hd87e5524007fa8c3E>
     2fa:	46c0      	nop			; (mov r8, r8)
     2fc:	2000001c 	.word	0x2000001c
     300:	00006469 	.word	0x00006469
     304:	0000646b 	.word	0x0000646b
     308:	0000646d 	.word	0x0000646d
     30c:	00000401 	.word	0x00000401

00000310 <_ZN14blink_nrf518227display11slice_paint17hb4297fb6849e963eE>:
     310:	b5f0      	push	{r4, r5, r6, r7, lr}
     312:	b083      	sub	sp, #12
     314:	9e09      	ldr	r6, [sp, #36]	; 0x24
     316:	9301      	str	r3, [sp, #4]
     318:	18f7      	adds	r7, r6, r3
     31a:	2500      	movs	r5, #0
     31c:	2301      	movs	r3, #1
     31e:	42b7      	cmp	r7, r6
     320:	d200      	bcs.n	324 <_ZN14blink_nrf518227display11slice_paint17hb4297fb6849e963eE+0x14>
     322:	461d      	mov	r5, r3
     324:	2d00      	cmp	r5, #0
     326:	d157      	bne.n	3d8 <_ZN14blink_nrf518227display11slice_paint17hb4297fb6849e963eE+0xc8>
     328:	2401      	movs	r4, #1
     32a:	02a5      	lsls	r5, r4, #10
     32c:	42af      	cmp	r7, r5
     32e:	d857      	bhi.n	3e0 <_ZN14blink_nrf518227display11slice_paint17hb4297fb6849e963eE+0xd0>
     330:	9d08      	ldr	r5, [sp, #32]
     332:	1973      	adds	r3, r6, r5
     334:	2700      	movs	r7, #0
     336:	42b3      	cmp	r3, r6
     338:	d200      	bcs.n	33c <_ZN14blink_nrf518227display11slice_paint17hb4297fb6849e963eE+0x2c>
     33a:	4627      	mov	r7, r4
     33c:	2f00      	cmp	r7, #0
     33e:	d153      	bne.n	3e8 <_ZN14blink_nrf518227display11slice_paint17hb4297fb6849e963eE+0xd8>
     340:	428b      	cmp	r3, r1
     342:	d855      	bhi.n	3f0 <_ZN14blink_nrf518227display11slice_paint17hb4297fb6849e963eE+0xe0>
     344:	1940      	adds	r0, r0, r5
     346:	492c      	ldr	r1, [pc, #176]	; (3f8 <_ZN14blink_nrf518227display11slice_paint17hb4297fb6849e963eE+0xe8>)
     348:	420a      	tst	r2, r1
     34a:	d01f      	beq.n	38c <_ZN14blink_nrf518227display11slice_paint17hb4297fb6849e963eE+0x7c>
     34c:	2e00      	cmp	r6, #0
     34e:	d041      	beq.n	3d4 <_ZN14blink_nrf518227display11slice_paint17hb4297fb6849e963eE+0xc4>
     350:	2107      	movs	r1, #7
     352:	4614      	mov	r4, r2
     354:	400c      	ands	r4, r1
     356:	4255      	negs	r5, r2
     358:	400d      	ands	r5, r1
     35a:	b211      	sxth	r1, r2
     35c:	2900      	cmp	r1, #0
     35e:	db28      	blt.n	3b2 <_ZN14blink_nrf518227display11slice_paint17hb4297fb6849e963eE+0xa2>
     360:	4a26      	ldr	r2, [pc, #152]	; (3fc <_ZN14blink_nrf518227display11slice_paint17hb4297fb6849e963eE+0xec>)
     362:	9901      	ldr	r1, [sp, #4]
     364:	1853      	adds	r3, r2, r1
     366:	9302      	str	r3, [sp, #8]
     368:	4252      	negs	r2, r2
     36a:	1a52      	subs	r2, r2, r1
     36c:	2500      	movs	r5, #0
     36e:	b2e3      	uxtb	r3, r4
     370:	9902      	ldr	r1, [sp, #8]
     372:	194f      	adds	r7, r1, r5
     374:	1c6c      	adds	r4, r5, #1
     376:	42aa      	cmp	r2, r5
     378:	d02c      	beq.n	3d4 <_ZN14blink_nrf518227display11slice_paint17hb4297fb6849e963eE+0xc4>
     37a:	5d45      	ldrb	r5, [r0, r5]
     37c:	409d      	lsls	r5, r3
     37e:	7839      	ldrb	r1, [r7, #0]
     380:	4329      	orrs	r1, r5
     382:	7039      	strb	r1, [r7, #0]
     384:	42b4      	cmp	r4, r6
     386:	4625      	mov	r5, r4
     388:	d3f2      	bcc.n	370 <_ZN14blink_nrf518227display11slice_paint17hb4297fb6849e963eE+0x60>
     38a:	e023      	b.n	3d4 <_ZN14blink_nrf518227display11slice_paint17hb4297fb6849e963eE+0xc4>
     38c:	2e00      	cmp	r6, #0
     38e:	d021      	beq.n	3d4 <_ZN14blink_nrf518227display11slice_paint17hb4297fb6849e963eE+0xc4>
     390:	4a1a      	ldr	r2, [pc, #104]	; (3fc <_ZN14blink_nrf518227display11slice_paint17hb4297fb6849e963eE+0xec>)
     392:	9b01      	ldr	r3, [sp, #4]
     394:	18d1      	adds	r1, r2, r3
     396:	4252      	negs	r2, r2
     398:	1ad2      	subs	r2, r2, r3
     39a:	2300      	movs	r3, #0
     39c:	18cc      	adds	r4, r1, r3
     39e:	429a      	cmp	r2, r3
     3a0:	d018      	beq.n	3d4 <_ZN14blink_nrf518227display11slice_paint17hb4297fb6849e963eE+0xc4>
     3a2:	5cc5      	ldrb	r5, [r0, r3]
     3a4:	7827      	ldrb	r7, [r4, #0]
     3a6:	432f      	orrs	r7, r5
     3a8:	7027      	strb	r7, [r4, #0]
     3aa:	1c5b      	adds	r3, r3, #1
     3ac:	42b3      	cmp	r3, r6
     3ae:	d3f5      	bcc.n	39c <_ZN14blink_nrf518227display11slice_paint17hb4297fb6849e963eE+0x8c>
     3b0:	e010      	b.n	3d4 <_ZN14blink_nrf518227display11slice_paint17hb4297fb6849e963eE+0xc4>
     3b2:	4912      	ldr	r1, [pc, #72]	; (3fc <_ZN14blink_nrf518227display11slice_paint17hb4297fb6849e963eE+0xec>)
     3b4:	9a01      	ldr	r2, [sp, #4]
     3b6:	1889      	adds	r1, r1, r2
     3b8:	2200      	movs	r2, #0
     3ba:	b2eb      	uxtb	r3, r5
     3bc:	1c52      	adds	r2, r2, #1
     3be:	2900      	cmp	r1, #0
     3c0:	d008      	beq.n	3d4 <_ZN14blink_nrf518227display11slice_paint17hb4297fb6849e963eE+0xc4>
     3c2:	7804      	ldrb	r4, [r0, #0]
     3c4:	40dc      	lsrs	r4, r3
     3c6:	780d      	ldrb	r5, [r1, #0]
     3c8:	4325      	orrs	r5, r4
     3ca:	700d      	strb	r5, [r1, #0]
     3cc:	1c49      	adds	r1, r1, #1
     3ce:	1c40      	adds	r0, r0, #1
     3d0:	42b2      	cmp	r2, r6
     3d2:	d3f3      	bcc.n	3bc <_ZN14blink_nrf518227display11slice_paint17hb4297fb6849e963eE+0xac>
     3d4:	b003      	add	sp, #12
     3d6:	bdf0      	pop	{r4, r5, r6, r7, pc}
     3d8:	9801      	ldr	r0, [sp, #4]
     3da:	4639      	mov	r1, r7
     3dc:	f003 fa0a 	bl	37f4 <_ZN4core5slice22slice_index_order_fail17h645d2e1a34e44416E>
     3e0:	4638      	mov	r0, r7
     3e2:	4629      	mov	r1, r5
     3e4:	f003 f9e8 	bl	37b8 <_ZN4core5slice20slice_index_len_fail17hd87e5524007fa8c3E>
     3e8:	4628      	mov	r0, r5
     3ea:	4619      	mov	r1, r3
     3ec:	f003 fa02 	bl	37f4 <_ZN4core5slice22slice_index_order_fail17h645d2e1a34e44416E>
     3f0:	4618      	mov	r0, r3
     3f2:	f003 f9e1 	bl	37b8 <_ZN4core5slice20slice_index_len_fail17hd87e5524007fa8c3E>
     3f6:	46c0      	nop			; (mov r8, r8)
     3f8:	0000ffff 	.word	0x0000ffff
     3fc:	2000001c 	.word	0x2000001c

00000400 <_ZN14blink_nrf518227display11slice_paint17hbe2fd50aec4c889eE>:
     400:	b5f0      	push	{r4, r5, r6, r7, lr}
     402:	b083      	sub	sp, #12
     404:	9e09      	ldr	r6, [sp, #36]	; 0x24
     406:	9300      	str	r3, [sp, #0]
     408:	18f7      	adds	r7, r6, r3
     40a:	2500      	movs	r5, #0
     40c:	2301      	movs	r3, #1
     40e:	42b7      	cmp	r7, r6
     410:	d200      	bcs.n	414 <_ZN14blink_nrf518227display11slice_paint17hbe2fd50aec4c889eE+0x14>
     412:	461d      	mov	r5, r3
     414:	2d00      	cmp	r5, #0
     416:	d15f      	bne.n	4d8 <_ZN14blink_nrf518227display11slice_paint17hbe2fd50aec4c889eE+0xd8>
     418:	2401      	movs	r4, #1
     41a:	02a5      	lsls	r5, r4, #10
     41c:	42af      	cmp	r7, r5
     41e:	d85f      	bhi.n	4e0 <_ZN14blink_nrf518227display11slice_paint17hbe2fd50aec4c889eE+0xe0>
     420:	9d08      	ldr	r5, [sp, #32]
     422:	1973      	adds	r3, r6, r5
     424:	2700      	movs	r7, #0
     426:	42b3      	cmp	r3, r6
     428:	d200      	bcs.n	42c <_ZN14blink_nrf518227display11slice_paint17hbe2fd50aec4c889eE+0x2c>
     42a:	4627      	mov	r7, r4
     42c:	2f00      	cmp	r7, #0
     42e:	d15b      	bne.n	4e8 <_ZN14blink_nrf518227display11slice_paint17hbe2fd50aec4c889eE+0xe8>
     430:	428b      	cmp	r3, r1
     432:	d85d      	bhi.n	4f0 <_ZN14blink_nrf518227display11slice_paint17hbe2fd50aec4c889eE+0xf0>
     434:	1940      	adds	r0, r0, r5
     436:	21ff      	movs	r1, #255	; 0xff
     438:	9102      	str	r1, [sp, #8]
     43a:	492f      	ldr	r1, [pc, #188]	; (4f8 <_ZN14blink_nrf518227display11slice_paint17hbe2fd50aec4c889eE+0xf8>)
     43c:	420a      	tst	r2, r1
     43e:	d021      	beq.n	484 <_ZN14blink_nrf518227display11slice_paint17hbe2fd50aec4c889eE+0x84>
     440:	2e00      	cmp	r6, #0
     442:	d047      	beq.n	4d4 <_ZN14blink_nrf518227display11slice_paint17hbe2fd50aec4c889eE+0xd4>
     444:	2507      	movs	r5, #7
     446:	4614      	mov	r4, r2
     448:	402c      	ands	r4, r5
     44a:	4251      	negs	r1, r2
     44c:	4029      	ands	r1, r5
     44e:	b212      	sxth	r2, r2
     450:	2a00      	cmp	r2, #0
     452:	db2c      	blt.n	4ae <_ZN14blink_nrf518227display11slice_paint17hbe2fd50aec4c889eE+0xae>
     454:	4929      	ldr	r1, [pc, #164]	; (4fc <_ZN14blink_nrf518227display11slice_paint17hbe2fd50aec4c889eE+0xfc>)
     456:	9a00      	ldr	r2, [sp, #0]
     458:	188b      	adds	r3, r1, r2
     45a:	9301      	str	r3, [sp, #4]
     45c:	4249      	negs	r1, r1
     45e:	1a8b      	subs	r3, r1, r2
     460:	2700      	movs	r7, #0
     462:	b2e4      	uxtb	r4, r4
     464:	9901      	ldr	r1, [sp, #4]
     466:	19c9      	adds	r1, r1, r7
     468:	1c7d      	adds	r5, r7, #1
     46a:	42bb      	cmp	r3, r7
     46c:	d032      	beq.n	4d4 <_ZN14blink_nrf518227display11slice_paint17hbe2fd50aec4c889eE+0xd4>
     46e:	5dc7      	ldrb	r7, [r0, r7]
     470:	40a7      	lsls	r7, r4
     472:	9a02      	ldr	r2, [sp, #8]
     474:	4057      	eors	r7, r2
     476:	780a      	ldrb	r2, [r1, #0]
     478:	403a      	ands	r2, r7
     47a:	700a      	strb	r2, [r1, #0]
     47c:	42b5      	cmp	r5, r6
     47e:	462f      	mov	r7, r5
     480:	d3f0      	bcc.n	464 <_ZN14blink_nrf518227display11slice_paint17hbe2fd50aec4c889eE+0x64>
     482:	e027      	b.n	4d4 <_ZN14blink_nrf518227display11slice_paint17hbe2fd50aec4c889eE+0xd4>
     484:	2e00      	cmp	r6, #0
     486:	d025      	beq.n	4d4 <_ZN14blink_nrf518227display11slice_paint17hbe2fd50aec4c889eE+0xd4>
     488:	491c      	ldr	r1, [pc, #112]	; (4fc <_ZN14blink_nrf518227display11slice_paint17hbe2fd50aec4c889eE+0xfc>)
     48a:	9b00      	ldr	r3, [sp, #0]
     48c:	18ca      	adds	r2, r1, r3
     48e:	4249      	negs	r1, r1
     490:	1acb      	subs	r3, r1, r3
     492:	2400      	movs	r4, #0
     494:	1911      	adds	r1, r2, r4
     496:	42a3      	cmp	r3, r4
     498:	d01c      	beq.n	4d4 <_ZN14blink_nrf518227display11slice_paint17hbe2fd50aec4c889eE+0xd4>
     49a:	5d05      	ldrb	r5, [r0, r4]
     49c:	9f02      	ldr	r7, [sp, #8]
     49e:	407d      	eors	r5, r7
     4a0:	780f      	ldrb	r7, [r1, #0]
     4a2:	402f      	ands	r7, r5
     4a4:	700f      	strb	r7, [r1, #0]
     4a6:	1c64      	adds	r4, r4, #1
     4a8:	42b4      	cmp	r4, r6
     4aa:	d3f3      	bcc.n	494 <_ZN14blink_nrf518227display11slice_paint17hbe2fd50aec4c889eE+0x94>
     4ac:	e012      	b.n	4d4 <_ZN14blink_nrf518227display11slice_paint17hbe2fd50aec4c889eE+0xd4>
     4ae:	4a13      	ldr	r2, [pc, #76]	; (4fc <_ZN14blink_nrf518227display11slice_paint17hbe2fd50aec4c889eE+0xfc>)
     4b0:	9b00      	ldr	r3, [sp, #0]
     4b2:	18d2      	adds	r2, r2, r3
     4b4:	2300      	movs	r3, #0
     4b6:	b2cc      	uxtb	r4, r1
     4b8:	1c5b      	adds	r3, r3, #1
     4ba:	2a00      	cmp	r2, #0
     4bc:	d00a      	beq.n	4d4 <_ZN14blink_nrf518227display11slice_paint17hbe2fd50aec4c889eE+0xd4>
     4be:	7801      	ldrb	r1, [r0, #0]
     4c0:	40e1      	lsrs	r1, r4
     4c2:	9d02      	ldr	r5, [sp, #8]
     4c4:	4069      	eors	r1, r5
     4c6:	7815      	ldrb	r5, [r2, #0]
     4c8:	400d      	ands	r5, r1
     4ca:	7015      	strb	r5, [r2, #0]
     4cc:	1c52      	adds	r2, r2, #1
     4ce:	1c40      	adds	r0, r0, #1
     4d0:	42b3      	cmp	r3, r6
     4d2:	d3f1      	bcc.n	4b8 <_ZN14blink_nrf518227display11slice_paint17hbe2fd50aec4c889eE+0xb8>
     4d4:	b003      	add	sp, #12
     4d6:	bdf0      	pop	{r4, r5, r6, r7, pc}
     4d8:	9800      	ldr	r0, [sp, #0]
     4da:	4639      	mov	r1, r7
     4dc:	f003 f98a 	bl	37f4 <_ZN4core5slice22slice_index_order_fail17h645d2e1a34e44416E>
     4e0:	4638      	mov	r0, r7
     4e2:	4629      	mov	r1, r5
     4e4:	f003 f968 	bl	37b8 <_ZN4core5slice20slice_index_len_fail17hd87e5524007fa8c3E>
     4e8:	4628      	mov	r0, r5
     4ea:	4619      	mov	r1, r3
     4ec:	f003 f982 	bl	37f4 <_ZN4core5slice22slice_index_order_fail17h645d2e1a34e44416E>
     4f0:	4618      	mov	r0, r3
     4f2:	f003 f961 	bl	37b8 <_ZN4core5slice20slice_index_len_fail17hd87e5524007fa8c3E>
     4f6:	46c0      	nop			; (mov r8, r8)
     4f8:	0000ffff 	.word	0x0000ffff
     4fc:	2000001c 	.word	0x2000001c

00000500 <_ZN14blink_nrf518227display11slice_paint17hd92e3b939cf48568E>:
     500:	b5f0      	push	{r4, r5, r6, r7, lr}
     502:	b081      	sub	sp, #4
     504:	9e07      	ldr	r6, [sp, #28]
     506:	9300      	str	r3, [sp, #0]
     508:	18f7      	adds	r7, r6, r3
     50a:	2500      	movs	r5, #0
     50c:	2301      	movs	r3, #1
     50e:	42b7      	cmp	r7, r6
     510:	d200      	bcs.n	514 <_ZN14blink_nrf518227display11slice_paint17hd92e3b939cf48568E+0x14>
     512:	461d      	mov	r5, r3
     514:	2d00      	cmp	r5, #0
     516:	d14f      	bne.n	5b8 <_ZN14blink_nrf518227display11slice_paint17hd92e3b939cf48568E+0xb8>
     518:	2401      	movs	r4, #1
     51a:	02a5      	lsls	r5, r4, #10
     51c:	42af      	cmp	r7, r5
     51e:	d84f      	bhi.n	5c0 <_ZN14blink_nrf518227display11slice_paint17hd92e3b939cf48568E+0xc0>
     520:	9d06      	ldr	r5, [sp, #24]
     522:	1973      	adds	r3, r6, r5
     524:	2700      	movs	r7, #0
     526:	42b3      	cmp	r3, r6
     528:	d200      	bcs.n	52c <_ZN14blink_nrf518227display11slice_paint17hd92e3b939cf48568E+0x2c>
     52a:	4627      	mov	r7, r4
     52c:	2f00      	cmp	r7, #0
     52e:	d14b      	bne.n	5c8 <_ZN14blink_nrf518227display11slice_paint17hd92e3b939cf48568E+0xc8>
     530:	428b      	cmp	r3, r1
     532:	d84d      	bhi.n	5d0 <_ZN14blink_nrf518227display11slice_paint17hd92e3b939cf48568E+0xd0>
     534:	1940      	adds	r0, r0, r5
     536:	4928      	ldr	r1, [pc, #160]	; (5d8 <_ZN14blink_nrf518227display11slice_paint17hd92e3b939cf48568E+0xd8>)
     538:	420a      	tst	r2, r1
     53a:	d01b      	beq.n	574 <_ZN14blink_nrf518227display11slice_paint17hd92e3b939cf48568E+0x74>
     53c:	2e00      	cmp	r6, #0
     53e:	d039      	beq.n	5b4 <_ZN14blink_nrf518227display11slice_paint17hd92e3b939cf48568E+0xb4>
     540:	2107      	movs	r1, #7
     542:	4614      	mov	r4, r2
     544:	400c      	ands	r4, r1
     546:	4255      	negs	r5, r2
     548:	400d      	ands	r5, r1
     54a:	b211      	sxth	r1, r2
     54c:	2900      	cmp	r1, #0
     54e:	db22      	blt.n	596 <_ZN14blink_nrf518227display11slice_paint17hd92e3b939cf48568E+0x96>
     550:	4a22      	ldr	r2, [pc, #136]	; (5dc <_ZN14blink_nrf518227display11slice_paint17hd92e3b939cf48568E+0xdc>)
     552:	9b00      	ldr	r3, [sp, #0]
     554:	18d1      	adds	r1, r2, r3
     556:	4252      	negs	r2, r2
     558:	1ad2      	subs	r2, r2, r3
     55a:	2500      	movs	r5, #0
     55c:	b2e3      	uxtb	r3, r4
     55e:	194f      	adds	r7, r1, r5
     560:	1c6c      	adds	r4, r5, #1
     562:	42aa      	cmp	r2, r5
     564:	d026      	beq.n	5b4 <_ZN14blink_nrf518227display11slice_paint17hd92e3b939cf48568E+0xb4>
     566:	5d45      	ldrb	r5, [r0, r5]
     568:	409d      	lsls	r5, r3
     56a:	703d      	strb	r5, [r7, #0]
     56c:	42b4      	cmp	r4, r6
     56e:	4625      	mov	r5, r4
     570:	d3f5      	bcc.n	55e <_ZN14blink_nrf518227display11slice_paint17hd92e3b939cf48568E+0x5e>
     572:	e01f      	b.n	5b4 <_ZN14blink_nrf518227display11slice_paint17hd92e3b939cf48568E+0xb4>
     574:	2e00      	cmp	r6, #0
     576:	d01d      	beq.n	5b4 <_ZN14blink_nrf518227display11slice_paint17hd92e3b939cf48568E+0xb4>
     578:	4a18      	ldr	r2, [pc, #96]	; (5dc <_ZN14blink_nrf518227display11slice_paint17hd92e3b939cf48568E+0xdc>)
     57a:	9b00      	ldr	r3, [sp, #0]
     57c:	18d1      	adds	r1, r2, r3
     57e:	4252      	negs	r2, r2
     580:	1ad2      	subs	r2, r2, r3
     582:	2300      	movs	r3, #0
     584:	18cc      	adds	r4, r1, r3
     586:	429a      	cmp	r2, r3
     588:	d014      	beq.n	5b4 <_ZN14blink_nrf518227display11slice_paint17hd92e3b939cf48568E+0xb4>
     58a:	5cc5      	ldrb	r5, [r0, r3]
     58c:	7025      	strb	r5, [r4, #0]
     58e:	1c5b      	adds	r3, r3, #1
     590:	42b3      	cmp	r3, r6
     592:	d3f7      	bcc.n	584 <_ZN14blink_nrf518227display11slice_paint17hd92e3b939cf48568E+0x84>
     594:	e00e      	b.n	5b4 <_ZN14blink_nrf518227display11slice_paint17hd92e3b939cf48568E+0xb4>
     596:	4911      	ldr	r1, [pc, #68]	; (5dc <_ZN14blink_nrf518227display11slice_paint17hd92e3b939cf48568E+0xdc>)
     598:	9a00      	ldr	r2, [sp, #0]
     59a:	1889      	adds	r1, r1, r2
     59c:	2200      	movs	r2, #0
     59e:	b2eb      	uxtb	r3, r5
     5a0:	1c52      	adds	r2, r2, #1
     5a2:	2900      	cmp	r1, #0
     5a4:	d006      	beq.n	5b4 <_ZN14blink_nrf518227display11slice_paint17hd92e3b939cf48568E+0xb4>
     5a6:	7804      	ldrb	r4, [r0, #0]
     5a8:	40dc      	lsrs	r4, r3
     5aa:	700c      	strb	r4, [r1, #0]
     5ac:	1c49      	adds	r1, r1, #1
     5ae:	1c40      	adds	r0, r0, #1
     5b0:	42b2      	cmp	r2, r6
     5b2:	d3f5      	bcc.n	5a0 <_ZN14blink_nrf518227display11slice_paint17hd92e3b939cf48568E+0xa0>
     5b4:	b001      	add	sp, #4
     5b6:	bdf0      	pop	{r4, r5, r6, r7, pc}
     5b8:	9800      	ldr	r0, [sp, #0]
     5ba:	4639      	mov	r1, r7
     5bc:	f003 f91a 	bl	37f4 <_ZN4core5slice22slice_index_order_fail17h645d2e1a34e44416E>
     5c0:	4638      	mov	r0, r7
     5c2:	4629      	mov	r1, r5
     5c4:	f003 f8f8 	bl	37b8 <_ZN4core5slice20slice_index_len_fail17hd87e5524007fa8c3E>
     5c8:	4628      	mov	r0, r5
     5ca:	4619      	mov	r1, r3
     5cc:	f003 f912 	bl	37f4 <_ZN4core5slice22slice_index_order_fail17h645d2e1a34e44416E>
     5d0:	4618      	mov	r0, r3
     5d2:	f003 f8f1 	bl	37b8 <_ZN4core5slice20slice_index_len_fail17hd87e5524007fa8c3E>
     5d6:	46c0      	nop			; (mov r8, r8)
     5d8:	0000ffff 	.word	0x0000ffff
     5dc:	2000001c 	.word	0x2000001c

000005e0 <_ZN14blink_nrf518227display4draw17haa5976ca818aacebE>:
     5e0:	b5f0      	push	{r4, r5, r6, r7, lr}
     5e2:	b091      	sub	sp, #68	; 0x44
     5e4:	b20e      	sxth	r6, r1
     5e6:	2e7f      	cmp	r6, #127	; 0x7f
     5e8:	dd00      	ble.n	5ec <_ZN14blink_nrf518227display4draw17haa5976ca818aacebE+0xc>
     5ea:	e138      	b.n	85e <_ZN14blink_nrf518227display4draw17haa5976ca818aacebE+0x27e>
     5ec:	b217      	sxth	r7, r2
     5ee:	2f3f      	cmp	r7, #63	; 0x3f
     5f0:	dd00      	ble.n	5f4 <_ZN14blink_nrf518227display4draw17haa5976ca818aacebE+0x14>
     5f2:	e134      	b.n	85e <_ZN14blink_nrf518227display4draw17haa5976ca818aacebE+0x27e>
     5f4:	7a05      	ldrb	r5, [r0, #8]
     5f6:	186b      	adds	r3, r5, r1
     5f8:	b21b      	sxth	r3, r3
     5fa:	2b01      	cmp	r3, #1
     5fc:	da00      	bge.n	600 <_ZN14blink_nrf518227display4draw17haa5976ca818aacebE+0x20>
     5fe:	e12e      	b.n	85e <_ZN14blink_nrf518227display4draw17haa5976ca818aacebE+0x27e>
     600:	7a44      	ldrb	r4, [r0, #9]
     602:	9009      	str	r0, [sp, #36]	; 0x24
     604:	4620      	mov	r0, r4
     606:	18a4      	adds	r4, r4, r2
     608:	b224      	sxth	r4, r4
     60a:	2c01      	cmp	r4, #1
     60c:	da00      	bge.n	610 <_ZN14blink_nrf518227display4draw17haa5976ca818aacebE+0x30>
     60e:	e126      	b.n	85e <_ZN14blink_nrf518227display4draw17haa5976ca818aacebE+0x27e>
     610:	9307      	str	r3, [sp, #28]
     612:	4614      	mov	r4, r2
     614:	430c      	orrs	r4, r1
     616:	2301      	movs	r3, #1
     618:	9308      	str	r3, [sp, #32]
     61a:	029b      	lsls	r3, r3, #10
     61c:	9306      	str	r3, [sp, #24]
     61e:	4b98      	ldr	r3, [pc, #608]	; (880 <_ZN14blink_nrf518227display4draw17haa5976ca818aacebE+0x2a0>)
     620:	421c      	tst	r4, r3
     622:	d120      	bne.n	666 <_ZN14blink_nrf518227display4draw17haa5976ca818aacebE+0x86>
     624:	2d80      	cmp	r5, #128	; 0x80
     626:	d11e      	bne.n	666 <_ZN14blink_nrf518227display4draw17haa5976ca818aacebE+0x86>
     628:	2840      	cmp	r0, #64	; 0x40
     62a:	d11c      	bne.n	666 <_ZN14blink_nrf518227display4draw17haa5976ca818aacebE+0x86>
     62c:	9a06      	ldr	r2, [sp, #24]
     62e:	9809      	ldr	r0, [sp, #36]	; 0x24
     630:	6841      	ldr	r1, [r0, #4]
     632:	4291      	cmp	r1, r2
     634:	d300      	bcc.n	638 <_ZN14blink_nrf518227display4draw17haa5976ca818aacebE+0x58>
     636:	4611      	mov	r1, r2
     638:	2900      	cmp	r1, #0
     63a:	d00a      	beq.n	652 <_ZN14blink_nrf518227display4draw17haa5976ca818aacebE+0x72>
     63c:	6800      	ldr	r0, [r0, #0]
     63e:	2200      	movs	r2, #0
     640:	4b96      	ldr	r3, [pc, #600]	; (89c <_ZN14blink_nrf518227display4draw17haa5976ca818aacebE+0x2bc>)
     642:	189c      	adds	r4, r3, r2
     644:	2c00      	cmp	r4, #0
     646:	d004      	beq.n	652 <_ZN14blink_nrf518227display4draw17haa5976ca818aacebE+0x72>
     648:	5c85      	ldrb	r5, [r0, r2]
     64a:	7025      	strb	r5, [r4, #0]
     64c:	1c52      	adds	r2, r2, #1
     64e:	428a      	cmp	r2, r1
     650:	d3f7      	bcc.n	642 <_ZN14blink_nrf518227display4draw17haa5976ca818aacebE+0x62>
     652:	2001      	movs	r0, #1
     654:	0280      	lsls	r0, r0, #10
     656:	4991      	ldr	r1, [pc, #580]	; (89c <_ZN14blink_nrf518227display4draw17haa5976ca818aacebE+0x2bc>)
     658:	2200      	movs	r2, #0
     65a:	540a      	strb	r2, [r1, r0]
     65c:	4890      	ldr	r0, [pc, #576]	; (8a0 <_ZN14blink_nrf518227display4draw17haa5976ca818aacebE+0x2c0>)
     65e:	2207      	movs	r2, #7
     660:	540a      	strb	r2, [r1, r0]
     662:	b011      	add	sp, #68	; 0x44
     664:	bdf0      	pop	{r4, r5, r6, r7, pc}
     666:	4d87      	ldr	r5, [pc, #540]	; (884 <_ZN14blink_nrf518227display4draw17haa5976ca818aacebE+0x2a4>)
     668:	4015      	ands	r5, r2
     66a:	2f3f      	cmp	r7, #63	; 0x3f
     66c:	dc6b      	bgt.n	746 <_ZN14blink_nrf518227display4draw17haa5976ca818aacebE+0x166>
     66e:	2d00      	cmp	r5, #0
     670:	d169      	bne.n	746 <_ZN14blink_nrf518227display4draw17haa5976ca818aacebE+0x166>
     672:	2808      	cmp	r0, #8
     674:	d167      	bne.n	746 <_ZN14blink_nrf518227display4draw17haa5976ca818aacebE+0x166>
     676:	2500      	movs	r5, #0
     678:	2e00      	cmp	r6, #0
     67a:	9505      	str	r5, [sp, #20]
     67c:	db00      	blt.n	680 <_ZN14blink_nrf518227display4draw17haa5976ca818aacebE+0xa0>
     67e:	460d      	mov	r5, r1
     680:	b22b      	sxth	r3, r5
     682:	0f38      	lsrs	r0, r7, #28
     684:	2407      	movs	r4, #7
     686:	4004      	ands	r4, r0
     688:	1910      	adds	r0, r2, r4
     68a:	b200      	sxth	r0, r0
     68c:	10c0      	asrs	r0, r0, #3
     68e:	9004      	str	r0, [sp, #16]
     690:	01c0      	lsls	r0, r0, #7
     692:	22ff      	movs	r2, #255	; 0xff
     694:	01d7      	lsls	r7, r2, #7
     696:	4007      	ands	r7, r0
     698:	9303      	str	r3, [sp, #12]
     69a:	18f8      	adds	r0, r7, r3
     69c:	227f      	movs	r2, #127	; 0x7f
     69e:	9b07      	ldr	r3, [sp, #28]
     6a0:	2b7f      	cmp	r3, #127	; 0x7f
     6a2:	dc00      	bgt.n	6a6 <_ZN14blink_nrf518227display4draw17haa5976ca818aacebE+0xc6>
     6a4:	461a      	mov	r2, r3
     6a6:	1b53      	subs	r3, r2, r5
     6a8:	b21a      	sxth	r2, r3
     6aa:	1814      	adds	r4, r2, r0
     6ac:	4294      	cmp	r4, r2
     6ae:	d201      	bcs.n	6b4 <_ZN14blink_nrf518227display4draw17haa5976ca818aacebE+0xd4>
     6b0:	9d08      	ldr	r5, [sp, #32]
     6b2:	9505      	str	r5, [sp, #20]
     6b4:	4249      	negs	r1, r1
     6b6:	b209      	sxth	r1, r1
     6b8:	17f5      	asrs	r5, r6, #31
     6ba:	400d      	ands	r5, r1
     6bc:	9905      	ldr	r1, [sp, #20]
     6be:	2900      	cmp	r1, #0
     6c0:	d000      	beq.n	6c4 <_ZN14blink_nrf518227display4draw17haa5976ca818aacebE+0xe4>
     6c2:	e0ce      	b.n	862 <_ZN14blink_nrf518227display4draw17haa5976ca818aacebE+0x282>
     6c4:	9308      	str	r3, [sp, #32]
     6c6:	9007      	str	r0, [sp, #28]
     6c8:	9806      	ldr	r0, [sp, #24]
     6ca:	4284      	cmp	r4, r0
     6cc:	d900      	bls.n	6d0 <_ZN14blink_nrf518227display4draw17haa5976ca818aacebE+0xf0>
     6ce:	e0cb      	b.n	868 <_ZN14blink_nrf518227display4draw17haa5976ca818aacebE+0x288>
     6d0:	9809      	ldr	r0, [sp, #36]	; 0x24
     6d2:	6804      	ldr	r4, [r0, #0]
     6d4:	6841      	ldr	r1, [r0, #4]
     6d6:	1953      	adds	r3, r2, r5
     6d8:	2000      	movs	r0, #0
     6da:	2601      	movs	r6, #1
     6dc:	4293      	cmp	r3, r2
     6de:	d200      	bcs.n	6e2 <_ZN14blink_nrf518227display4draw17haa5976ca818aacebE+0x102>
     6e0:	4630      	mov	r0, r6
     6e2:	2800      	cmp	r0, #0
     6e4:	d000      	beq.n	6e8 <_ZN14blink_nrf518227display4draw17haa5976ca818aacebE+0x108>
     6e6:	e0c3      	b.n	870 <_ZN14blink_nrf518227display4draw17haa5976ca818aacebE+0x290>
     6e8:	428b      	cmp	r3, r1
     6ea:	d900      	bls.n	6ee <_ZN14blink_nrf518227display4draw17haa5976ca818aacebE+0x10e>
     6ec:	e0c4      	b.n	878 <_ZN14blink_nrf518227display4draw17haa5976ca818aacebE+0x298>
     6ee:	1960      	adds	r0, r4, r5
     6f0:	4963      	ldr	r1, [pc, #396]	; (880 <_ZN14blink_nrf518227display4draw17haa5976ca818aacebE+0x2a0>)
     6f2:	9b08      	ldr	r3, [sp, #32]
     6f4:	420b      	tst	r3, r1
     6f6:	d00f      	beq.n	718 <_ZN14blink_nrf518227display4draw17haa5976ca818aacebE+0x138>
     6f8:	4b68      	ldr	r3, [pc, #416]	; (89c <_ZN14blink_nrf518227display4draw17haa5976ca818aacebE+0x2bc>)
     6fa:	9907      	ldr	r1, [sp, #28]
     6fc:	1859      	adds	r1, r3, r1
     6fe:	425b      	negs	r3, r3
     700:	9c03      	ldr	r4, [sp, #12]
     702:	1b1b      	subs	r3, r3, r4
     704:	1bdb      	subs	r3, r3, r7
     706:	2400      	movs	r4, #0
     708:	190d      	adds	r5, r1, r4
     70a:	42a3      	cmp	r3, r4
     70c:	d004      	beq.n	718 <_ZN14blink_nrf518227display4draw17haa5976ca818aacebE+0x138>
     70e:	5d06      	ldrb	r6, [r0, r4]
     710:	702e      	strb	r6, [r5, #0]
     712:	1c64      	adds	r4, r4, #1
     714:	4294      	cmp	r4, r2
     716:	d3f7      	bcc.n	708 <_ZN14blink_nrf518227display4draw17haa5976ca818aacebE+0x128>
     718:	2001      	movs	r0, #1
     71a:	0281      	lsls	r1, r0, #10
     71c:	485f      	ldr	r0, [pc, #380]	; (89c <_ZN14blink_nrf518227display4draw17haa5976ca818aacebE+0x2bc>)
     71e:	5c43      	ldrb	r3, [r0, r1]
     720:	9d04      	ldr	r5, [sp, #16]
     722:	b2ea      	uxtb	r2, r5
     724:	4293      	cmp	r3, r2
     726:	462c      	mov	r4, r5
     728:	d200      	bcs.n	72c <_ZN14blink_nrf518227display4draw17haa5976ca818aacebE+0x14c>
     72a:	461c      	mov	r4, r3
     72c:	5444      	strb	r4, [r0, r1]
     72e:	495c      	ldr	r1, [pc, #368]	; (8a0 <_ZN14blink_nrf518227display4draw17haa5976ca818aacebE+0x2c0>)
     730:	5c43      	ldrb	r3, [r0, r1]
     732:	4293      	cmp	r3, r2
     734:	461a      	mov	r2, r3
     736:	d200      	bcs.n	73a <_ZN14blink_nrf518227display4draw17haa5976ca818aacebE+0x15a>
     738:	462a      	mov	r2, r5
     73a:	2b07      	cmp	r3, #7
     73c:	d800      	bhi.n	740 <_ZN14blink_nrf518227display4draw17haa5976ca818aacebE+0x160>
     73e:	4615      	mov	r5, r2
     740:	5445      	strb	r5, [r0, r1]
     742:	b011      	add	sp, #68	; 0x44
     744:	bdf0      	pop	{r4, r5, r6, r7, pc}
     746:	2808      	cmp	r0, #8
     748:	d176      	bne.n	838 <_ZN14blink_nrf518227display4draw17haa5976ca818aacebE+0x258>
     74a:	2500      	movs	r5, #0
     74c:	2e00      	cmp	r6, #0
     74e:	462b      	mov	r3, r5
     750:	db00      	blt.n	754 <_ZN14blink_nrf518227display4draw17haa5976ca818aacebE+0x174>
     752:	460b      	mov	r3, r1
     754:	b218      	sxth	r0, r3
     756:	9006      	str	r0, [sp, #24]
     758:	0f38      	lsrs	r0, r7, #28
     75a:	2407      	movs	r4, #7
     75c:	4020      	ands	r0, r4
     75e:	1810      	adds	r0, r2, r0
     760:	b200      	sxth	r0, r0
     762:	10c0      	asrs	r0, r0, #3
     764:	9004      	str	r0, [sp, #16]
     766:	43e8      	mvns	r0, r5
     768:	2f00      	cmp	r7, #0
     76a:	9005      	str	r0, [sp, #20]
     76c:	4607      	mov	r7, r0
     76e:	db00      	blt.n	772 <_ZN14blink_nrf518227display4draw17haa5976ca818aacebE+0x192>
     770:	9f04      	ldr	r7, [sp, #16]
     772:	01f8      	lsls	r0, r7, #7
     774:	9d06      	ldr	r5, [sp, #24]
     776:	1940      	adds	r0, r0, r5
     778:	9006      	str	r0, [sp, #24]
     77a:	257f      	movs	r5, #127	; 0x7f
     77c:	9807      	ldr	r0, [sp, #28]
     77e:	287f      	cmp	r0, #127	; 0x7f
     780:	dc00      	bgt.n	784 <_ZN14blink_nrf518227display4draw17haa5976ca818aacebE+0x1a4>
     782:	4605      	mov	r5, r0
     784:	1ae8      	subs	r0, r5, r3
     786:	b203      	sxth	r3, r0
     788:	4248      	negs	r0, r1
     78a:	b200      	sxth	r0, r0
     78c:	17f6      	asrs	r6, r6, #31
     78e:	4006      	ands	r6, r0
     790:	3208      	adds	r2, #8
     792:	b210      	sxth	r0, r2
     794:	0f00      	lsrs	r0, r0, #28
     796:	4020      	ands	r0, r4
     798:	1810      	adds	r0, r2, r0
     79a:	43a0      	bics	r0, r4
     79c:	1a14      	subs	r4, r2, r0
     79e:	9809      	ldr	r0, [sp, #36]	; 0x24
     7a0:	6805      	ldr	r5, [r0, #0]
     7a2:	6841      	ldr	r1, [r0, #4]
     7a4:	2f00      	cmp	r7, #0
     7a6:	db25      	blt.n	7f4 <_ZN14blink_nrf518227display4draw17haa5976ca818aacebE+0x214>
     7a8:	4668      	mov	r0, sp
     7aa:	6006      	str	r6, [r0, #0]
     7ac:	9309      	str	r3, [sp, #36]	; 0x24
     7ae:	6043      	str	r3, [r0, #4]
     7b0:	9507      	str	r5, [sp, #28]
     7b2:	4628      	mov	r0, r5
     7b4:	9104      	str	r1, [sp, #16]
     7b6:	4622      	mov	r2, r4
     7b8:	9b06      	ldr	r3, [sp, #24]
     7ba:	f7ff fea1 	bl	500 <_ZN14blink_nrf518227display11slice_paint17hd92e3b939cf48568E>
     7be:	9808      	ldr	r0, [sp, #32]
     7c0:	0281      	lsls	r1, r0, #10
     7c2:	4836      	ldr	r0, [pc, #216]	; (89c <_ZN14blink_nrf518227display4draw17haa5976ca818aacebE+0x2bc>)
     7c4:	5c43      	ldrb	r3, [r0, r1]
     7c6:	b2fa      	uxtb	r2, r7
     7c8:	4293      	cmp	r3, r2
     7ca:	463d      	mov	r5, r7
     7cc:	d200      	bcs.n	7d0 <_ZN14blink_nrf518227display4draw17haa5976ca818aacebE+0x1f0>
     7ce:	461d      	mov	r5, r3
     7d0:	5445      	strb	r5, [r0, r1]
     7d2:	4d33      	ldr	r5, [pc, #204]	; (8a0 <_ZN14blink_nrf518227display4draw17haa5976ca818aacebE+0x2c0>)
     7d4:	5d43      	ldrb	r3, [r0, r5]
     7d6:	4293      	cmp	r3, r2
     7d8:	461a      	mov	r2, r3
     7da:	d200      	bcs.n	7de <_ZN14blink_nrf518227display4draw17haa5976ca818aacebE+0x1fe>
     7dc:	463a      	mov	r2, r7
     7de:	2b07      	cmp	r3, #7
     7e0:	463b      	mov	r3, r7
     7e2:	9904      	ldr	r1, [sp, #16]
     7e4:	d800      	bhi.n	7e8 <_ZN14blink_nrf518227display4draw17haa5976ca818aacebE+0x208>
     7e6:	4613      	mov	r3, r2
     7e8:	5543      	strb	r3, [r0, r5]
     7ea:	b238      	sxth	r0, r7
     7ec:	2806      	cmp	r0, #6
     7ee:	9b09      	ldr	r3, [sp, #36]	; 0x24
     7f0:	9d07      	ldr	r5, [sp, #28]
     7f2:	dc34      	bgt.n	85e <_ZN14blink_nrf518227display4draw17haa5976ca818aacebE+0x27e>
     7f4:	4668      	mov	r0, sp
     7f6:	6006      	str	r6, [r0, #0]
     7f8:	6043      	str	r3, [r0, #4]
     7fa:	9805      	ldr	r0, [sp, #20]
     7fc:	1820      	adds	r0, r4, r0
     7fe:	1fc2      	subs	r2, r0, #7
     800:	9b06      	ldr	r3, [sp, #24]
     802:	3380      	adds	r3, #128	; 0x80
     804:	4628      	mov	r0, r5
     806:	f7ff fe7b 	bl	500 <_ZN14blink_nrf518227display11slice_paint17hd92e3b939cf48568E>
     80a:	9808      	ldr	r0, [sp, #32]
     80c:	0282      	lsls	r2, r0, #10
     80e:	4823      	ldr	r0, [pc, #140]	; (89c <_ZN14blink_nrf518227display4draw17haa5976ca818aacebE+0x2bc>)
     810:	5c84      	ldrb	r4, [r0, r2]
     812:	1c79      	adds	r1, r7, #1
     814:	b2cb      	uxtb	r3, r1
     816:	429c      	cmp	r4, r3
     818:	460d      	mov	r5, r1
     81a:	d200      	bcs.n	81e <_ZN14blink_nrf518227display4draw17haa5976ca818aacebE+0x23e>
     81c:	4625      	mov	r5, r4
     81e:	5485      	strb	r5, [r0, r2]
     820:	4a1f      	ldr	r2, [pc, #124]	; (8a0 <_ZN14blink_nrf518227display4draw17haa5976ca818aacebE+0x2c0>)
     822:	5c84      	ldrb	r4, [r0, r2]
     824:	429c      	cmp	r4, r3
     826:	4623      	mov	r3, r4
     828:	d200      	bcs.n	82c <_ZN14blink_nrf518227display4draw17haa5976ca818aacebE+0x24c>
     82a:	460b      	mov	r3, r1
     82c:	2c07      	cmp	r4, #7
     82e:	d800      	bhi.n	832 <_ZN14blink_nrf518227display4draw17haa5976ca818aacebE+0x252>
     830:	4619      	mov	r1, r3
     832:	5481      	strb	r1, [r0, r2]
     834:	b011      	add	sp, #68	; 0x44
     836:	bdf0      	pop	{r4, r5, r6, r7, pc}
     838:	4813      	ldr	r0, [pc, #76]	; (888 <_ZN14blink_nrf518227display4draw17haa5976ca818aacebE+0x2a8>)
     83a:	900a      	str	r0, [sp, #40]	; 0x28
     83c:	9808      	ldr	r0, [sp, #32]
     83e:	900b      	str	r0, [sp, #44]	; 0x2c
     840:	2400      	movs	r4, #0
     842:	940c      	str	r4, [sp, #48]	; 0x30
     844:	4811      	ldr	r0, [pc, #68]	; (88c <_ZN14blink_nrf518227display4draw17haa5976ca818aacebE+0x2ac>)
     846:	900e      	str	r0, [sp, #56]	; 0x38
     848:	940f      	str	r4, [sp, #60]	; 0x3c
     84a:	a810      	add	r0, sp, #64	; 0x40
     84c:	4910      	ldr	r1, [pc, #64]	; (890 <_ZN14blink_nrf518227display4draw17haa5976ca818aacebE+0x2b0>)
     84e:	aa0a      	add	r2, sp, #40	; 0x28
     850:	f003 f878 	bl	3944 <_ZN4core3fmt5write17h56e3d15cb4a744eaE>
     854:	480f      	ldr	r0, [pc, #60]	; (894 <_ZN14blink_nrf518227display4draw17haa5976ca818aacebE+0x2b4>)
     856:	4910      	ldr	r1, [pc, #64]	; (898 <_ZN14blink_nrf518227display4draw17haa5976ca818aacebE+0x2b8>)
     858:	4622      	mov	r2, r4
     85a:	f002 fd15 	bl	3288 <_ZN4zinc3hal8nrf518224uart4Uart7writeln17h3374573b82f4d38aE>
     85e:	b011      	add	sp, #68	; 0x44
     860:	bdf0      	pop	{r4, r5, r6, r7, pc}
     862:	4621      	mov	r1, r4
     864:	f002 ffc6 	bl	37f4 <_ZN4core5slice22slice_index_order_fail17h645d2e1a34e44416E>
     868:	4601      	mov	r1, r0
     86a:	4620      	mov	r0, r4
     86c:	f002 ffa4 	bl	37b8 <_ZN4core5slice20slice_index_len_fail17hd87e5524007fa8c3E>
     870:	4628      	mov	r0, r5
     872:	4619      	mov	r1, r3
     874:	f002 ffbe 	bl	37f4 <_ZN4core5slice22slice_index_order_fail17h645d2e1a34e44416E>
     878:	4618      	mov	r0, r3
     87a:	f002 ff9d 	bl	37b8 <_ZN4core5slice20slice_index_len_fail17hd87e5524007fa8c3E>
     87e:	46c0      	nop			; (mov r8, r8)
     880:	0000ffff 	.word	0x0000ffff
     884:	00008007 	.word	0x00008007
     888:	0000c8d0 	.word	0x0000c8d0
     88c:	00006648 	.word	0x00006648
     890:	00006630 	.word	0x00006630
     894:	00006469 	.word	0x00006469
     898:	00006648 	.word	0x00006648
     89c:	2000001c 	.word	0x2000001c
     8a0:	00000401 	.word	0x00000401

000008a4 <_ZN14blink_nrf518227display11clear_image17h8a05d38a1b3eda46E>:
     8a4:	b5f0      	push	{r4, r5, r6, r7, lr}
     8a6:	b091      	sub	sp, #68	; 0x44
     8a8:	b20f      	sxth	r7, r1
     8aa:	2f7f      	cmp	r7, #127	; 0x7f
     8ac:	dd00      	ble.n	8b0 <_ZN14blink_nrf518227display11clear_image17h8a05d38a1b3eda46E+0xc>
     8ae:	e14c      	b.n	b4a <_ZN14blink_nrf518227display11clear_image17h8a05d38a1b3eda46E+0x2a6>
     8b0:	b215      	sxth	r5, r2
     8b2:	2d3f      	cmp	r5, #63	; 0x3f
     8b4:	dd00      	ble.n	8b8 <_ZN14blink_nrf518227display11clear_image17h8a05d38a1b3eda46E+0x14>
     8b6:	e148      	b.n	b4a <_ZN14blink_nrf518227display11clear_image17h8a05d38a1b3eda46E+0x2a6>
     8b8:	7a06      	ldrb	r6, [r0, #8]
     8ba:	1873      	adds	r3, r6, r1
     8bc:	b21b      	sxth	r3, r3
     8be:	2b01      	cmp	r3, #1
     8c0:	da00      	bge.n	8c4 <_ZN14blink_nrf518227display11clear_image17h8a05d38a1b3eda46E+0x20>
     8c2:	e142      	b.n	b4a <_ZN14blink_nrf518227display11clear_image17h8a05d38a1b3eda46E+0x2a6>
     8c4:	7a44      	ldrb	r4, [r0, #9]
     8c6:	9008      	str	r0, [sp, #32]
     8c8:	9407      	str	r4, [sp, #28]
     8ca:	18a4      	adds	r4, r4, r2
     8cc:	b224      	sxth	r4, r4
     8ce:	2c01      	cmp	r4, #1
     8d0:	da00      	bge.n	8d4 <_ZN14blink_nrf518227display11clear_image17h8a05d38a1b3eda46E+0x30>
     8d2:	e13a      	b.n	b4a <_ZN14blink_nrf518227display11clear_image17h8a05d38a1b3eda46E+0x2a6>
     8d4:	9305      	str	r3, [sp, #20]
     8d6:	4614      	mov	r4, r2
     8d8:	430c      	orrs	r4, r1
     8da:	2301      	movs	r3, #1
     8dc:	9306      	str	r3, [sp, #24]
     8de:	0298      	lsls	r0, r3, #10
     8e0:	9004      	str	r0, [sp, #16]
     8e2:	20ff      	movs	r0, #255	; 0xff
     8e4:	9009      	str	r0, [sp, #36]	; 0x24
     8e6:	4ba0      	ldr	r3, [pc, #640]	; (b68 <_ZN14blink_nrf518227display11clear_image17h8a05d38a1b3eda46E+0x2c4>)
     8e8:	421c      	tst	r4, r3
     8ea:	d128      	bne.n	93e <_ZN14blink_nrf518227display11clear_image17h8a05d38a1b3eda46E+0x9a>
     8ec:	9b09      	ldr	r3, [sp, #36]	; 0x24
     8ee:	3b7f      	subs	r3, #127	; 0x7f
     8f0:	b2db      	uxtb	r3, r3
     8f2:	429e      	cmp	r6, r3
     8f4:	d123      	bne.n	93e <_ZN14blink_nrf518227display11clear_image17h8a05d38a1b3eda46E+0x9a>
     8f6:	9807      	ldr	r0, [sp, #28]
     8f8:	2840      	cmp	r0, #64	; 0x40
     8fa:	d120      	bne.n	93e <_ZN14blink_nrf518227display11clear_image17h8a05d38a1b3eda46E+0x9a>
     8fc:	9808      	ldr	r0, [sp, #32]
     8fe:	6841      	ldr	r1, [r0, #4]
     900:	9a04      	ldr	r2, [sp, #16]
     902:	4291      	cmp	r1, r2
     904:	d300      	bcc.n	908 <_ZN14blink_nrf518227display11clear_image17h8a05d38a1b3eda46E+0x64>
     906:	4611      	mov	r1, r2
     908:	2900      	cmp	r1, #0
     90a:	d00e      	beq.n	92a <_ZN14blink_nrf518227display11clear_image17h8a05d38a1b3eda46E+0x86>
     90c:	6800      	ldr	r0, [r0, #0]
     90e:	2200      	movs	r2, #0
     910:	4b9c      	ldr	r3, [pc, #624]	; (b84 <_ZN14blink_nrf518227display11clear_image17h8a05d38a1b3eda46E+0x2e0>)
     912:	189c      	adds	r4, r3, r2
     914:	2c00      	cmp	r4, #0
     916:	d008      	beq.n	92a <_ZN14blink_nrf518227display11clear_image17h8a05d38a1b3eda46E+0x86>
     918:	5c85      	ldrb	r5, [r0, r2]
     91a:	9e09      	ldr	r6, [sp, #36]	; 0x24
     91c:	4075      	eors	r5, r6
     91e:	7826      	ldrb	r6, [r4, #0]
     920:	402e      	ands	r6, r5
     922:	7026      	strb	r6, [r4, #0]
     924:	1c52      	adds	r2, r2, #1
     926:	428a      	cmp	r2, r1
     928:	d3f3      	bcc.n	912 <_ZN14blink_nrf518227display11clear_image17h8a05d38a1b3eda46E+0x6e>
     92a:	2001      	movs	r0, #1
     92c:	0280      	lsls	r0, r0, #10
     92e:	4995      	ldr	r1, [pc, #596]	; (b84 <_ZN14blink_nrf518227display11clear_image17h8a05d38a1b3eda46E+0x2e0>)
     930:	2200      	movs	r2, #0
     932:	540a      	strb	r2, [r1, r0]
     934:	4894      	ldr	r0, [pc, #592]	; (b88 <_ZN14blink_nrf518227display11clear_image17h8a05d38a1b3eda46E+0x2e4>)
     936:	2207      	movs	r2, #7
     938:	540a      	strb	r2, [r1, r0]
     93a:	b011      	add	sp, #68	; 0x44
     93c:	bdf0      	pop	{r4, r5, r6, r7, pc}
     93e:	4e8b      	ldr	r6, [pc, #556]	; (b6c <_ZN14blink_nrf518227display11clear_image17h8a05d38a1b3eda46E+0x2c8>)
     940:	4016      	ands	r6, r2
     942:	2d3f      	cmp	r5, #63	; 0x3f
     944:	9c08      	ldr	r4, [sp, #32]
     946:	dc70      	bgt.n	a2a <_ZN14blink_nrf518227display11clear_image17h8a05d38a1b3eda46E+0x186>
     948:	2e00      	cmp	r6, #0
     94a:	d16e      	bne.n	a2a <_ZN14blink_nrf518227display11clear_image17h8a05d38a1b3eda46E+0x186>
     94c:	9807      	ldr	r0, [sp, #28]
     94e:	2808      	cmp	r0, #8
     950:	d16b      	bne.n	a2a <_ZN14blink_nrf518227display11clear_image17h8a05d38a1b3eda46E+0x186>
     952:	2600      	movs	r6, #0
     954:	2f00      	cmp	r7, #0
     956:	9607      	str	r6, [sp, #28]
     958:	db00      	blt.n	95c <_ZN14blink_nrf518227display11clear_image17h8a05d38a1b3eda46E+0xb8>
     95a:	460e      	mov	r6, r1
     95c:	b233      	sxth	r3, r6
     95e:	0f28      	lsrs	r0, r5, #28
     960:	2407      	movs	r4, #7
     962:	4004      	ands	r4, r0
     964:	1910      	adds	r0, r2, r4
     966:	b200      	sxth	r0, r0
     968:	10c4      	asrs	r4, r0, #3
     96a:	01e0      	lsls	r0, r4, #7
     96c:	9a09      	ldr	r2, [sp, #36]	; 0x24
     96e:	01d2      	lsls	r2, r2, #7
     970:	4002      	ands	r2, r0
     972:	9303      	str	r3, [sp, #12]
     974:	9202      	str	r2, [sp, #8]
     976:	18d0      	adds	r0, r2, r3
     978:	227f      	movs	r2, #127	; 0x7f
     97a:	9b05      	ldr	r3, [sp, #20]
     97c:	2b7f      	cmp	r3, #127	; 0x7f
     97e:	dc00      	bgt.n	982 <_ZN14blink_nrf518227display11clear_image17h8a05d38a1b3eda46E+0xde>
     980:	461a      	mov	r2, r3
     982:	9405      	str	r4, [sp, #20]
     984:	1b93      	subs	r3, r2, r6
     986:	b21a      	sxth	r2, r3
     988:	1814      	adds	r4, r2, r0
     98a:	4294      	cmp	r4, r2
     98c:	9e07      	ldr	r6, [sp, #28]
     98e:	d200      	bcs.n	992 <_ZN14blink_nrf518227display11clear_image17h8a05d38a1b3eda46E+0xee>
     990:	9e06      	ldr	r6, [sp, #24]
     992:	4249      	negs	r1, r1
     994:	b209      	sxth	r1, r1
     996:	17fd      	asrs	r5, r7, #31
     998:	400d      	ands	r5, r1
     99a:	2e00      	cmp	r6, #0
     99c:	d000      	beq.n	9a0 <_ZN14blink_nrf518227display11clear_image17h8a05d38a1b3eda46E+0xfc>
     99e:	e0d6      	b.n	b4e <_ZN14blink_nrf518227display11clear_image17h8a05d38a1b3eda46E+0x2aa>
     9a0:	461f      	mov	r7, r3
     9a2:	9007      	str	r0, [sp, #28]
     9a4:	9904      	ldr	r1, [sp, #16]
     9a6:	428c      	cmp	r4, r1
     9a8:	d900      	bls.n	9ac <_ZN14blink_nrf518227display11clear_image17h8a05d38a1b3eda46E+0x108>
     9aa:	e0d3      	b.n	b54 <_ZN14blink_nrf518227display11clear_image17h8a05d38a1b3eda46E+0x2b0>
     9ac:	9808      	ldr	r0, [sp, #32]
     9ae:	6804      	ldr	r4, [r0, #0]
     9b0:	6841      	ldr	r1, [r0, #4]
     9b2:	1953      	adds	r3, r2, r5
     9b4:	2000      	movs	r0, #0
     9b6:	2601      	movs	r6, #1
     9b8:	4293      	cmp	r3, r2
     9ba:	d200      	bcs.n	9be <_ZN14blink_nrf518227display11clear_image17h8a05d38a1b3eda46E+0x11a>
     9bc:	4630      	mov	r0, r6
     9be:	2800      	cmp	r0, #0
     9c0:	d000      	beq.n	9c4 <_ZN14blink_nrf518227display11clear_image17h8a05d38a1b3eda46E+0x120>
     9c2:	e0ca      	b.n	b5a <_ZN14blink_nrf518227display11clear_image17h8a05d38a1b3eda46E+0x2b6>
     9c4:	428b      	cmp	r3, r1
     9c6:	d900      	bls.n	9ca <_ZN14blink_nrf518227display11clear_image17h8a05d38a1b3eda46E+0x126>
     9c8:	e0cb      	b.n	b62 <_ZN14blink_nrf518227display11clear_image17h8a05d38a1b3eda46E+0x2be>
     9ca:	1960      	adds	r0, r4, r5
     9cc:	4966      	ldr	r1, [pc, #408]	; (b68 <_ZN14blink_nrf518227display11clear_image17h8a05d38a1b3eda46E+0x2c4>)
     9ce:	420f      	tst	r7, r1
     9d0:	d014      	beq.n	9fc <_ZN14blink_nrf518227display11clear_image17h8a05d38a1b3eda46E+0x158>
     9d2:	4b6c      	ldr	r3, [pc, #432]	; (b84 <_ZN14blink_nrf518227display11clear_image17h8a05d38a1b3eda46E+0x2e0>)
     9d4:	9907      	ldr	r1, [sp, #28]
     9d6:	1859      	adds	r1, r3, r1
     9d8:	425b      	negs	r3, r3
     9da:	9c03      	ldr	r4, [sp, #12]
     9dc:	1b1b      	subs	r3, r3, r4
     9de:	9c02      	ldr	r4, [sp, #8]
     9e0:	1b1b      	subs	r3, r3, r4
     9e2:	2400      	movs	r4, #0
     9e4:	190d      	adds	r5, r1, r4
     9e6:	42a3      	cmp	r3, r4
     9e8:	d008      	beq.n	9fc <_ZN14blink_nrf518227display11clear_image17h8a05d38a1b3eda46E+0x158>
     9ea:	5d06      	ldrb	r6, [r0, r4]
     9ec:	9f09      	ldr	r7, [sp, #36]	; 0x24
     9ee:	407e      	eors	r6, r7
     9f0:	782f      	ldrb	r7, [r5, #0]
     9f2:	4037      	ands	r7, r6
     9f4:	702f      	strb	r7, [r5, #0]
     9f6:	1c64      	adds	r4, r4, #1
     9f8:	4294      	cmp	r4, r2
     9fa:	d3f3      	bcc.n	9e4 <_ZN14blink_nrf518227display11clear_image17h8a05d38a1b3eda46E+0x140>
     9fc:	2001      	movs	r0, #1
     9fe:	0281      	lsls	r1, r0, #10
     a00:	4860      	ldr	r0, [pc, #384]	; (b84 <_ZN14blink_nrf518227display11clear_image17h8a05d38a1b3eda46E+0x2e0>)
     a02:	5c43      	ldrb	r3, [r0, r1]
     a04:	9d05      	ldr	r5, [sp, #20]
     a06:	b2ea      	uxtb	r2, r5
     a08:	4293      	cmp	r3, r2
     a0a:	462c      	mov	r4, r5
     a0c:	d200      	bcs.n	a10 <_ZN14blink_nrf518227display11clear_image17h8a05d38a1b3eda46E+0x16c>
     a0e:	461c      	mov	r4, r3
     a10:	5444      	strb	r4, [r0, r1]
     a12:	495d      	ldr	r1, [pc, #372]	; (b88 <_ZN14blink_nrf518227display11clear_image17h8a05d38a1b3eda46E+0x2e4>)
     a14:	5c43      	ldrb	r3, [r0, r1]
     a16:	4293      	cmp	r3, r2
     a18:	461a      	mov	r2, r3
     a1a:	d200      	bcs.n	a1e <_ZN14blink_nrf518227display11clear_image17h8a05d38a1b3eda46E+0x17a>
     a1c:	462a      	mov	r2, r5
     a1e:	2b07      	cmp	r3, #7
     a20:	d800      	bhi.n	a24 <_ZN14blink_nrf518227display11clear_image17h8a05d38a1b3eda46E+0x180>
     a22:	4615      	mov	r5, r2
     a24:	5445      	strb	r5, [r0, r1]
     a26:	b011      	add	sp, #68	; 0x44
     a28:	bdf0      	pop	{r4, r5, r6, r7, pc}
     a2a:	9807      	ldr	r0, [sp, #28]
     a2c:	2808      	cmp	r0, #8
     a2e:	d179      	bne.n	b24 <_ZN14blink_nrf518227display11clear_image17h8a05d38a1b3eda46E+0x280>
     a30:	2600      	movs	r6, #0
     a32:	2f00      	cmp	r7, #0
     a34:	4630      	mov	r0, r6
     a36:	db00      	blt.n	a3a <_ZN14blink_nrf518227display11clear_image17h8a05d38a1b3eda46E+0x196>
     a38:	4608      	mov	r0, r1
     a3a:	9004      	str	r0, [sp, #16]
     a3c:	b200      	sxth	r0, r0
     a3e:	9009      	str	r0, [sp, #36]	; 0x24
     a40:	0f28      	lsrs	r0, r5, #28
     a42:	2307      	movs	r3, #7
     a44:	9307      	str	r3, [sp, #28]
     a46:	4018      	ands	r0, r3
     a48:	1810      	adds	r0, r2, r0
     a4a:	b200      	sxth	r0, r0
     a4c:	10c3      	asrs	r3, r0, #3
     a4e:	43f0      	mvns	r0, r6
     a50:	2d00      	cmp	r5, #0
     a52:	9003      	str	r0, [sp, #12]
     a54:	4605      	mov	r5, r0
     a56:	db00      	blt.n	a5a <_ZN14blink_nrf518227display11clear_image17h8a05d38a1b3eda46E+0x1b6>
     a58:	461d      	mov	r5, r3
     a5a:	01e8      	lsls	r0, r5, #7
     a5c:	9b09      	ldr	r3, [sp, #36]	; 0x24
     a5e:	18c0      	adds	r0, r0, r3
     a60:	9009      	str	r0, [sp, #36]	; 0x24
     a62:	267f      	movs	r6, #127	; 0x7f
     a64:	9805      	ldr	r0, [sp, #20]
     a66:	287f      	cmp	r0, #127	; 0x7f
     a68:	dc00      	bgt.n	a6c <_ZN14blink_nrf518227display11clear_image17h8a05d38a1b3eda46E+0x1c8>
     a6a:	4606      	mov	r6, r0
     a6c:	9804      	ldr	r0, [sp, #16]
     a6e:	1a30      	subs	r0, r6, r0
     a70:	b203      	sxth	r3, r0
     a72:	4248      	negs	r0, r1
     a74:	b200      	sxth	r0, r0
     a76:	17fe      	asrs	r6, r7, #31
     a78:	4006      	ands	r6, r0
     a7a:	3208      	adds	r2, #8
     a7c:	b210      	sxth	r0, r2
     a7e:	0f00      	lsrs	r0, r0, #28
     a80:	9907      	ldr	r1, [sp, #28]
     a82:	4008      	ands	r0, r1
     a84:	1810      	adds	r0, r2, r0
     a86:	4388      	bics	r0, r1
     a88:	1a17      	subs	r7, r2, r0
     a8a:	cc12      	ldmia	r4, {r1, r4}
     a8c:	2d00      	cmp	r5, #0
     a8e:	db26      	blt.n	ade <_ZN14blink_nrf518227display11clear_image17h8a05d38a1b3eda46E+0x23a>
     a90:	4668      	mov	r0, sp
     a92:	6006      	str	r6, [r0, #0]
     a94:	9308      	str	r3, [sp, #32]
     a96:	6043      	str	r3, [r0, #4]
     a98:	9107      	str	r1, [sp, #28]
     a9a:	4608      	mov	r0, r1
     a9c:	4621      	mov	r1, r4
     a9e:	463a      	mov	r2, r7
     aa0:	9b09      	ldr	r3, [sp, #36]	; 0x24
     aa2:	f7ff fcad 	bl	400 <_ZN14blink_nrf518227display11slice_paint17hbe2fd50aec4c889eE>
     aa6:	9806      	ldr	r0, [sp, #24]
     aa8:	0281      	lsls	r1, r0, #10
     aaa:	4836      	ldr	r0, [pc, #216]	; (b84 <_ZN14blink_nrf518227display11clear_image17h8a05d38a1b3eda46E+0x2e0>)
     aac:	5c43      	ldrb	r3, [r0, r1]
     aae:	b2ea      	uxtb	r2, r5
     ab0:	4293      	cmp	r3, r2
     ab2:	4628      	mov	r0, r5
     ab4:	d200      	bcs.n	ab8 <_ZN14blink_nrf518227display11clear_image17h8a05d38a1b3eda46E+0x214>
     ab6:	4618      	mov	r0, r3
     ab8:	4b32      	ldr	r3, [pc, #200]	; (b84 <_ZN14blink_nrf518227display11clear_image17h8a05d38a1b3eda46E+0x2e0>)
     aba:	5458      	strb	r0, [r3, r1]
     abc:	4932      	ldr	r1, [pc, #200]	; (b88 <_ZN14blink_nrf518227display11clear_image17h8a05d38a1b3eda46E+0x2e4>)
     abe:	5c5b      	ldrb	r3, [r3, r1]
     ac0:	4293      	cmp	r3, r2
     ac2:	461a      	mov	r2, r3
     ac4:	d200      	bcs.n	ac8 <_ZN14blink_nrf518227display11clear_image17h8a05d38a1b3eda46E+0x224>
     ac6:	462a      	mov	r2, r5
     ac8:	2b07      	cmp	r3, #7
     aca:	4628      	mov	r0, r5
     acc:	d800      	bhi.n	ad0 <_ZN14blink_nrf518227display11clear_image17h8a05d38a1b3eda46E+0x22c>
     ace:	4610      	mov	r0, r2
     ad0:	4a2c      	ldr	r2, [pc, #176]	; (b84 <_ZN14blink_nrf518227display11clear_image17h8a05d38a1b3eda46E+0x2e0>)
     ad2:	5450      	strb	r0, [r2, r1]
     ad4:	b228      	sxth	r0, r5
     ad6:	2806      	cmp	r0, #6
     ad8:	9b08      	ldr	r3, [sp, #32]
     ada:	9907      	ldr	r1, [sp, #28]
     adc:	dc35      	bgt.n	b4a <_ZN14blink_nrf518227display11clear_image17h8a05d38a1b3eda46E+0x2a6>
     ade:	4668      	mov	r0, sp
     ae0:	6006      	str	r6, [r0, #0]
     ae2:	6043      	str	r3, [r0, #4]
     ae4:	9803      	ldr	r0, [sp, #12]
     ae6:	1838      	adds	r0, r7, r0
     ae8:	1fc2      	subs	r2, r0, #7
     aea:	9b09      	ldr	r3, [sp, #36]	; 0x24
     aec:	3380      	adds	r3, #128	; 0x80
     aee:	4608      	mov	r0, r1
     af0:	4621      	mov	r1, r4
     af2:	f7ff fc85 	bl	400 <_ZN14blink_nrf518227display11slice_paint17hbe2fd50aec4c889eE>
     af6:	9806      	ldr	r0, [sp, #24]
     af8:	0282      	lsls	r2, r0, #10
     afa:	4822      	ldr	r0, [pc, #136]	; (b84 <_ZN14blink_nrf518227display11clear_image17h8a05d38a1b3eda46E+0x2e0>)
     afc:	5c84      	ldrb	r4, [r0, r2]
     afe:	1c69      	adds	r1, r5, #1
     b00:	b2cb      	uxtb	r3, r1
     b02:	429c      	cmp	r4, r3
     b04:	460d      	mov	r5, r1
     b06:	d200      	bcs.n	b0a <_ZN14blink_nrf518227display11clear_image17h8a05d38a1b3eda46E+0x266>
     b08:	4625      	mov	r5, r4
     b0a:	5485      	strb	r5, [r0, r2]
     b0c:	4a1e      	ldr	r2, [pc, #120]	; (b88 <_ZN14blink_nrf518227display11clear_image17h8a05d38a1b3eda46E+0x2e4>)
     b0e:	5c84      	ldrb	r4, [r0, r2]
     b10:	429c      	cmp	r4, r3
     b12:	4623      	mov	r3, r4
     b14:	d200      	bcs.n	b18 <_ZN14blink_nrf518227display11clear_image17h8a05d38a1b3eda46E+0x274>
     b16:	460b      	mov	r3, r1
     b18:	2c07      	cmp	r4, #7
     b1a:	d800      	bhi.n	b1e <_ZN14blink_nrf518227display11clear_image17h8a05d38a1b3eda46E+0x27a>
     b1c:	4619      	mov	r1, r3
     b1e:	5481      	strb	r1, [r0, r2]
     b20:	b011      	add	sp, #68	; 0x44
     b22:	bdf0      	pop	{r4, r5, r6, r7, pc}
     b24:	4812      	ldr	r0, [pc, #72]	; (b70 <_ZN14blink_nrf518227display11clear_image17h8a05d38a1b3eda46E+0x2cc>)
     b26:	900a      	str	r0, [sp, #40]	; 0x28
     b28:	9806      	ldr	r0, [sp, #24]
     b2a:	900b      	str	r0, [sp, #44]	; 0x2c
     b2c:	2400      	movs	r4, #0
     b2e:	940c      	str	r4, [sp, #48]	; 0x30
     b30:	4810      	ldr	r0, [pc, #64]	; (b74 <_ZN14blink_nrf518227display11clear_image17h8a05d38a1b3eda46E+0x2d0>)
     b32:	900e      	str	r0, [sp, #56]	; 0x38
     b34:	940f      	str	r4, [sp, #60]	; 0x3c
     b36:	a810      	add	r0, sp, #64	; 0x40
     b38:	490f      	ldr	r1, [pc, #60]	; (b78 <_ZN14blink_nrf518227display11clear_image17h8a05d38a1b3eda46E+0x2d4>)
     b3a:	aa0a      	add	r2, sp, #40	; 0x28
     b3c:	f002 ff02 	bl	3944 <_ZN4core3fmt5write17h56e3d15cb4a744eaE>
     b40:	480e      	ldr	r0, [pc, #56]	; (b7c <_ZN14blink_nrf518227display11clear_image17h8a05d38a1b3eda46E+0x2d8>)
     b42:	490f      	ldr	r1, [pc, #60]	; (b80 <_ZN14blink_nrf518227display11clear_image17h8a05d38a1b3eda46E+0x2dc>)
     b44:	4622      	mov	r2, r4
     b46:	f002 fb9f 	bl	3288 <_ZN4zinc3hal8nrf518224uart4Uart7writeln17h3374573b82f4d38aE>
     b4a:	b011      	add	sp, #68	; 0x44
     b4c:	bdf0      	pop	{r4, r5, r6, r7, pc}
     b4e:	4621      	mov	r1, r4
     b50:	f002 fe50 	bl	37f4 <_ZN4core5slice22slice_index_order_fail17h645d2e1a34e44416E>
     b54:	4620      	mov	r0, r4
     b56:	f002 fe2f 	bl	37b8 <_ZN4core5slice20slice_index_len_fail17hd87e5524007fa8c3E>
     b5a:	4628      	mov	r0, r5
     b5c:	4619      	mov	r1, r3
     b5e:	f002 fe49 	bl	37f4 <_ZN4core5slice22slice_index_order_fail17h645d2e1a34e44416E>
     b62:	4618      	mov	r0, r3
     b64:	f002 fe28 	bl	37b8 <_ZN4core5slice20slice_index_len_fail17hd87e5524007fa8c3E>
     b68:	0000ffff 	.word	0x0000ffff
     b6c:	00008007 	.word	0x00008007
     b70:	0000c8d0 	.word	0x0000c8d0
     b74:	00006648 	.word	0x00006648
     b78:	00006630 	.word	0x00006630
     b7c:	00006469 	.word	0x00006469
     b80:	00006648 	.word	0x00006648
     b84:	2000001c 	.word	0x2000001c
     b88:	00000401 	.word	0x00000401

00000b8c <rust_begin_unwind>:
     b8c:	b510      	push	{r4, lr}
     b8e:	b096      	sub	sp, #88	; 0x58
     b90:	ac0f      	add	r4, sp, #60	; 0x3c
     b92:	c40f      	stmia	r4!, {r0, r1, r2, r3}
     b94:	9818      	ldr	r0, [sp, #96]	; 0x60
     b96:	9013      	str	r0, [sp, #76]	; 0x4c
     b98:	9819      	ldr	r0, [sp, #100]	; 0x64
     b9a:	9014      	str	r0, [sp, #80]	; 0x50
     b9c:	981a      	ldr	r0, [sp, #104]	; 0x68
     b9e:	900d      	str	r0, [sp, #52]	; 0x34
     ba0:	981b      	ldr	r0, [sp, #108]	; 0x6c
     ba2:	900e      	str	r0, [sp, #56]	; 0x38
     ba4:	981c      	ldr	r0, [sp, #112]	; 0x70
     ba6:	900c      	str	r0, [sp, #48]	; 0x30
     ba8:	a80d      	add	r0, sp, #52	; 0x34
     baa:	9000      	str	r0, [sp, #0]
     bac:	480e      	ldr	r0, [pc, #56]	; (be8 <rust_begin_unwind+0x5c>)
     bae:	9001      	str	r0, [sp, #4]
     bb0:	a80c      	add	r0, sp, #48	; 0x30
     bb2:	9002      	str	r0, [sp, #8]
     bb4:	480d      	ldr	r0, [pc, #52]	; (bec <rust_begin_unwind+0x60>)
     bb6:	9003      	str	r0, [sp, #12]
     bb8:	a80f      	add	r0, sp, #60	; 0x3c
     bba:	9004      	str	r0, [sp, #16]
     bbc:	480c      	ldr	r0, [pc, #48]	; (bf0 <rust_begin_unwind+0x64>)
     bbe:	9005      	str	r0, [sp, #20]
     bc0:	480c      	ldr	r0, [pc, #48]	; (bf4 <rust_begin_unwind+0x68>)
     bc2:	9006      	str	r0, [sp, #24]
     bc4:	2003      	movs	r0, #3
     bc6:	9007      	str	r0, [sp, #28]
     bc8:	2400      	movs	r4, #0
     bca:	9408      	str	r4, [sp, #32]
     bcc:	4669      	mov	r1, sp
     bce:	910a      	str	r1, [sp, #40]	; 0x28
     bd0:	900b      	str	r0, [sp, #44]	; 0x2c
     bd2:	a815      	add	r0, sp, #84	; 0x54
     bd4:	4908      	ldr	r1, [pc, #32]	; (bf8 <rust_begin_unwind+0x6c>)
     bd6:	aa06      	add	r2, sp, #24
     bd8:	f002 feb4 	bl	3944 <_ZN4core3fmt5write17h56e3d15cb4a744eaE>
     bdc:	4807      	ldr	r0, [pc, #28]	; (bfc <rust_begin_unwind+0x70>)
     bde:	4908      	ldr	r1, [pc, #32]	; (c00 <rust_begin_unwind+0x74>)
     be0:	4622      	mov	r2, r4
     be2:	f002 fb51 	bl	3288 <_ZN4zinc3hal8nrf518224uart4Uart7writeln17h3374573b82f4d38aE>
     be6:	e7fe      	b.n	be6 <rust_begin_unwind+0x5a>
     be8:	00000167 	.word	0x00000167
     bec:	0000424d 	.word	0x0000424d
     bf0:	00003925 	.word	0x00003925
     bf4:	0000c8e4 	.word	0x0000c8e4
     bf8:	00006630 	.word	0x00006630
     bfc:	00006469 	.word	0x00006469
     c00:	00006648 	.word	0x00006648

00000c04 <isr_rtc0>:
     c04:	b5f0      	push	{r4, r5, r6, r7, lr}
     c06:	b083      	sub	sp, #12
     c08:	4851      	ldr	r0, [pc, #324]	; (d50 <isr_rtc0+0x14c>)
     c0a:	6802      	ldr	r2, [r0, #0]
     c0c:	2101      	movs	r1, #1
     c0e:	438a      	bics	r2, r1
     c10:	6002      	str	r2, [r0, #0]
     c12:	4d50      	ldr	r5, [pc, #320]	; (d54 <isr_rtc0+0x150>)
     c14:	6828      	ldr	r0, [r5, #0]
     c16:	1c44      	adds	r4, r0, #1
     c18:	602c      	str	r4, [r5, #0]
     c1a:	484f      	ldr	r0, [pc, #316]	; (d58 <isr_rtc0+0x154>)
     c1c:	6800      	ldr	r0, [r0, #0]
     c1e:	4284      	cmp	r4, r0
     c20:	d202      	bcs.n	c28 <isr_rtc0+0x24>
     c22:	4859      	ldr	r0, [pc, #356]	; (d88 <isr_rtc0+0x184>)
     c24:	7800      	ldrb	r0, [r0, #0]
     c26:	e045      	b.n	cb4 <isr_rtc0+0xb0>
     c28:	2400      	movs	r4, #0
     c2a:	602c      	str	r4, [r5, #0]
     c2c:	4f4b      	ldr	r7, [pc, #300]	; (d5c <isr_rtc0+0x158>)
     c2e:	6838      	ldr	r0, [r7, #0]
     c30:	1c43      	adds	r3, r0, #1
     c32:	603b      	str	r3, [r7, #0]
     c34:	484a      	ldr	r0, [pc, #296]	; (d60 <isr_rtc0+0x15c>)
     c36:	6842      	ldr	r2, [r0, #4]
     c38:	4e4a      	ldr	r6, [pc, #296]	; (d64 <isr_rtc0+0x160>)
     c3a:	4293      	cmp	r3, r2
     c3c:	d305      	bcc.n	c4a <isr_rtc0+0x46>
     c3e:	4b4a      	ldr	r3, [pc, #296]	; (d68 <isr_rtc0+0x164>)
     c40:	781b      	ldrb	r3, [r3, #0]
     c42:	2b00      	cmp	r3, #0
     c44:	d05b      	beq.n	cfe <isr_rtc0+0xfa>
     c46:	603c      	str	r4, [r7, #0]
     c48:	4623      	mov	r3, r4
     c4a:	4293      	cmp	r3, r2
     c4c:	d26e      	bcs.n	d2c <isr_rtc0+0x128>
     c4e:	6881      	ldr	r1, [r0, #8]
     c50:	2900      	cmp	r1, #0
     c52:	4634      	mov	r4, r6
     c54:	d06e      	beq.n	d34 <isr_rtc0+0x130>
     c56:	6800      	ldr	r0, [r0, #0]
     c58:	4e3f      	ldr	r6, [pc, #252]	; (d58 <isr_rtc0+0x154>)
     c5a:	2206      	movs	r2, #6
     c5c:	435a      	muls	r2, r3
     c5e:	5a87      	ldrh	r7, [r0, r2]
     c60:	1880      	adds	r0, r0, r2
     c62:	8845      	ldrh	r5, [r0, #2]
     c64:	8880      	ldrh	r0, [r0, #4]
     c66:	f003 fc3b 	bl	44e0 <__udivsi3>
     c6a:	2164      	movs	r1, #100	; 0x64
     c6c:	4341      	muls	r1, r0
     c6e:	6031      	str	r1, [r6, #0]
     c70:	2600      	movs	r6, #0
     c72:	2f00      	cmp	r7, #0
     c74:	4630      	mov	r0, r6
     c76:	d007      	beq.n	c88 <isr_rtc0+0x84>
     c78:	2f7f      	cmp	r7, #127	; 0x7f
     c7a:	d85e      	bhi.n	d3a <isr_rtc0+0x136>
     c7c:	00b8      	lsls	r0, r7, #2
     c7e:	4941      	ldr	r1, [pc, #260]	; (d84 <isr_rtc0+0x180>)
     c80:	5809      	ldr	r1, [r1, r0]
     c82:	4620      	mov	r0, r4
     c84:	f003 fc2c 	bl	44e0 <__udivsi3>
     c88:	4939      	ldr	r1, [pc, #228]	; (d70 <isr_rtc0+0x16c>)
     c8a:	6008      	str	r0, [r1, #0]
     c8c:	2d00      	cmp	r5, #0
     c8e:	d008      	beq.n	ca2 <isr_rtc0+0x9e>
     c90:	2d7f      	cmp	r5, #127	; 0x7f
     c92:	d857      	bhi.n	d44 <isr_rtc0+0x140>
     c94:	00a8      	lsls	r0, r5, #2
     c96:	493b      	ldr	r1, [pc, #236]	; (d84 <isr_rtc0+0x180>)
     c98:	5809      	ldr	r1, [r1, r0]
     c9a:	4620      	mov	r0, r4
     c9c:	f003 fc20 	bl	44e0 <__udivsi3>
     ca0:	4606      	mov	r6, r0
     ca2:	4834      	ldr	r0, [pc, #208]	; (d74 <isr_rtc0+0x170>)
     ca4:	6006      	str	r6, [r0, #0]
     ca6:	2001      	movs	r0, #1
     ca8:	2e00      	cmp	r6, #0
     caa:	d100      	bne.n	cae <isr_rtc0+0xaa>
     cac:	4630      	mov	r0, r6
     cae:	4936      	ldr	r1, [pc, #216]	; (d88 <isr_rtc0+0x184>)
     cb0:	7008      	strb	r0, [r1, #0]
     cb2:	2400      	movs	r4, #0
     cb4:	2800      	cmp	r0, #0
     cb6:	d005      	beq.n	cc4 <isr_rtc0+0xc0>
     cb8:	0960      	lsrs	r0, r4, #5
     cba:	2103      	movs	r1, #3
     cbc:	f003 fc96 	bl	45ec <__aeabi_uidivmod>
     cc0:	2900      	cmp	r1, #0
     cc2:	d001      	beq.n	cc8 <isr_rtc0+0xc4>
     cc4:	482a      	ldr	r0, [pc, #168]	; (d70 <isr_rtc0+0x16c>)
     cc6:	e000      	b.n	cca <isr_rtc0+0xc6>
     cc8:	482a      	ldr	r0, [pc, #168]	; (d74 <isr_rtc0+0x170>)
     cca:	6805      	ldr	r5, [r0, #0]
     ccc:	2d00      	cmp	r5, #0
     cce:	d00d      	beq.n	cec <isr_rtc0+0xe8>
     cd0:	4620      	mov	r0, r4
     cd2:	4629      	mov	r1, r5
     cd4:	f003 fc8a 	bl	45ec <__aeabi_uidivmod>
     cd8:	0868      	lsrs	r0, r5, #1
     cda:	4281      	cmp	r1, r0
     cdc:	d908      	bls.n	cf0 <isr_rtc0+0xec>
     cde:	a801      	add	r0, sp, #4
     ce0:	2103      	movs	r1, #3
     ce2:	7001      	strb	r1, [r0, #0]
     ce4:	f002 fb7a 	bl	33dc <_ZN70_$LT$zinc..hal..nrf51822..pin..Pin$u20$as$u20$zinc..hal..pin..Gpio$GT$8set_high17h09ae503968379acdE>
     ce8:	b003      	add	sp, #12
     cea:	bdf0      	pop	{r4, r5, r6, r7, pc}
     cec:	a802      	add	r0, sp, #8
     cee:	e000      	b.n	cf2 <isr_rtc0+0xee>
     cf0:	4668      	mov	r0, sp
     cf2:	2103      	movs	r1, #3
     cf4:	7001      	strb	r1, [r0, #0]
     cf6:	f002 fb7d 	bl	33f4 <_ZN70_$LT$zinc..hal..nrf51822..pin..Pin$u20$as$u20$zinc..hal..pin..Gpio$GT$7set_low17h6578afa11d7abdf5E>
     cfa:	b003      	add	sp, #12
     cfc:	bdf0      	pop	{r4, r5, r6, r7, pc}
     cfe:	4a1a      	ldr	r2, [pc, #104]	; (d68 <isr_rtc0+0x164>)
     d00:	7011      	strb	r1, [r2, #0]
     d02:	2300      	movs	r3, #0
     d04:	602b      	str	r3, [r5, #0]
     d06:	4a19      	ldr	r2, [pc, #100]	; (d6c <isr_rtc0+0x168>)
     d08:	6894      	ldr	r4, [r2, #8]
     d0a:	6084      	str	r4, [r0, #8]
     d0c:	6854      	ldr	r4, [r2, #4]
     d0e:	6044      	str	r4, [r0, #4]
     d10:	6812      	ldr	r2, [r2, #0]
     d12:	6002      	str	r2, [r0, #0]
     d14:	603b      	str	r3, [r7, #0]
     d16:	4810      	ldr	r0, [pc, #64]	; (d58 <isr_rtc0+0x154>)
     d18:	4602      	mov	r2, r0
     d1a:	6013      	str	r3, [r2, #0]
     d1c:	4814      	ldr	r0, [pc, #80]	; (d70 <isr_rtc0+0x16c>)
     d1e:	6003      	str	r3, [r0, #0]
     d20:	4814      	ldr	r0, [pc, #80]	; (d74 <isr_rtc0+0x170>)
     d22:	6003      	str	r3, [r0, #0]
     d24:	4814      	ldr	r0, [pc, #80]	; (d78 <isr_rtc0+0x174>)
     d26:	4634      	mov	r4, r6
     d28:	4616      	mov	r6, r2
     d2a:	e796      	b.n	c5a <isr_rtc0+0x56>
     d2c:	4813      	ldr	r0, [pc, #76]	; (d7c <isr_rtc0+0x178>)
     d2e:	4619      	mov	r1, r3
     d30:	f002 fd0c 	bl	374c <_ZN4core9panicking18panic_bounds_check17h613d9849b01f883fE>
     d34:	4815      	ldr	r0, [pc, #84]	; (d8c <isr_rtc0+0x188>)
     d36:	f002 fcf1 	bl	371c <_ZN4core9panicking5panic17hf227f8d5d60b7e39E>
     d3a:	4811      	ldr	r0, [pc, #68]	; (d80 <isr_rtc0+0x17c>)
     d3c:	2280      	movs	r2, #128	; 0x80
     d3e:	4639      	mov	r1, r7
     d40:	f002 fd04 	bl	374c <_ZN4core9panicking18panic_bounds_check17h613d9849b01f883fE>
     d44:	480e      	ldr	r0, [pc, #56]	; (d80 <isr_rtc0+0x17c>)
     d46:	2280      	movs	r2, #128	; 0x80
     d48:	4629      	mov	r1, r5
     d4a:	f002 fcff 	bl	374c <_ZN4core9panicking18panic_bounds_check17h613d9849b01f883fE>
     d4e:	46c0      	nop			; (mov r8, r8)
     d50:	4000b100 	.word	0x4000b100
     d54:	20000424 	.word	0x20000424
     d58:	2000042c 	.word	0x2000042c
     d5c:	20000428 	.word	0x20000428
     d60:	20000000 	.word	0x20000000
     d64:	00008cbe 	.word	0x00008cbe
     d68:	20000438 	.word	0x20000438
     d6c:	00006888 	.word	0x00006888
     d70:	20000430 	.word	0x20000430
     d74:	20000434 	.word	0x20000434
     d78:	00006664 	.word	0x00006664
     d7c:	00006894 	.word	0x00006894
     d80:	0000687c 	.word	0x0000687c
     d84:	00006670 	.word	0x00006670
     d88:	20000439 	.word	0x20000439
     d8c:	000068a0 	.word	0x000068a0

00000d90 <_ZN14blink_nrf518224main17h5d64dfdd3a94922fE>:
     d90:	b5f0      	push	{r4, r5, r6, r7, lr}
     d92:	b0db      	sub	sp, #364	; 0x16c
     d94:	48f9      	ldr	r0, [pc, #996]	; (117c <_ZN14blink_nrf518224main17h5d64dfdd3a94922fE+0x3ec>)
     d96:	f002 fca3 	bl	36e0 <_ZN4zinc3hal5stack15set_stack_limit17ha51ab4f6d9220120E>
     d9a:	48f9      	ldr	r0, [pc, #996]	; (1180 <_ZN14blink_nrf518224main17h5d64dfdd3a94922fE+0x3f0>)
     d9c:	49f9      	ldr	r1, [pc, #996]	; (1184 <_ZN14blink_nrf518224main17h5d64dfdd3a94922fE+0x3f4>)
     d9e:	4281      	cmp	r1, r0
     da0:	d204      	bcs.n	dac <_ZN14blink_nrf518224main17h5d64dfdd3a94922fE+0x1c>
     da2:	4af9      	ldr	r2, [pc, #996]	; (1188 <_ZN14blink_nrf518224main17h5d64dfdd3a94922fE+0x3f8>)
     da4:	ca08      	ldmia	r2!, {r3}
     da6:	c108      	stmia	r1!, {r3}
     da8:	4281      	cmp	r1, r0
     daa:	d3fb      	bcc.n	da4 <_ZN14blink_nrf518224main17h5d64dfdd3a94922fE+0x14>
     dac:	48f7      	ldr	r0, [pc, #988]	; (118c <_ZN14blink_nrf518224main17h5d64dfdd3a94922fE+0x3fc>)
     dae:	49f8      	ldr	r1, [pc, #992]	; (1190 <_ZN14blink_nrf518224main17h5d64dfdd3a94922fE+0x400>)
     db0:	e001      	b.n	db6 <_ZN14blink_nrf518224main17h5d64dfdd3a94922fE+0x26>
     db2:	2200      	movs	r2, #0
     db4:	c104      	stmia	r1!, {r2}
     db6:	4281      	cmp	r1, r0
     db8:	d3fb      	bcc.n	db2 <_ZN14blink_nrf518224main17h5d64dfdd3a94922fE+0x22>
     dba:	ac38      	add	r4, sp, #224	; 0xe0
     dbc:	2003      	movs	r0, #3
     dbe:	9002      	str	r0, [sp, #8]
     dc0:	7020      	strb	r0, [r4, #0]
     dc2:	ad55      	add	r5, sp, #340	; 0x154
     dc4:	4628      	mov	r0, r5
     dc6:	f002 fab7 	bl	3338 <_ZN78_$LT$zinc..hal..nrf51822..pin..PinConfig$u20$as$u20$core..default..Default$GT$7default17h113fa65e110f834cE>
     dca:	a939      	add	r1, sp, #228	; 0xe4
     dcc:	2001      	movs	r0, #1
     dce:	7008      	strb	r0, [r1, #0]
     dd0:	4607      	mov	r7, r0
     dd2:	7868      	ldrb	r0, [r5, #1]
     dd4:	7048      	strb	r0, [r1, #1]
     dd6:	8868      	ldrh	r0, [r5, #2]
     dd8:	7088      	strb	r0, [r1, #2]
     dda:	0a00      	lsrs	r0, r0, #8
     ddc:	70c8      	strb	r0, [r1, #3]
     dde:	9856      	ldr	r0, [sp, #344]	; 0x158
     de0:	7108      	strb	r0, [r1, #4]
     de2:	0a00      	lsrs	r0, r0, #8
     de4:	7148      	strb	r0, [r1, #5]
     de6:	4620      	mov	r0, r4
     de8:	f002 fab0 	bl	334c <_ZN4zinc3hal8nrf518223pin3Pin9configure17h2f1a50f67e0d9b41E>
     dec:	ac38      	add	r4, sp, #224	; 0xe0
     dee:	2002      	movs	r0, #2
     df0:	9031      	str	r0, [sp, #196]	; 0xc4
     df2:	7020      	strb	r0, [r4, #0]
     df4:	ae55      	add	r6, sp, #340	; 0x154
     df6:	4630      	mov	r0, r6
     df8:	f002 fa9e 	bl	3338 <_ZN78_$LT$zinc..hal..nrf51822..pin..PinConfig$u20$as$u20$core..default..Default$GT$7default17h113fa65e110f834cE>
     dfc:	a939      	add	r1, sp, #228	; 0xe4
     dfe:	700f      	strb	r7, [r1, #0]
     e00:	7870      	ldrb	r0, [r6, #1]
     e02:	7048      	strb	r0, [r1, #1]
     e04:	8870      	ldrh	r0, [r6, #2]
     e06:	7088      	strb	r0, [r1, #2]
     e08:	0a00      	lsrs	r0, r0, #8
     e0a:	70c8      	strb	r0, [r1, #3]
     e0c:	9856      	ldr	r0, [sp, #344]	; 0x158
     e0e:	7108      	strb	r0, [r1, #4]
     e10:	0a00      	lsrs	r0, r0, #8
     e12:	7148      	strb	r0, [r1, #5]
     e14:	4620      	mov	r0, r4
     e16:	f002 fa99 	bl	334c <_ZN4zinc3hal8nrf518223pin3Pin9configure17h2f1a50f67e0d9b41E>
     e1a:	ac38      	add	r4, sp, #224	; 0xe0
     e1c:	7027      	strb	r7, [r4, #0]
     e1e:	ae55      	add	r6, sp, #340	; 0x154
     e20:	4630      	mov	r0, r6
     e22:	f002 fa89 	bl	3338 <_ZN78_$LT$zinc..hal..nrf51822..pin..PinConfig$u20$as$u20$core..default..Default$GT$7default17h113fa65e110f834cE>
     e26:	a939      	add	r1, sp, #228	; 0xe4
     e28:	700f      	strb	r7, [r1, #0]
     e2a:	463d      	mov	r5, r7
     e2c:	7870      	ldrb	r0, [r6, #1]
     e2e:	7048      	strb	r0, [r1, #1]
     e30:	8870      	ldrh	r0, [r6, #2]
     e32:	7088      	strb	r0, [r1, #2]
     e34:	0a00      	lsrs	r0, r0, #8
     e36:	70c8      	strb	r0, [r1, #3]
     e38:	9856      	ldr	r0, [sp, #344]	; 0x158
     e3a:	7108      	strb	r0, [r1, #4]
     e3c:	0a00      	lsrs	r0, r0, #8
     e3e:	7148      	strb	r0, [r1, #5]
     e40:	4620      	mov	r0, r4
     e42:	f002 fa83 	bl	334c <_ZN4zinc3hal8nrf518223pin3Pin9configure17h2f1a50f67e0d9b41E>
     e46:	ac38      	add	r4, sp, #224	; 0xe0
     e48:	2004      	movs	r0, #4
     e4a:	7020      	strb	r0, [r4, #0]
     e4c:	ae55      	add	r6, sp, #340	; 0x154
     e4e:	4630      	mov	r0, r6
     e50:	f002 fa72 	bl	3338 <_ZN78_$LT$zinc..hal..nrf51822..pin..PinConfig$u20$as$u20$core..default..Default$GT$7default17h113fa65e110f834cE>
     e54:	a939      	add	r1, sp, #228	; 0xe4
     e56:	700d      	strb	r5, [r1, #0]
     e58:	7870      	ldrb	r0, [r6, #1]
     e5a:	7048      	strb	r0, [r1, #1]
     e5c:	8870      	ldrh	r0, [r6, #2]
     e5e:	7088      	strb	r0, [r1, #2]
     e60:	0a00      	lsrs	r0, r0, #8
     e62:	70c8      	strb	r0, [r1, #3]
     e64:	9856      	ldr	r0, [sp, #344]	; 0x158
     e66:	7108      	strb	r0, [r1, #4]
     e68:	0a00      	lsrs	r0, r0, #8
     e6a:	7148      	strb	r0, [r1, #5]
     e6c:	4620      	mov	r0, r4
     e6e:	f002 fa6d 	bl	334c <_ZN4zinc3hal8nrf518223pin3Pin9configure17h2f1a50f67e0d9b41E>
     e72:	ae38      	add	r6, sp, #224	; 0xe0
     e74:	2011      	movs	r0, #17
     e76:	901d      	str	r0, [sp, #116]	; 0x74
     e78:	7030      	strb	r0, [r6, #0]
     e7a:	af55      	add	r7, sp, #340	; 0x154
     e7c:	4638      	mov	r0, r7
     e7e:	f002 fa5b 	bl	3338 <_ZN78_$LT$zinc..hal..nrf51822..pin..PinConfig$u20$as$u20$core..default..Default$GT$7default17h113fa65e110f834cE>
     e82:	a939      	add	r1, sp, #228	; 0xe4
     e84:	2000      	movs	r0, #0
     e86:	9032      	str	r0, [sp, #200]	; 0xc8
     e88:	7008      	strb	r0, [r1, #0]
     e8a:	7878      	ldrb	r0, [r7, #1]
     e8c:	7048      	strb	r0, [r1, #1]
     e8e:	708d      	strb	r5, [r1, #2]
     e90:	9c31      	ldr	r4, [sp, #196]	; 0xc4
     e92:	70cc      	strb	r4, [r1, #3]
     e94:	9856      	ldr	r0, [sp, #344]	; 0x158
     e96:	7108      	strb	r0, [r1, #4]
     e98:	0a00      	lsrs	r0, r0, #8
     e9a:	7148      	strb	r0, [r1, #5]
     e9c:	4630      	mov	r0, r6
     e9e:	f002 fa55 	bl	334c <_ZN4zinc3hal8nrf518223pin3Pin9configure17h2f1a50f67e0d9b41E>
     ea2:	ae38      	add	r6, sp, #224	; 0xe0
     ea4:	201a      	movs	r0, #26
     ea6:	901c      	str	r0, [sp, #112]	; 0x70
     ea8:	7030      	strb	r0, [r6, #0]
     eaa:	af55      	add	r7, sp, #340	; 0x154
     eac:	4638      	mov	r0, r7
     eae:	f002 fa43 	bl	3338 <_ZN78_$LT$zinc..hal..nrf51822..pin..PinConfig$u20$as$u20$core..default..Default$GT$7default17h113fa65e110f834cE>
     eb2:	a939      	add	r1, sp, #228	; 0xe4
     eb4:	9832      	ldr	r0, [sp, #200]	; 0xc8
     eb6:	7008      	strb	r0, [r1, #0]
     eb8:	7878      	ldrb	r0, [r7, #1]
     eba:	7048      	strb	r0, [r1, #1]
     ebc:	9518      	str	r5, [sp, #96]	; 0x60
     ebe:	708d      	strb	r5, [r1, #2]
     ec0:	4625      	mov	r5, r4
     ec2:	70cd      	strb	r5, [r1, #3]
     ec4:	9856      	ldr	r0, [sp, #344]	; 0x158
     ec6:	7108      	strb	r0, [r1, #4]
     ec8:	0a00      	lsrs	r0, r0, #8
     eca:	7148      	strb	r0, [r1, #5]
     ecc:	4630      	mov	r0, r6
     ece:	f002 fa3d 	bl	334c <_ZN4zinc3hal8nrf518223pin3Pin9configure17h2f1a50f67e0d9b41E>
     ed2:	a855      	add	r0, sp, #340	; 0x154
     ed4:	f002 f94c 	bl	3170 <_ZN80_$LT$zinc..hal..nrf51822..uart..UartConfig$u20$as$u20$core..default..Default$GT$7default17hd7d2f48eca35a8cbE>
     ed8:	a939      	add	r1, sp, #228	; 0xe4
     eda:	9855      	ldr	r0, [sp, #340]	; 0x154
     edc:	7008      	strb	r0, [r1, #0]
     ede:	0a02      	lsrs	r2, r0, #8
     ee0:	704a      	strb	r2, [r1, #1]
     ee2:	0c02      	lsrs	r2, r0, #16
     ee4:	708a      	strb	r2, [r1, #2]
     ee6:	0e00      	lsrs	r0, r0, #24
     ee8:	70c8      	strb	r0, [r1, #3]
     eea:	48aa      	ldr	r0, [pc, #680]	; (1194 <_ZN14blink_nrf518224main17h5d64dfdd3a94922fE+0x404>)
     eec:	903a      	str	r0, [sp, #232]	; 0xe8
     eee:	9857      	ldr	r0, [sp, #348]	; 0x15c
     ef0:	7208      	strb	r0, [r1, #8]
     ef2:	0a00      	lsrs	r0, r0, #8
     ef4:	7248      	strb	r0, [r1, #9]
     ef6:	48a8      	ldr	r0, [pc, #672]	; (1198 <_ZN14blink_nrf518224main17h5d64dfdd3a94922fE+0x408>)
     ef8:	f002 f94a 	bl	3190 <_ZN4zinc3hal8nrf518224uart4Uart9configure17h17493f121eb501fbE>
     efc:	f002 fbb8 	bl	3670 <_ZN4zinc3hal8nrf518224init17h51562d4111ef066aE>
     f00:	48a6      	ldr	r0, [pc, #664]	; (119c <_ZN14blink_nrf518224main17h5d64dfdd3a94922fE+0x40c>)
     f02:	4607      	mov	r7, r0
     f04:	9716      	str	r7, [sp, #88]	; 0x58
     f06:	9c32      	ldr	r4, [sp, #200]	; 0xc8
     f08:	4621      	mov	r1, r4
     f0a:	f002 fb9f 	bl	364c <_ZN4zinc3hal8nrf518228sleep_us17h401a33623f589258E>
     f0e:	a939      	add	r1, sp, #228	; 0xe4
     f10:	201e      	movs	r0, #30
     f12:	7008      	strb	r0, [r1, #0]
     f14:	704c      	strb	r4, [r1, #1]
     f16:	20cd      	movs	r0, #205	; 0xcd
     f18:	04c0      	lsls	r0, r0, #19
     f1a:	903a      	str	r0, [sp, #232]	; 0xe8
     f1c:	ae38      	add	r6, sp, #224	; 0xe0
     f1e:	4630      	mov	r0, r6
     f20:	f002 faba 	bl	3498 <_ZN4zinc3hal8nrf518223twi3Twi9configure17h108966bd400b5c3aE>
     f24:	4638      	mov	r0, r7
     f26:	4621      	mov	r1, r4
     f28:	f002 fb90 	bl	364c <_ZN4zinc3hal8nrf518228sleep_us17h401a33623f589258E>
     f2c:	213c      	movs	r1, #60	; 0x3c
     f2e:	4630      	mov	r0, r6
     f30:	4626      	mov	r6, r4
     f32:	f002 fb03 	bl	353c <_ZN4zinc3hal8nrf518223twi3Twi11set_address17ha6077a6f118ede50E>
     f36:	4f9a      	ldr	r7, [pc, #616]	; (11a0 <_ZN14blink_nrf518224main17h5d64dfdd3a94922fE+0x410>)
     f38:	499a      	ldr	r1, [pc, #616]	; (11a4 <_ZN14blink_nrf518224main17h5d64dfdd3a94922fE+0x414>)
     f3a:	4638      	mov	r0, r7
     f3c:	462a      	mov	r2, r5
     f3e:	f002 fb07 	bl	3550 <_ZN4zinc3hal8nrf518223twi3Twi11write_bytes17h0e15bed708b2e767E>
     f42:	4c99      	ldr	r4, [pc, #612]	; (11a8 <_ZN14blink_nrf518224main17h5d64dfdd3a94922fE+0x418>)
     f44:	4620      	mov	r0, r4
     f46:	4631      	mov	r1, r6
     f48:	f002 fb80 	bl	364c <_ZN4zinc3hal8nrf518228sleep_us17h401a33623f589258E>
     f4c:	4997      	ldr	r1, [pc, #604]	; (11ac <_ZN14blink_nrf518224main17h5d64dfdd3a94922fE+0x41c>)
     f4e:	4638      	mov	r0, r7
     f50:	462a      	mov	r2, r5
     f52:	f002 fafd 	bl	3550 <_ZN4zinc3hal8nrf518223twi3Twi11write_bytes17h0e15bed708b2e767E>
     f56:	4996      	ldr	r1, [pc, #600]	; (11b0 <_ZN14blink_nrf518224main17h5d64dfdd3a94922fE+0x420>)
     f58:	4638      	mov	r0, r7
     f5a:	462a      	mov	r2, r5
     f5c:	f002 faf8 	bl	3550 <_ZN4zinc3hal8nrf518223twi3Twi11write_bytes17h0e15bed708b2e767E>
     f60:	4994      	ldr	r1, [pc, #592]	; (11b4 <_ZN14blink_nrf518224main17h5d64dfdd3a94922fE+0x424>)
     f62:	4638      	mov	r0, r7
     f64:	462a      	mov	r2, r5
     f66:	f002 faf3 	bl	3550 <_ZN4zinc3hal8nrf518223twi3Twi11write_bytes17h0e15bed708b2e767E>
     f6a:	9417      	str	r4, [sp, #92]	; 0x5c
     f6c:	4620      	mov	r0, r4
     f6e:	4631      	mov	r1, r6
     f70:	f002 fb6c 	bl	364c <_ZN4zinc3hal8nrf518228sleep_us17h401a33623f589258E>
     f74:	4990      	ldr	r1, [pc, #576]	; (11b8 <_ZN14blink_nrf518224main17h5d64dfdd3a94922fE+0x428>)
     f76:	4638      	mov	r0, r7
     f78:	462a      	mov	r2, r5
     f7a:	f002 fae9 	bl	3550 <_ZN4zinc3hal8nrf518223twi3Twi11write_bytes17h0e15bed708b2e767E>
     f7e:	4c8f      	ldr	r4, [pc, #572]	; (11bc <_ZN14blink_nrf518224main17h5d64dfdd3a94922fE+0x42c>)
     f80:	4638      	mov	r0, r7
     f82:	4621      	mov	r1, r4
     f84:	462a      	mov	r2, r5
     f86:	f002 fae3 	bl	3550 <_ZN4zinc3hal8nrf518223twi3Twi11write_bytes17h0e15bed708b2e767E>
     f8a:	498d      	ldr	r1, [pc, #564]	; (11c0 <_ZN14blink_nrf518224main17h5d64dfdd3a94922fE+0x430>)
     f8c:	4638      	mov	r0, r7
     f8e:	462a      	mov	r2, r5
     f90:	f002 fade 	bl	3550 <_ZN4zinc3hal8nrf518223twi3Twi11write_bytes17h0e15bed708b2e767E>
     f94:	4638      	mov	r0, r7
     f96:	4621      	mov	r1, r4
     f98:	462a      	mov	r2, r5
     f9a:	f002 fad9 	bl	3550 <_ZN4zinc3hal8nrf518223twi3Twi11write_bytes17h0e15bed708b2e767E>
     f9e:	4989      	ldr	r1, [pc, #548]	; (11c4 <_ZN14blink_nrf518224main17h5d64dfdd3a94922fE+0x434>)
     fa0:	4638      	mov	r0, r7
     fa2:	462a      	mov	r2, r5
     fa4:	f002 fad4 	bl	3550 <_ZN4zinc3hal8nrf518223twi3Twi11write_bytes17h0e15bed708b2e767E>
     fa8:	4987      	ldr	r1, [pc, #540]	; (11c8 <_ZN14blink_nrf518224main17h5d64dfdd3a94922fE+0x438>)
     faa:	4638      	mov	r0, r7
     fac:	462a      	mov	r2, r5
     fae:	f002 facf 	bl	3550 <_ZN4zinc3hal8nrf518223twi3Twi11write_bytes17h0e15bed708b2e767E>
     fb2:	a955      	add	r1, sp, #340	; 0x154
     fb4:	2080      	movs	r0, #128	; 0x80
     fb6:	9027      	str	r0, [sp, #156]	; 0x9c
     fb8:	7008      	strb	r0, [r1, #0]
     fba:	704e      	strb	r6, [r1, #1]
     fbc:	4638      	mov	r0, r7
     fbe:	462a      	mov	r2, r5
     fc0:	f002 fac6 	bl	3550 <_ZN4zinc3hal8nrf518223twi3Twi11write_bytes17h0e15bed708b2e767E>
     fc4:	4881      	ldr	r0, [pc, #516]	; (11cc <_ZN14blink_nrf518224main17h5d64dfdd3a94922fE+0x43c>)
     fc6:	7006      	strb	r6, [r0, #0]
     fc8:	f7ff f95e 	bl	288 <_ZN14blink_nrf518227display14update_display17h4431b73682dcb2eaE>
     fcc:	4980      	ldr	r1, [pc, #512]	; (11d0 <_ZN14blink_nrf518224main17h5d64dfdd3a94922fE+0x440>)
     fce:	4638      	mov	r0, r7
     fd0:	462a      	mov	r2, r5
     fd2:	462c      	mov	r4, r5
     fd4:	f002 fabc 	bl	3550 <_ZN4zinc3hal8nrf518223twi3Twi11write_bytes17h0e15bed708b2e767E>
     fd8:	497e      	ldr	r1, [pc, #504]	; (11d4 <_ZN14blink_nrf518224main17h5d64dfdd3a94922fE+0x444>)
     fda:	4638      	mov	r0, r7
     fdc:	4622      	mov	r2, r4
     fde:	f002 fab7 	bl	3550 <_ZN4zinc3hal8nrf518223twi3Twi11write_bytes17h0e15bed708b2e767E>
     fe2:	4d7d      	ldr	r5, [pc, #500]	; (11d8 <_ZN14blink_nrf518224main17h5d64dfdd3a94922fE+0x448>)
     fe4:	4628      	mov	r0, r5
     fe6:	4631      	mov	r1, r6
     fe8:	f002 fa20 	bl	342c <_ZN4zinc3hal8nrf518223rtc3Rtc13set_prescaler17hae06191e6aca63cbE>
     fec:	9816      	ldr	r0, [sp, #88]	; 0x58
     fee:	4631      	mov	r1, r6
     ff0:	f002 fb2c 	bl	364c <_ZN4zinc3hal8nrf518228sleep_us17h401a33623f589258E>
     ff4:	4628      	mov	r0, r5
     ff6:	f002 fa2f 	bl	3458 <_ZN4zinc3hal8nrf518223rtc3Rtc20enable_tick_iterrupt17hbc541056795a1989E>
     ffa:	200b      	movs	r0, #11
     ffc:	901f      	str	r0, [sp, #124]	; 0x7c
     ffe:	f002 fb55 	bl	36ac <_ZN4zinc3hal13cortex_common4nvic10enable_irq17he32362ef70d245d5E>
    1002:	4628      	mov	r0, r5
    1004:	f002 fa34 	bl	3470 <_ZN4zinc3hal8nrf518223rtc3Rtc5start17h02e603d0233048aeE>
    1008:	a839      	add	r0, sp, #228	; 0xe4
    100a:	3020      	adds	r0, #32
    100c:	902e      	str	r0, [sp, #184]	; 0xb8
    100e:	e000      	b.n	1012 <_ZN14blink_nrf518224main17h5d64dfdd3a94922fE+0x282>
    1010:	9e32      	ldr	r6, [sp, #200]	; 0xc8
    1012:	4972      	ldr	r1, [pc, #456]	; (11dc <_ZN14blink_nrf518224main17h5d64dfdd3a94922fE+0x44c>)
    1014:	af39      	add	r7, sp, #228	; 0xe4
    1016:	4638      	mov	r0, r7
    1018:	c93c      	ldmia	r1!, {r2, r3, r4, r5}
    101a:	c03c      	stmia	r0!, {r2, r3, r4, r5}
    101c:	c93c      	ldmia	r1!, {r2, r3, r4, r5}
    101e:	c03c      	stmia	r0!, {r2, r3, r4, r5}
    1020:	4638      	mov	r0, r7
    1022:	43f6      	mvns	r6, r6
    1024:	9630      	str	r6, [sp, #192]	; 0xc0
    1026:	9031      	str	r0, [sp, #196]	; 0xc4
    1028:	1d00      	adds	r0, r0, #4
    102a:	902f      	str	r0, [sp, #188]	; 0xbc
    102c:	4634      	mov	r4, r6
    102e:	1c64      	adds	r4, r4, #1
    1030:	2c05      	cmp	r4, #5
    1032:	dc46      	bgt.n	10c2 <_ZN14blink_nrf518224main17h5d64dfdd3a94922fE+0x332>
    1034:	486a      	ldr	r0, [pc, #424]	; (11e0 <_ZN14blink_nrf518224main17h5d64dfdd3a94922fE+0x450>)
    1036:	2100      	movs	r1, #0
    1038:	f002 fb08 	bl	364c <_ZN4zinc3hal8nrf518228sleep_us17h401a33623f589258E>
    103c:	4863      	ldr	r0, [pc, #396]	; (11cc <_ZN14blink_nrf518224main17h5d64dfdd3a94922fE+0x43c>)
    103e:	7806      	ldrb	r6, [r0, #0]
    1040:	9827      	ldr	r0, [sp, #156]	; 0x9c
    1042:	307f      	adds	r0, #127	; 0x7f
    1044:	b2c7      	uxtb	r7, r0
    1046:	42be      	cmp	r6, r7
    1048:	d02a      	beq.n	10a0 <_ZN14blink_nrf518224main17h5d64dfdd3a94922fE+0x310>
    104a:	2502      	movs	r5, #2
    104c:	4854      	ldr	r0, [pc, #336]	; (11a0 <_ZN14blink_nrf518224main17h5d64dfdd3a94922fE+0x410>)
    104e:	495e      	ldr	r1, [pc, #376]	; (11c8 <_ZN14blink_nrf518224main17h5d64dfdd3a94922fE+0x438>)
    1050:	462a      	mov	r2, r5
    1052:	f002 fa7d 	bl	3550 <_ZN4zinc3hal8nrf518223twi3Twi11write_bytes17h0e15bed708b2e767E>
    1056:	a955      	add	r1, sp, #340	; 0x154
    1058:	9827      	ldr	r0, [sp, #156]	; 0x9c
    105a:	7008      	strb	r0, [r1, #0]
    105c:	1cb6      	adds	r6, r6, #2
    105e:	704e      	strb	r6, [r1, #1]
    1060:	484f      	ldr	r0, [pc, #316]	; (11a0 <_ZN14blink_nrf518224main17h5d64dfdd3a94922fE+0x410>)
    1062:	462a      	mov	r2, r5
    1064:	f002 fa74 	bl	3550 <_ZN4zinc3hal8nrf518223twi3Twi11write_bytes17h0e15bed708b2e767E>
    1068:	4858      	ldr	r0, [pc, #352]	; (11cc <_ZN14blink_nrf518224main17h5d64dfdd3a94922fE+0x43c>)
    106a:	7006      	strb	r6, [r0, #0]
    106c:	b2f0      	uxtb	r0, r6
    106e:	42b8      	cmp	r0, r7
    1070:	d116      	bne.n	10a0 <_ZN14blink_nrf518224main17h5d64dfdd3a94922fE+0x310>
    1072:	9818      	ldr	r0, [sp, #96]	; 0x60
    1074:	495b      	ldr	r1, [pc, #364]	; (11e4 <_ZN14blink_nrf518224main17h5d64dfdd3a94922fE+0x454>)
    1076:	7008      	strb	r0, [r1, #0]
    1078:	2000      	movs	r0, #0
    107a:	495b      	ldr	r1, [pc, #364]	; (11e8 <_ZN14blink_nrf518224main17h5d64dfdd3a94922fE+0x458>)
    107c:	6008      	str	r0, [r1, #0]
    107e:	495b      	ldr	r1, [pc, #364]	; (11ec <_ZN14blink_nrf518224main17h5d64dfdd3a94922fE+0x45c>)
    1080:	460b      	mov	r3, r1
    1082:	6899      	ldr	r1, [r3, #8]
    1084:	4a5a      	ldr	r2, [pc, #360]	; (11f0 <_ZN14blink_nrf518224main17h5d64dfdd3a94922fE+0x460>)
    1086:	6091      	str	r1, [r2, #8]
    1088:	6859      	ldr	r1, [r3, #4]
    108a:	6051      	str	r1, [r2, #4]
    108c:	6819      	ldr	r1, [r3, #0]
    108e:	6011      	str	r1, [r2, #0]
    1090:	4958      	ldr	r1, [pc, #352]	; (11f4 <_ZN14blink_nrf518224main17h5d64dfdd3a94922fE+0x464>)
    1092:	6008      	str	r0, [r1, #0]
    1094:	4958      	ldr	r1, [pc, #352]	; (11f8 <_ZN14blink_nrf518224main17h5d64dfdd3a94922fE+0x468>)
    1096:	6008      	str	r0, [r1, #0]
    1098:	4958      	ldr	r1, [pc, #352]	; (11fc <_ZN14blink_nrf518224main17h5d64dfdd3a94922fE+0x46c>)
    109a:	6008      	str	r0, [r1, #0]
    109c:	4958      	ldr	r1, [pc, #352]	; (1200 <_ZN14blink_nrf518224main17h5d64dfdd3a94922fE+0x470>)
    109e:	6008      	str	r0, [r1, #0]
    10a0:	a855      	add	r0, sp, #340	; 0x154
    10a2:	991d      	ldr	r1, [sp, #116]	; 0x74
    10a4:	7001      	strb	r1, [r0, #0]
    10a6:	f002 f9b1 	bl	340c <_ZN70_$LT$zinc..hal..nrf51822..pin..Pin$u20$as$u20$zinc..hal..pin..Gpio$GT$5level17hd366ba0616e528fcE>
    10aa:	25ff      	movs	r5, #255	; 0xff
    10ac:	4228      	tst	r0, r5
    10ae:	9e30      	ldr	r6, [sp, #192]	; 0xc0
    10b0:	d015      	beq.n	10de <_ZN14blink_nrf518224main17h5d64dfdd3a94922fE+0x34e>
    10b2:	a838      	add	r0, sp, #224	; 0xe0
    10b4:	991c      	ldr	r1, [sp, #112]	; 0x70
    10b6:	7001      	strb	r1, [r0, #0]
    10b8:	f002 f9a8 	bl	340c <_ZN70_$LT$zinc..hal..nrf51822..pin..Pin$u20$as$u20$zinc..hal..pin..Gpio$GT$5level17hd366ba0616e528fcE>
    10bc:	4228      	tst	r0, r5
    10be:	d1b6      	bne.n	102e <_ZN14blink_nrf518224main17h5d64dfdd3a94922fE+0x29e>
    10c0:	e00d      	b.n	10de <_ZN14blink_nrf518224main17h5d64dfdd3a94922fE+0x34e>
    10c2:	9831      	ldr	r0, [sp, #196]	; 0xc4
    10c4:	6800      	ldr	r0, [r0, #0]
    10c6:	2100      	movs	r1, #0
    10c8:	460a      	mov	r2, r1
    10ca:	f7ff fa89 	bl	5e0 <_ZN14blink_nrf518227display4draw17haa5976ca818aacebE>
    10ce:	f7ff f8db 	bl	288 <_ZN14blink_nrf518227display14update_display17h4431b73682dcb2eaE>
    10d2:	982e      	ldr	r0, [sp, #184]	; 0xb8
    10d4:	992f      	ldr	r1, [sp, #188]	; 0xbc
    10d6:	4281      	cmp	r1, r0
    10d8:	4608      	mov	r0, r1
    10da:	d1a4      	bne.n	1026 <_ZN14blink_nrf518224main17h5d64dfdd3a94922fE+0x296>
    10dc:	e798      	b.n	1010 <_ZN14blink_nrf518224main17h5d64dfdd3a94922fE+0x280>
    10de:	9e18      	ldr	r6, [sp, #96]	; 0x60
    10e0:	4840      	ldr	r0, [pc, #256]	; (11e4 <_ZN14blink_nrf518224main17h5d64dfdd3a94922fE+0x454>)
    10e2:	7006      	strb	r6, [r0, #0]
    10e4:	2400      	movs	r4, #0
    10e6:	4840      	ldr	r0, [pc, #256]	; (11e8 <_ZN14blink_nrf518224main17h5d64dfdd3a94922fE+0x458>)
    10e8:	6004      	str	r4, [r0, #0]
    10ea:	4846      	ldr	r0, [pc, #280]	; (1204 <_ZN14blink_nrf518224main17h5d64dfdd3a94922fE+0x474>)
    10ec:	6881      	ldr	r1, [r0, #8]
    10ee:	4a40      	ldr	r2, [pc, #256]	; (11f0 <_ZN14blink_nrf518224main17h5d64dfdd3a94922fE+0x460>)
    10f0:	6091      	str	r1, [r2, #8]
    10f2:	6841      	ldr	r1, [r0, #4]
    10f4:	6051      	str	r1, [r2, #4]
    10f6:	6800      	ldr	r0, [r0, #0]
    10f8:	6010      	str	r0, [r2, #0]
    10fa:	483e      	ldr	r0, [pc, #248]	; (11f4 <_ZN14blink_nrf518224main17h5d64dfdd3a94922fE+0x464>)
    10fc:	6004      	str	r4, [r0, #0]
    10fe:	483e      	ldr	r0, [pc, #248]	; (11f8 <_ZN14blink_nrf518224main17h5d64dfdd3a94922fE+0x468>)
    1100:	6004      	str	r4, [r0, #0]
    1102:	483e      	ldr	r0, [pc, #248]	; (11fc <_ZN14blink_nrf518224main17h5d64dfdd3a94922fE+0x46c>)
    1104:	6004      	str	r4, [r0, #0]
    1106:	483e      	ldr	r0, [pc, #248]	; (1200 <_ZN14blink_nrf518224main17h5d64dfdd3a94922fE+0x470>)
    1108:	6004      	str	r4, [r0, #0]
    110a:	203f      	movs	r0, #63	; 0x3f
    110c:	0601      	lsls	r1, r0, #24
    110e:	4620      	mov	r0, r4
    1110:	f7ff f860 	bl	1d4 <_ZN14blink_nrf518227display7fade_to17h8c516a49d9bd70f0E>
    1114:	02b1      	lsls	r1, r6, #10
    1116:	9e30      	ldr	r6, [sp, #192]	; 0xc0
    1118:	483b      	ldr	r0, [pc, #236]	; (1208 <_ZN14blink_nrf518224main17h5d64dfdd3a94922fE+0x478>)
    111a:	912f      	str	r1, [sp, #188]	; 0xbc
    111c:	7004      	strb	r4, [r0, #0]
    111e:	1989      	adds	r1, r1, r6
    1120:	1c40      	adds	r0, r0, #1
    1122:	2900      	cmp	r1, #0
    1124:	d1fa      	bne.n	111c <_ZN14blink_nrf518224main17h5d64dfdd3a94922fE+0x38c>
    1126:	9523      	str	r5, [sp, #140]	; 0x8c
    1128:	9818      	ldr	r0, [sp, #96]	; 0x60
    112a:	0280      	lsls	r0, r0, #10
    112c:	4936      	ldr	r1, [pc, #216]	; (1208 <_ZN14blink_nrf518224main17h5d64dfdd3a94922fE+0x478>)
    112e:	540c      	strb	r4, [r1, r0]
    1130:	4836      	ldr	r0, [pc, #216]	; (120c <_ZN14blink_nrf518224main17h5d64dfdd3a94922fE+0x47c>)
    1132:	2207      	movs	r2, #7
    1134:	921b      	str	r2, [sp, #108]	; 0x6c
    1136:	540a      	strb	r2, [r1, r0]
    1138:	f7ff f8a6 	bl	288 <_ZN14blink_nrf518227display14update_display17h4431b73682dcb2eaE>
    113c:	4c18      	ldr	r4, [pc, #96]	; (11a0 <_ZN14blink_nrf518224main17h5d64dfdd3a94922fE+0x410>)
    113e:	4922      	ldr	r1, [pc, #136]	; (11c8 <_ZN14blink_nrf518224main17h5d64dfdd3a94922fE+0x438>)
    1140:	2502      	movs	r5, #2
    1142:	4620      	mov	r0, r4
    1144:	462a      	mov	r2, r5
    1146:	f002 fa03 	bl	3550 <_ZN4zinc3hal8nrf518223twi3Twi11write_bytes17h0e15bed708b2e767E>
    114a:	a955      	add	r1, sp, #340	; 0x154
    114c:	9827      	ldr	r0, [sp, #156]	; 0x9c
    114e:	7008      	strb	r0, [r1, #0]
    1150:	4607      	mov	r7, r0
    1152:	377f      	adds	r7, #127	; 0x7f
    1154:	704f      	strb	r7, [r1, #1]
    1156:	4620      	mov	r0, r4
    1158:	9524      	str	r5, [sp, #144]	; 0x90
    115a:	462a      	mov	r2, r5
    115c:	f002 f9f8 	bl	3550 <_ZN4zinc3hal8nrf518223twi3Twi11write_bytes17h0e15bed708b2e767E>
    1160:	9703      	str	r7, [sp, #12]
    1162:	481a      	ldr	r0, [pc, #104]	; (11cc <_ZN14blink_nrf518224main17h5d64dfdd3a94922fE+0x43c>)
    1164:	7007      	strb	r7, [r0, #0]
    1166:	4b2a      	ldr	r3, [pc, #168]	; (1210 <_ZN14blink_nrf518224main17h5d64dfdd3a94922fE+0x480>)
    1168:	6818      	ldr	r0, [r3, #0]
    116a:	2800      	cmp	r0, #0
    116c:	d052      	beq.n	1214 <_ZN14blink_nrf518224main17h5d64dfdd3a94922fE+0x484>
    116e:	1981      	adds	r1, r0, r6
    1170:	4a1f      	ldr	r2, [pc, #124]	; (11f0 <_ZN14blink_nrf518224main17h5d64dfdd3a94922fE+0x460>)
    1172:	68d0      	ldr	r0, [r2, #12]
    1174:	6917      	ldr	r7, [r2, #16]
    1176:	6956      	ldr	r6, [r2, #20]
    1178:	6994      	ldr	r4, [r2, #24]
    117a:	e05c      	b.n	1236 <_ZN14blink_nrf518224main17h5d64dfdd3a94922fE+0x4a6>
    117c:	20000448 	.word	0x20000448
    1180:	20000420 	.word	0x20000420
    1184:	20000000 	.word	0x20000000
    1188:	0000d01c 	.word	0x0000d01c
    118c:	20000440 	.word	0x20000440
    1190:	20000420 	.word	0x20000420
    1194:	01d7e000 	.word	0x01d7e000
    1198:	00006469 	.word	0x00006469
    119c:	000186a0 	.word	0x000186a0
    11a0:	00006469 	.word	0x00006469
    11a4:	00006648 	.word	0x00006648
    11a8:	00002710 	.word	0x00002710
    11ac:	0000664a 	.word	0x0000664a
    11b0:	0000664c 	.word	0x0000664c
    11b4:	0000664e 	.word	0x0000664e
    11b8:	00006650 	.word	0x00006650
    11bc:	00006652 	.word	0x00006652
    11c0:	0000665c 	.word	0x0000665c
    11c4:	0000665e 	.word	0x0000665e
    11c8:	00006469 	.word	0x00006469
    11cc:	20000420 	.word	0x20000420
    11d0:	00006660 	.word	0x00006660
    11d4:	00006662 	.word	0x00006662
    11d8:	0000c8c0 	.word	0x0000c8c0
    11dc:	00008914 	.word	0x00008914
    11e0:	00001388 	.word	0x00001388
    11e4:	20000438 	.word	0x20000438
    11e8:	20000424 	.word	0x20000424
    11ec:	00008f48 	.word	0x00008f48
    11f0:	20000000 	.word	0x20000000
    11f4:	20000428 	.word	0x20000428
    11f8:	2000042c 	.word	0x2000042c
    11fc:	20000430 	.word	0x20000430
    1200:	20000434 	.word	0x20000434
    1204:	00006888 	.word	0x00006888
    1208:	2000001c 	.word	0x2000001c
    120c:	00000401 	.word	0x00000401
    1210:	2000043c 	.word	0x2000043c
    1214:	a839      	add	r0, sp, #228	; 0xe4
    1216:	2110      	movs	r1, #16
    1218:	f002 fa00 	bl	361c <_ZN4zinc3hal8nrf518224rand9fill_rand17h7dfab05370fe1cccE>
    121c:	4be7      	ldr	r3, [pc, #924]	; (15bc <_ZN14blink_nrf518224main17h5d64dfdd3a94922fE+0x82c>)
    121e:	9839      	ldr	r0, [sp, #228]	; 0xe4
    1220:	4ae7      	ldr	r2, [pc, #924]	; (15c0 <_ZN14blink_nrf518224main17h5d64dfdd3a94922fE+0x830>)
    1222:	60d0      	str	r0, [r2, #12]
    1224:	9f3a      	ldr	r7, [sp, #232]	; 0xe8
    1226:	6117      	str	r7, [r2, #16]
    1228:	9e3b      	ldr	r6, [sp, #236]	; 0xec
    122a:	6156      	str	r6, [r2, #20]
    122c:	9c3c      	ldr	r4, [sp, #240]	; 0xf0
    122e:	6194      	str	r4, [r2, #24]
    1230:	2164      	movs	r1, #100	; 0x64
    1232:	6019      	str	r1, [r3, #0]
    1234:	2163      	movs	r1, #99	; 0x63
    1236:	912e      	str	r1, [sp, #184]	; 0xb8
    1238:	6019      	str	r1, [r3, #0]
    123a:	02c1      	lsls	r1, r0, #11
    123c:	4041      	eors	r1, r0
    123e:	0ce5      	lsrs	r5, r4, #19
    1240:	4065      	eors	r5, r4
    1242:	404d      	eors	r5, r1
    1244:	0a08      	lsrs	r0, r1, #8
    1246:	4068      	eors	r0, r5
    1248:	972d      	str	r7, [sp, #180]	; 0xb4
    124a:	60d7      	str	r7, [r2, #12]
    124c:	9632      	str	r6, [sp, #200]	; 0xc8
    124e:	6116      	str	r6, [r2, #16]
    1250:	6154      	str	r4, [r2, #20]
    1252:	6190      	str	r0, [r2, #24]
    1254:	2105      	movs	r1, #5
    1256:	9031      	str	r0, [sp, #196]	; 0xc4
    1258:	4615      	mov	r5, r2
    125a:	461e      	mov	r6, r3
    125c:	f003 f9c6 	bl	45ec <__aeabi_uidivmod>
    1260:	0088      	lsls	r0, r1, #2
    1262:	992e      	ldr	r1, [sp, #184]	; 0xb8
    1264:	9029      	str	r0, [sp, #164]	; 0xa4
    1266:	2900      	cmp	r1, #0
    1268:	d006      	beq.n	1278 <_ZN14blink_nrf518224main17h5d64dfdd3a94922fE+0x4e8>
    126a:	9830      	ldr	r0, [sp, #192]	; 0xc0
    126c:	180f      	adds	r7, r1, r0
    126e:	4630      	mov	r0, r6
    1270:	9b31      	ldr	r3, [sp, #196]	; 0xc4
    1272:	9e32      	ldr	r6, [sp, #200]	; 0xc8
    1274:	992d      	ldr	r1, [sp, #180]	; 0xb4
    1276:	e010      	b.n	129a <_ZN14blink_nrf518224main17h5d64dfdd3a94922fE+0x50a>
    1278:	a839      	add	r0, sp, #228	; 0xe4
    127a:	2110      	movs	r1, #16
    127c:	f002 f9ce 	bl	361c <_ZN4zinc3hal8nrf518224rand9fill_rand17h7dfab05370fe1cccE>
    1280:	9939      	ldr	r1, [sp, #228]	; 0xe4
    1282:	60e9      	str	r1, [r5, #12]
    1284:	4632      	mov	r2, r6
    1286:	9e3a      	ldr	r6, [sp, #232]	; 0xe8
    1288:	612e      	str	r6, [r5, #16]
    128a:	9c3b      	ldr	r4, [sp, #236]	; 0xec
    128c:	616c      	str	r4, [r5, #20]
    128e:	9b3c      	ldr	r3, [sp, #240]	; 0xf0
    1290:	61ab      	str	r3, [r5, #24]
    1292:	2064      	movs	r0, #100	; 0x64
    1294:	6010      	str	r0, [r2, #0]
    1296:	2763      	movs	r7, #99	; 0x63
    1298:	4610      	mov	r0, r2
    129a:	6007      	str	r7, [r0, #0]
    129c:	02c8      	lsls	r0, r1, #11
    129e:	4048      	eors	r0, r1
    12a0:	0cd9      	lsrs	r1, r3, #19
    12a2:	4059      	eors	r1, r3
    12a4:	4041      	eors	r1, r0
    12a6:	0a00      	lsrs	r0, r0, #8
    12a8:	4048      	eors	r0, r1
    12aa:	9632      	str	r6, [sp, #200]	; 0xc8
    12ac:	60ee      	str	r6, [r5, #12]
    12ae:	612c      	str	r4, [r5, #16]
    12b0:	9331      	str	r3, [sp, #196]	; 0xc4
    12b2:	616b      	str	r3, [r5, #20]
    12b4:	61a8      	str	r0, [r5, #24]
    12b6:	217f      	movs	r1, #127	; 0x7f
    12b8:	4606      	mov	r6, r0
    12ba:	f003 f997 	bl	45ec <__aeabi_uidivmod>
    12be:	912a      	str	r1, [sp, #168]	; 0xa8
    12c0:	2f00      	cmp	r7, #0
    12c2:	d007      	beq.n	12d4 <_ZN14blink_nrf518224main17h5d64dfdd3a94922fE+0x544>
    12c4:	9830      	ldr	r0, [sp, #192]	; 0xc0
    12c6:	1838      	adds	r0, r7, r0
    12c8:	902c      	str	r0, [sp, #176]	; 0xb0
    12ca:	462f      	mov	r7, r5
    12cc:	4abb      	ldr	r2, [pc, #748]	; (15bc <_ZN14blink_nrf518224main17h5d64dfdd3a94922fE+0x82c>)
    12ce:	9b31      	ldr	r3, [sp, #196]	; 0xc4
    12d0:	9932      	ldr	r1, [sp, #200]	; 0xc8
    12d2:	e011      	b.n	12f8 <_ZN14blink_nrf518224main17h5d64dfdd3a94922fE+0x568>
    12d4:	a839      	add	r0, sp, #228	; 0xe4
    12d6:	2110      	movs	r1, #16
    12d8:	f002 f9a0 	bl	361c <_ZN4zinc3hal8nrf518224rand9fill_rand17h7dfab05370fe1cccE>
    12dc:	9939      	ldr	r1, [sp, #228]	; 0xe4
    12de:	60e9      	str	r1, [r5, #12]
    12e0:	9c3a      	ldr	r4, [sp, #232]	; 0xe8
    12e2:	612c      	str	r4, [r5, #16]
    12e4:	9b3b      	ldr	r3, [sp, #236]	; 0xec
    12e6:	616b      	str	r3, [r5, #20]
    12e8:	9e3c      	ldr	r6, [sp, #240]	; 0xf0
    12ea:	61ae      	str	r6, [r5, #24]
    12ec:	2064      	movs	r0, #100	; 0x64
    12ee:	4ab3      	ldr	r2, [pc, #716]	; (15bc <_ZN14blink_nrf518224main17h5d64dfdd3a94922fE+0x82c>)
    12f0:	6010      	str	r0, [r2, #0]
    12f2:	2063      	movs	r0, #99	; 0x63
    12f4:	902c      	str	r0, [sp, #176]	; 0xb0
    12f6:	462f      	mov	r7, r5
    12f8:	9d2c      	ldr	r5, [sp, #176]	; 0xb0
    12fa:	6015      	str	r5, [r2, #0]
    12fc:	02c8      	lsls	r0, r1, #11
    12fe:	4048      	eors	r0, r1
    1300:	0cf1      	lsrs	r1, r6, #19
    1302:	4071      	eors	r1, r6
    1304:	4041      	eors	r1, r0
    1306:	0a00      	lsrs	r0, r0, #8
    1308:	4048      	eors	r0, r1
    130a:	60fc      	str	r4, [r7, #12]
    130c:	9331      	str	r3, [sp, #196]	; 0xc4
    130e:	613b      	str	r3, [r7, #16]
    1310:	962d      	str	r6, [sp, #180]	; 0xb4
    1312:	617e      	str	r6, [r7, #20]
    1314:	61b8      	str	r0, [r7, #24]
    1316:	2114      	movs	r1, #20
    1318:	902e      	str	r0, [sp, #184]	; 0xb8
    131a:	4616      	mov	r6, r2
    131c:	f003 f966 	bl	45ec <__aeabi_uidivmod>
    1320:	4608      	mov	r0, r1
    1322:	f004 f8af 	bl	5484 <__aeabi_ui2f>
    1326:	4601      	mov	r1, r0
    1328:	9818      	ldr	r0, [sp, #96]	; 0x60
    132a:	07c0      	lsls	r0, r0, #31
    132c:	9032      	str	r0, [sp, #200]	; 0xc8
    132e:	4041      	eors	r1, r0
    1330:	9128      	str	r1, [sp, #160]	; 0xa0
    1332:	2d00      	cmp	r5, #0
    1334:	d007      	beq.n	1346 <_ZN14blink_nrf518224main17h5d64dfdd3a94922fE+0x5b6>
    1336:	992c      	ldr	r1, [sp, #176]	; 0xb0
    1338:	9830      	ldr	r0, [sp, #192]	; 0xc0
    133a:	1809      	adds	r1, r1, r0
    133c:	4632      	mov	r2, r6
    133e:	9b31      	ldr	r3, [sp, #196]	; 0xc4
    1340:	9e2d      	ldr	r6, [sp, #180]	; 0xb4
    1342:	9d2e      	ldr	r5, [sp, #184]	; 0xb8
    1344:	e00f      	b.n	1366 <_ZN14blink_nrf518224main17h5d64dfdd3a94922fE+0x5d6>
    1346:	a839      	add	r0, sp, #228	; 0xe4
    1348:	2110      	movs	r1, #16
    134a:	f002 f967 	bl	361c <_ZN4zinc3hal8nrf518224rand9fill_rand17h7dfab05370fe1cccE>
    134e:	9c39      	ldr	r4, [sp, #228]	; 0xe4
    1350:	60fc      	str	r4, [r7, #12]
    1352:	9b3a      	ldr	r3, [sp, #232]	; 0xe8
    1354:	613b      	str	r3, [r7, #16]
    1356:	4632      	mov	r2, r6
    1358:	9e3b      	ldr	r6, [sp, #236]	; 0xec
    135a:	617e      	str	r6, [r7, #20]
    135c:	9d3c      	ldr	r5, [sp, #240]	; 0xf0
    135e:	61bd      	str	r5, [r7, #24]
    1360:	2064      	movs	r0, #100	; 0x64
    1362:	6010      	str	r0, [r2, #0]
    1364:	2163      	movs	r1, #99	; 0x63
    1366:	912c      	str	r1, [sp, #176]	; 0xb0
    1368:	6011      	str	r1, [r2, #0]
    136a:	02e0      	lsls	r0, r4, #11
    136c:	4060      	eors	r0, r4
    136e:	0ce9      	lsrs	r1, r5, #19
    1370:	4069      	eors	r1, r5
    1372:	4041      	eors	r1, r0
    1374:	0a04      	lsrs	r4, r0, #8
    1376:	404c      	eors	r4, r1
    1378:	9331      	str	r3, [sp, #196]	; 0xc4
    137a:	60fb      	str	r3, [r7, #12]
    137c:	962d      	str	r6, [sp, #180]	; 0xb4
    137e:	613e      	str	r6, [r7, #16]
    1380:	952e      	str	r5, [sp, #184]	; 0xb8
    1382:	617d      	str	r5, [r7, #20]
    1384:	61bc      	str	r4, [r7, #24]
    1386:	2114      	movs	r1, #20
    1388:	4620      	mov	r0, r4
    138a:	4615      	mov	r5, r2
    138c:	f003 f92e 	bl	45ec <__aeabi_uidivmod>
    1390:	310a      	adds	r1, #10
    1392:	4608      	mov	r0, r1
    1394:	f004 f876 	bl	5484 <__aeabi_ui2f>
    1398:	498a      	ldr	r1, [pc, #552]	; (15c4 <_ZN14blink_nrf518224main17h5d64dfdd3a94922fE+0x834>)
    139a:	f003 fb57 	bl	4a4c <__aeabi_fdiv>
    139e:	992c      	ldr	r1, [sp, #176]	; 0xb0
    13a0:	9026      	str	r0, [sp, #152]	; 0x98
    13a2:	2900      	cmp	r1, #0
    13a4:	d007      	beq.n	13b6 <_ZN14blink_nrf518224main17h5d64dfdd3a94922fE+0x626>
    13a6:	9830      	ldr	r0, [sp, #192]	; 0xc0
    13a8:	1808      	adds	r0, r1, r0
    13aa:	902c      	str	r0, [sp, #176]	; 0xb0
    13ac:	4628      	mov	r0, r5
    13ae:	9931      	ldr	r1, [sp, #196]	; 0xc4
    13b0:	9b2d      	ldr	r3, [sp, #180]	; 0xb4
    13b2:	9a2e      	ldr	r2, [sp, #184]	; 0xb8
    13b4:	e010      	b.n	13d8 <_ZN14blink_nrf518224main17h5d64dfdd3a94922fE+0x648>
    13b6:	a839      	add	r0, sp, #228	; 0xe4
    13b8:	2110      	movs	r1, #16
    13ba:	f002 f92f 	bl	361c <_ZN4zinc3hal8nrf518224rand9fill_rand17h7dfab05370fe1cccE>
    13be:	9939      	ldr	r1, [sp, #228]	; 0xe4
    13c0:	60f9      	str	r1, [r7, #12]
    13c2:	9b3a      	ldr	r3, [sp, #232]	; 0xe8
    13c4:	613b      	str	r3, [r7, #16]
    13c6:	9a3b      	ldr	r2, [sp, #236]	; 0xec
    13c8:	617a      	str	r2, [r7, #20]
    13ca:	9c3c      	ldr	r4, [sp, #240]	; 0xf0
    13cc:	61bc      	str	r4, [r7, #24]
    13ce:	2064      	movs	r0, #100	; 0x64
    13d0:	6028      	str	r0, [r5, #0]
    13d2:	2063      	movs	r0, #99	; 0x63
    13d4:	902c      	str	r0, [sp, #176]	; 0xb0
    13d6:	4628      	mov	r0, r5
    13d8:	9e2c      	ldr	r6, [sp, #176]	; 0xb0
    13da:	6006      	str	r6, [r0, #0]
    13dc:	02c8      	lsls	r0, r1, #11
    13de:	4048      	eors	r0, r1
    13e0:	0ce1      	lsrs	r1, r4, #19
    13e2:	4061      	eors	r1, r4
    13e4:	4041      	eors	r1, r0
    13e6:	0a05      	lsrs	r5, r0, #8
    13e8:	404d      	eors	r5, r1
    13ea:	932d      	str	r3, [sp, #180]	; 0xb4
    13ec:	60fb      	str	r3, [r7, #12]
    13ee:	922e      	str	r2, [sp, #184]	; 0xb8
    13f0:	4638      	mov	r0, r7
    13f2:	3010      	adds	r0, #16
    13f4:	c034      	stmia	r0!, {r2, r4, r5}
    13f6:	2105      	movs	r1, #5
    13f8:	4628      	mov	r0, r5
    13fa:	f003 f8f7 	bl	45ec <__aeabi_uidivmod>
    13fe:	0088      	lsls	r0, r1, #2
    1400:	9022      	str	r0, [sp, #136]	; 0x88
    1402:	2e00      	cmp	r6, #0
    1404:	d009      	beq.n	141a <_ZN14blink_nrf518224main17h5d64dfdd3a94922fE+0x68a>
    1406:	9830      	ldr	r0, [sp, #192]	; 0xc0
    1408:	992c      	ldr	r1, [sp, #176]	; 0xb0
    140a:	1808      	adds	r0, r1, r0
    140c:	9031      	str	r0, [sp, #196]	; 0xc4
    140e:	463e      	mov	r6, r7
    1410:	486a      	ldr	r0, [pc, #424]	; (15bc <_ZN14blink_nrf518224main17h5d64dfdd3a94922fE+0x82c>)
    1412:	992d      	ldr	r1, [sp, #180]	; 0xb4
    1414:	9b2e      	ldr	r3, [sp, #184]	; 0xb8
    1416:	462a      	mov	r2, r5
    1418:	e012      	b.n	1440 <_ZN14blink_nrf518224main17h5d64dfdd3a94922fE+0x6b0>
    141a:	a839      	add	r0, sp, #228	; 0xe4
    141c:	2110      	movs	r1, #16
    141e:	f002 f8fd 	bl	361c <_ZN4zinc3hal8nrf518224rand9fill_rand17h7dfab05370fe1cccE>
    1422:	9939      	ldr	r1, [sp, #228]	; 0xe4
    1424:	60f9      	str	r1, [r7, #12]
    1426:	9b3a      	ldr	r3, [sp, #232]	; 0xe8
    1428:	613b      	str	r3, [r7, #16]
    142a:	9c3b      	ldr	r4, [sp, #236]	; 0xec
    142c:	617c      	str	r4, [r7, #20]
    142e:	9a3c      	ldr	r2, [sp, #240]	; 0xf0
    1430:	61ba      	str	r2, [r7, #24]
    1432:	2064      	movs	r0, #100	; 0x64
    1434:	4d61      	ldr	r5, [pc, #388]	; (15bc <_ZN14blink_nrf518224main17h5d64dfdd3a94922fE+0x82c>)
    1436:	6028      	str	r0, [r5, #0]
    1438:	2063      	movs	r0, #99	; 0x63
    143a:	9031      	str	r0, [sp, #196]	; 0xc4
    143c:	463e      	mov	r6, r7
    143e:	4628      	mov	r0, r5
    1440:	9d31      	ldr	r5, [sp, #196]	; 0xc4
    1442:	6005      	str	r5, [r0, #0]
    1444:	02c8      	lsls	r0, r1, #11
    1446:	4048      	eors	r0, r1
    1448:	0cd1      	lsrs	r1, r2, #19
    144a:	4051      	eors	r1, r2
    144c:	4041      	eors	r1, r0
    144e:	0a07      	lsrs	r7, r0, #8
    1450:	404f      	eors	r7, r1
    1452:	932e      	str	r3, [sp, #184]	; 0xb8
    1454:	60f3      	str	r3, [r6, #12]
    1456:	6134      	str	r4, [r6, #16]
    1458:	922d      	str	r2, [sp, #180]	; 0xb4
    145a:	6172      	str	r2, [r6, #20]
    145c:	61b7      	str	r7, [r6, #24]
    145e:	217f      	movs	r1, #127	; 0x7f
    1460:	4638      	mov	r0, r7
    1462:	f003 f8c3 	bl	45ec <__aeabi_uidivmod>
    1466:	9125      	str	r1, [sp, #148]	; 0x94
    1468:	2d00      	cmp	r5, #0
    146a:	d006      	beq.n	147a <_ZN14blink_nrf518224main17h5d64dfdd3a94922fE+0x6ea>
    146c:	9830      	ldr	r0, [sp, #192]	; 0xc0
    146e:	9931      	ldr	r1, [sp, #196]	; 0xc4
    1470:	180b      	adds	r3, r1, r0
    1472:	4852      	ldr	r0, [pc, #328]	; (15bc <_ZN14blink_nrf518224main17h5d64dfdd3a94922fE+0x82c>)
    1474:	992e      	ldr	r1, [sp, #184]	; 0xb8
    1476:	9a2d      	ldr	r2, [sp, #180]	; 0xb4
    1478:	e011      	b.n	149e <_ZN14blink_nrf518224main17h5d64dfdd3a94922fE+0x70e>
    147a:	a839      	add	r0, sp, #228	; 0xe4
    147c:	2110      	movs	r1, #16
    147e:	f002 f8cd 	bl	361c <_ZN4zinc3hal8nrf518224rand9fill_rand17h7dfab05370fe1cccE>
    1482:	9939      	ldr	r1, [sp, #228]	; 0xe4
    1484:	60f1      	str	r1, [r6, #12]
    1486:	9c3a      	ldr	r4, [sp, #232]	; 0xe8
    1488:	6134      	str	r4, [r6, #16]
    148a:	9a3b      	ldr	r2, [sp, #236]	; 0xec
    148c:	6172      	str	r2, [r6, #20]
    148e:	9f3c      	ldr	r7, [sp, #240]	; 0xf0
    1490:	61b7      	str	r7, [r6, #24]
    1492:	2064      	movs	r0, #100	; 0x64
    1494:	4b49      	ldr	r3, [pc, #292]	; (15bc <_ZN14blink_nrf518224main17h5d64dfdd3a94922fE+0x82c>)
    1496:	461d      	mov	r5, r3
    1498:	6028      	str	r0, [r5, #0]
    149a:	2363      	movs	r3, #99	; 0x63
    149c:	4628      	mov	r0, r5
    149e:	6003      	str	r3, [r0, #0]
    14a0:	02c8      	lsls	r0, r1, #11
    14a2:	4048      	eors	r0, r1
    14a4:	0cf9      	lsrs	r1, r7, #19
    14a6:	4079      	eors	r1, r7
    14a8:	4041      	eors	r1, r0
    14aa:	0a00      	lsrs	r0, r0, #8
    14ac:	4048      	eors	r0, r1
    14ae:	942e      	str	r4, [sp, #184]	; 0xb8
    14b0:	60f4      	str	r4, [r6, #12]
    14b2:	4615      	mov	r5, r2
    14b4:	6132      	str	r2, [r6, #16]
    14b6:	6177      	str	r7, [r6, #20]
    14b8:	61b0      	str	r0, [r6, #24]
    14ba:	2114      	movs	r1, #20
    14bc:	9031      	str	r0, [sp, #196]	; 0xc4
    14be:	461c      	mov	r4, r3
    14c0:	f003 f894 	bl	45ec <__aeabi_uidivmod>
    14c4:	4608      	mov	r0, r1
    14c6:	f003 ffdd 	bl	5484 <__aeabi_ui2f>
    14ca:	4601      	mov	r1, r0
    14cc:	9832      	ldr	r0, [sp, #200]	; 0xc8
    14ce:	4041      	eors	r1, r0
    14d0:	9121      	str	r1, [sp, #132]	; 0x84
    14d2:	2c00      	cmp	r4, #0
    14d4:	d006      	beq.n	14e4 <_ZN14blink_nrf518224main17h5d64dfdd3a94922fE+0x754>
    14d6:	9830      	ldr	r0, [sp, #192]	; 0xc0
    14d8:	1820      	adds	r0, r4, r0
    14da:	4632      	mov	r2, r6
    14dc:	4e37      	ldr	r6, [pc, #220]	; (15bc <_ZN14blink_nrf518224main17h5d64dfdd3a94922fE+0x82c>)
    14de:	9b31      	ldr	r3, [sp, #196]	; 0xc4
    14e0:	992e      	ldr	r1, [sp, #184]	; 0xb8
    14e2:	e012      	b.n	150a <_ZN14blink_nrf518224main17h5d64dfdd3a94922fE+0x77a>
    14e4:	a839      	add	r0, sp, #228	; 0xe4
    14e6:	2110      	movs	r1, #16
    14e8:	f002 f898 	bl	361c <_ZN4zinc3hal8nrf518224rand9fill_rand17h7dfab05370fe1cccE>
    14ec:	9939      	ldr	r1, [sp, #228]	; 0xe4
    14ee:	60f1      	str	r1, [r6, #12]
    14f0:	9d3a      	ldr	r5, [sp, #232]	; 0xe8
    14f2:	6135      	str	r5, [r6, #16]
    14f4:	9f3b      	ldr	r7, [sp, #236]	; 0xec
    14f6:	6177      	str	r7, [r6, #20]
    14f8:	9b3c      	ldr	r3, [sp, #240]	; 0xf0
    14fa:	61b3      	str	r3, [r6, #24]
    14fc:	2064      	movs	r0, #100	; 0x64
    14fe:	4a2f      	ldr	r2, [pc, #188]	; (15bc <_ZN14blink_nrf518224main17h5d64dfdd3a94922fE+0x82c>)
    1500:	4614      	mov	r4, r2
    1502:	6020      	str	r0, [r4, #0]
    1504:	2063      	movs	r0, #99	; 0x63
    1506:	4632      	mov	r2, r6
    1508:	4626      	mov	r6, r4
    150a:	902e      	str	r0, [sp, #184]	; 0xb8
    150c:	6030      	str	r0, [r6, #0]
    150e:	02c8      	lsls	r0, r1, #11
    1510:	4048      	eors	r0, r1
    1512:	0cd9      	lsrs	r1, r3, #19
    1514:	4059      	eors	r1, r3
    1516:	4041      	eors	r1, r0
    1518:	0a04      	lsrs	r4, r0, #8
    151a:	404c      	eors	r4, r1
    151c:	60d5      	str	r5, [r2, #12]
    151e:	6117      	str	r7, [r2, #16]
    1520:	9331      	str	r3, [sp, #196]	; 0xc4
    1522:	6153      	str	r3, [r2, #20]
    1524:	6194      	str	r4, [r2, #24]
    1526:	2114      	movs	r1, #20
    1528:	4620      	mov	r0, r4
    152a:	f003 f85f 	bl	45ec <__aeabi_uidivmod>
    152e:	310a      	adds	r1, #10
    1530:	4608      	mov	r0, r1
    1532:	f003 ffa7 	bl	5484 <__aeabi_ui2f>
    1536:	4923      	ldr	r1, [pc, #140]	; (15c4 <_ZN14blink_nrf518224main17h5d64dfdd3a94922fE+0x834>)
    1538:	f003 fa88 	bl	4a4c <__aeabi_fdiv>
    153c:	992e      	ldr	r1, [sp, #184]	; 0xb8
    153e:	9020      	str	r0, [sp, #128]	; 0x80
    1540:	2900      	cmp	r1, #0
    1542:	d007      	beq.n	1554 <_ZN14blink_nrf518224main17h5d64dfdd3a94922fE+0x7c4>
    1544:	9830      	ldr	r0, [sp, #192]	; 0xc0
    1546:	1808      	adds	r0, r1, r0
    1548:	902e      	str	r0, [sp, #184]	; 0xb8
    154a:	4630      	mov	r0, r6
    154c:	4e1c      	ldr	r6, [pc, #112]	; (15c0 <_ZN14blink_nrf518224main17h5d64dfdd3a94922fE+0x830>)
    154e:	9b31      	ldr	r3, [sp, #196]	; 0xc4
    1550:	463a      	mov	r2, r7
    1552:	e013      	b.n	157c <_ZN14blink_nrf518224main17h5d64dfdd3a94922fE+0x7ec>
    1554:	a839      	add	r0, sp, #228	; 0xe4
    1556:	2110      	movs	r1, #16
    1558:	f002 f860 	bl	361c <_ZN4zinc3hal8nrf518224rand9fill_rand17h7dfab05370fe1cccE>
    155c:	9d39      	ldr	r5, [sp, #228]	; 0xe4
    155e:	4818      	ldr	r0, [pc, #96]	; (15c0 <_ZN14blink_nrf518224main17h5d64dfdd3a94922fE+0x830>)
    1560:	4601      	mov	r1, r0
    1562:	60cd      	str	r5, [r1, #12]
    1564:	9a3a      	ldr	r2, [sp, #232]	; 0xe8
    1566:	610a      	str	r2, [r1, #16]
    1568:	9b3b      	ldr	r3, [sp, #236]	; 0xec
    156a:	614b      	str	r3, [r1, #20]
    156c:	9c3c      	ldr	r4, [sp, #240]	; 0xf0
    156e:	618c      	str	r4, [r1, #24]
    1570:	2064      	movs	r0, #100	; 0x64
    1572:	6030      	str	r0, [r6, #0]
    1574:	2063      	movs	r0, #99	; 0x63
    1576:	902e      	str	r0, [sp, #184]	; 0xb8
    1578:	4630      	mov	r0, r6
    157a:	460e      	mov	r6, r1
    157c:	9f2e      	ldr	r7, [sp, #184]	; 0xb8
    157e:	6007      	str	r7, [r0, #0]
    1580:	02e8      	lsls	r0, r5, #11
    1582:	4068      	eors	r0, r5
    1584:	0ce1      	lsrs	r1, r4, #19
    1586:	4061      	eors	r1, r4
    1588:	4041      	eors	r1, r0
    158a:	0a00      	lsrs	r0, r0, #8
    158c:	4048      	eors	r0, r1
    158e:	922d      	str	r2, [sp, #180]	; 0xb4
    1590:	60f2      	str	r2, [r6, #12]
    1592:	9331      	str	r3, [sp, #196]	; 0xc4
    1594:	6133      	str	r3, [r6, #16]
    1596:	6174      	str	r4, [r6, #20]
    1598:	61b0      	str	r0, [r6, #24]
    159a:	2105      	movs	r1, #5
    159c:	4605      	mov	r5, r0
    159e:	f003 f825 	bl	45ec <__aeabi_uidivmod>
    15a2:	0088      	lsls	r0, r1, #2
    15a4:	9019      	str	r0, [sp, #100]	; 0x64
    15a6:	2f00      	cmp	r7, #0
    15a8:	d00e      	beq.n	15c8 <_ZN14blink_nrf518224main17h5d64dfdd3a94922fE+0x838>
    15aa:	9830      	ldr	r0, [sp, #192]	; 0xc0
    15ac:	992e      	ldr	r1, [sp, #184]	; 0xb8
    15ae:	1808      	adds	r0, r1, r0
    15b0:	902e      	str	r0, [sp, #184]	; 0xb8
    15b2:	4802      	ldr	r0, [pc, #8]	; (15bc <_ZN14blink_nrf518224main17h5d64dfdd3a94922fE+0x82c>)
    15b4:	9b31      	ldr	r3, [sp, #196]	; 0xc4
    15b6:	992d      	ldr	r1, [sp, #180]	; 0xb4
    15b8:	462a      	mov	r2, r5
    15ba:	e017      	b.n	15ec <_ZN14blink_nrf518224main17h5d64dfdd3a94922fE+0x85c>
    15bc:	2000043c 	.word	0x2000043c
    15c0:	20000000 	.word	0x20000000
    15c4:	41a00000 	.word	0x41a00000
    15c8:	a839      	add	r0, sp, #228	; 0xe4
    15ca:	2110      	movs	r1, #16
    15cc:	f002 f826 	bl	361c <_ZN4zinc3hal8nrf518224rand9fill_rand17h7dfab05370fe1cccE>
    15d0:	9939      	ldr	r1, [sp, #228]	; 0xe4
    15d2:	60f1      	str	r1, [r6, #12]
    15d4:	9b3a      	ldr	r3, [sp, #232]	; 0xe8
    15d6:	6133      	str	r3, [r6, #16]
    15d8:	9c3b      	ldr	r4, [sp, #236]	; 0xec
    15da:	6174      	str	r4, [r6, #20]
    15dc:	9a3c      	ldr	r2, [sp, #240]	; 0xf0
    15de:	61b2      	str	r2, [r6, #24]
    15e0:	2064      	movs	r0, #100	; 0x64
    15e2:	4df9      	ldr	r5, [pc, #996]	; (19c8 <_ZN14blink_nrf518224main17h5d64dfdd3a94922fE+0xc38>)
    15e4:	6028      	str	r0, [r5, #0]
    15e6:	2063      	movs	r0, #99	; 0x63
    15e8:	902e      	str	r0, [sp, #184]	; 0xb8
    15ea:	4628      	mov	r0, r5
    15ec:	9d2e      	ldr	r5, [sp, #184]	; 0xb8
    15ee:	6005      	str	r5, [r0, #0]
    15f0:	02c8      	lsls	r0, r1, #11
    15f2:	4048      	eors	r0, r1
    15f4:	0cd1      	lsrs	r1, r2, #19
    15f6:	4051      	eors	r1, r2
    15f8:	4041      	eors	r1, r0
    15fa:	0a07      	lsrs	r7, r0, #8
    15fc:	404f      	eors	r7, r1
    15fe:	9331      	str	r3, [sp, #196]	; 0xc4
    1600:	60f3      	str	r3, [r6, #12]
    1602:	6134      	str	r4, [r6, #16]
    1604:	922d      	str	r2, [sp, #180]	; 0xb4
    1606:	6172      	str	r2, [r6, #20]
    1608:	61b7      	str	r7, [r6, #24]
    160a:	217f      	movs	r1, #127	; 0x7f
    160c:	4638      	mov	r0, r7
    160e:	f002 ffed 	bl	45ec <__aeabi_uidivmod>
    1612:	911e      	str	r1, [sp, #120]	; 0x78
    1614:	2d00      	cmp	r5, #0
    1616:	d006      	beq.n	1626 <_ZN14blink_nrf518224main17h5d64dfdd3a94922fE+0x896>
    1618:	9830      	ldr	r0, [sp, #192]	; 0xc0
    161a:	992e      	ldr	r1, [sp, #184]	; 0xb8
    161c:	180b      	adds	r3, r1, r0
    161e:	48ea      	ldr	r0, [pc, #936]	; (19c8 <_ZN14blink_nrf518224main17h5d64dfdd3a94922fE+0xc38>)
    1620:	9931      	ldr	r1, [sp, #196]	; 0xc4
    1622:	9d2d      	ldr	r5, [sp, #180]	; 0xb4
    1624:	e010      	b.n	1648 <_ZN14blink_nrf518224main17h5d64dfdd3a94922fE+0x8b8>
    1626:	a839      	add	r0, sp, #228	; 0xe4
    1628:	2110      	movs	r1, #16
    162a:	f001 fff7 	bl	361c <_ZN4zinc3hal8nrf518224rand9fill_rand17h7dfab05370fe1cccE>
    162e:	9939      	ldr	r1, [sp, #228]	; 0xe4
    1630:	60f1      	str	r1, [r6, #12]
    1632:	9c3a      	ldr	r4, [sp, #232]	; 0xe8
    1634:	6134      	str	r4, [r6, #16]
    1636:	9d3b      	ldr	r5, [sp, #236]	; 0xec
    1638:	6175      	str	r5, [r6, #20]
    163a:	9f3c      	ldr	r7, [sp, #240]	; 0xf0
    163c:	61b7      	str	r7, [r6, #24]
    163e:	2064      	movs	r0, #100	; 0x64
    1640:	4ae1      	ldr	r2, [pc, #900]	; (19c8 <_ZN14blink_nrf518224main17h5d64dfdd3a94922fE+0xc38>)
    1642:	6010      	str	r0, [r2, #0]
    1644:	2363      	movs	r3, #99	; 0x63
    1646:	4610      	mov	r0, r2
    1648:	6003      	str	r3, [r0, #0]
    164a:	02c8      	lsls	r0, r1, #11
    164c:	4048      	eors	r0, r1
    164e:	0cf9      	lsrs	r1, r7, #19
    1650:	4079      	eors	r1, r7
    1652:	4041      	eors	r1, r0
    1654:	0a00      	lsrs	r0, r0, #8
    1656:	4048      	eors	r0, r1
    1658:	942e      	str	r4, [sp, #184]	; 0xb8
    165a:	4631      	mov	r1, r6
    165c:	310c      	adds	r1, #12
    165e:	c1b0      	stmia	r1!, {r4, r5, r7}
    1660:	61b0      	str	r0, [r6, #24]
    1662:	2114      	movs	r1, #20
    1664:	9031      	str	r0, [sp, #196]	; 0xc4
    1666:	461c      	mov	r4, r3
    1668:	f002 ffc0 	bl	45ec <__aeabi_uidivmod>
    166c:	4608      	mov	r0, r1
    166e:	f003 ff09 	bl	5484 <__aeabi_ui2f>
    1672:	4601      	mov	r1, r0
    1674:	9832      	ldr	r0, [sp, #200]	; 0xc8
    1676:	4041      	eors	r1, r0
    1678:	911a      	str	r1, [sp, #104]	; 0x68
    167a:	2c00      	cmp	r4, #0
    167c:	d006      	beq.n	168c <_ZN14blink_nrf518224main17h5d64dfdd3a94922fE+0x8fc>
    167e:	9830      	ldr	r0, [sp, #192]	; 0xc0
    1680:	1820      	adds	r0, r4, r0
    1682:	4632      	mov	r2, r6
    1684:	4ed0      	ldr	r6, [pc, #832]	; (19c8 <_ZN14blink_nrf518224main17h5d64dfdd3a94922fE+0xc38>)
    1686:	9b31      	ldr	r3, [sp, #196]	; 0xc4
    1688:	992e      	ldr	r1, [sp, #184]	; 0xb8
    168a:	e012      	b.n	16b2 <_ZN14blink_nrf518224main17h5d64dfdd3a94922fE+0x922>
    168c:	a839      	add	r0, sp, #228	; 0xe4
    168e:	2110      	movs	r1, #16
    1690:	f001 ffc4 	bl	361c <_ZN4zinc3hal8nrf518224rand9fill_rand17h7dfab05370fe1cccE>
    1694:	9939      	ldr	r1, [sp, #228]	; 0xe4
    1696:	60f1      	str	r1, [r6, #12]
    1698:	9d3a      	ldr	r5, [sp, #232]	; 0xe8
    169a:	6135      	str	r5, [r6, #16]
    169c:	9f3b      	ldr	r7, [sp, #236]	; 0xec
    169e:	6177      	str	r7, [r6, #20]
    16a0:	9b3c      	ldr	r3, [sp, #240]	; 0xf0
    16a2:	61b3      	str	r3, [r6, #24]
    16a4:	2064      	movs	r0, #100	; 0x64
    16a6:	4ac8      	ldr	r2, [pc, #800]	; (19c8 <_ZN14blink_nrf518224main17h5d64dfdd3a94922fE+0xc38>)
    16a8:	4614      	mov	r4, r2
    16aa:	6020      	str	r0, [r4, #0]
    16ac:	2063      	movs	r0, #99	; 0x63
    16ae:	4632      	mov	r2, r6
    16b0:	4626      	mov	r6, r4
    16b2:	902e      	str	r0, [sp, #184]	; 0xb8
    16b4:	6030      	str	r0, [r6, #0]
    16b6:	02c8      	lsls	r0, r1, #11
    16b8:	4048      	eors	r0, r1
    16ba:	0cd9      	lsrs	r1, r3, #19
    16bc:	4059      	eors	r1, r3
    16be:	4041      	eors	r1, r0
    16c0:	0a04      	lsrs	r4, r0, #8
    16c2:	404c      	eors	r4, r1
    16c4:	60d5      	str	r5, [r2, #12]
    16c6:	6117      	str	r7, [r2, #16]
    16c8:	9331      	str	r3, [sp, #196]	; 0xc4
    16ca:	6153      	str	r3, [r2, #20]
    16cc:	6194      	str	r4, [r2, #24]
    16ce:	2114      	movs	r1, #20
    16d0:	4620      	mov	r0, r4
    16d2:	f002 ff8b 	bl	45ec <__aeabi_uidivmod>
    16d6:	310a      	adds	r1, #10
    16d8:	4608      	mov	r0, r1
    16da:	f003 fed3 	bl	5484 <__aeabi_ui2f>
    16de:	49bb      	ldr	r1, [pc, #748]	; (19cc <_ZN14blink_nrf518224main17h5d64dfdd3a94922fE+0xc3c>)
    16e0:	f003 f9b4 	bl	4a4c <__aeabi_fdiv>
    16e4:	992e      	ldr	r1, [sp, #184]	; 0xb8
    16e6:	9015      	str	r0, [sp, #84]	; 0x54
    16e8:	2900      	cmp	r1, #0
    16ea:	d007      	beq.n	16fc <_ZN14blink_nrf518224main17h5d64dfdd3a94922fE+0x96c>
    16ec:	9830      	ldr	r0, [sp, #192]	; 0xc0
    16ee:	1808      	adds	r0, r1, r0
    16f0:	902e      	str	r0, [sp, #184]	; 0xb8
    16f2:	4630      	mov	r0, r6
    16f4:	4eb6      	ldr	r6, [pc, #728]	; (19d0 <_ZN14blink_nrf518224main17h5d64dfdd3a94922fE+0xc40>)
    16f6:	9b31      	ldr	r3, [sp, #196]	; 0xc4
    16f8:	463a      	mov	r2, r7
    16fa:	e013      	b.n	1724 <_ZN14blink_nrf518224main17h5d64dfdd3a94922fE+0x994>
    16fc:	a839      	add	r0, sp, #228	; 0xe4
    16fe:	2110      	movs	r1, #16
    1700:	f001 ff8c 	bl	361c <_ZN4zinc3hal8nrf518224rand9fill_rand17h7dfab05370fe1cccE>
    1704:	9d39      	ldr	r5, [sp, #228]	; 0xe4
    1706:	48b2      	ldr	r0, [pc, #712]	; (19d0 <_ZN14blink_nrf518224main17h5d64dfdd3a94922fE+0xc40>)
    1708:	4601      	mov	r1, r0
    170a:	60cd      	str	r5, [r1, #12]
    170c:	9a3a      	ldr	r2, [sp, #232]	; 0xe8
    170e:	610a      	str	r2, [r1, #16]
    1710:	9b3b      	ldr	r3, [sp, #236]	; 0xec
    1712:	614b      	str	r3, [r1, #20]
    1714:	9c3c      	ldr	r4, [sp, #240]	; 0xf0
    1716:	618c      	str	r4, [r1, #24]
    1718:	2064      	movs	r0, #100	; 0x64
    171a:	6030      	str	r0, [r6, #0]
    171c:	2063      	movs	r0, #99	; 0x63
    171e:	902e      	str	r0, [sp, #184]	; 0xb8
    1720:	4630      	mov	r0, r6
    1722:	460e      	mov	r6, r1
    1724:	9f2e      	ldr	r7, [sp, #184]	; 0xb8
    1726:	6007      	str	r7, [r0, #0]
    1728:	02e8      	lsls	r0, r5, #11
    172a:	4068      	eors	r0, r5
    172c:	0ce1      	lsrs	r1, r4, #19
    172e:	4061      	eors	r1, r4
    1730:	4041      	eors	r1, r0
    1732:	0a05      	lsrs	r5, r0, #8
    1734:	404d      	eors	r5, r1
    1736:	922d      	str	r2, [sp, #180]	; 0xb4
    1738:	60f2      	str	r2, [r6, #12]
    173a:	9331      	str	r3, [sp, #196]	; 0xc4
    173c:	4630      	mov	r0, r6
    173e:	3010      	adds	r0, #16
    1740:	c038      	stmia	r0!, {r3, r4, r5}
    1742:	2105      	movs	r1, #5
    1744:	4628      	mov	r0, r5
    1746:	f002 ff51 	bl	45ec <__aeabi_uidivmod>
    174a:	0088      	lsls	r0, r1, #2
    174c:	9011      	str	r0, [sp, #68]	; 0x44
    174e:	2f00      	cmp	r7, #0
    1750:	d008      	beq.n	1764 <_ZN14blink_nrf518224main17h5d64dfdd3a94922fE+0x9d4>
    1752:	9830      	ldr	r0, [sp, #192]	; 0xc0
    1754:	992e      	ldr	r1, [sp, #184]	; 0xb8
    1756:	1808      	adds	r0, r1, r0
    1758:	902e      	str	r0, [sp, #184]	; 0xb8
    175a:	489b      	ldr	r0, [pc, #620]	; (19c8 <_ZN14blink_nrf518224main17h5d64dfdd3a94922fE+0xc38>)
    175c:	9b31      	ldr	r3, [sp, #196]	; 0xc4
    175e:	992d      	ldr	r1, [sp, #180]	; 0xb4
    1760:	462a      	mov	r2, r5
    1762:	e011      	b.n	1788 <_ZN14blink_nrf518224main17h5d64dfdd3a94922fE+0x9f8>
    1764:	a839      	add	r0, sp, #228	; 0xe4
    1766:	2110      	movs	r1, #16
    1768:	f001 ff58 	bl	361c <_ZN4zinc3hal8nrf518224rand9fill_rand17h7dfab05370fe1cccE>
    176c:	9939      	ldr	r1, [sp, #228]	; 0xe4
    176e:	60f1      	str	r1, [r6, #12]
    1770:	9b3a      	ldr	r3, [sp, #232]	; 0xe8
    1772:	6133      	str	r3, [r6, #16]
    1774:	9c3b      	ldr	r4, [sp, #236]	; 0xec
    1776:	6174      	str	r4, [r6, #20]
    1778:	9a3c      	ldr	r2, [sp, #240]	; 0xf0
    177a:	61b2      	str	r2, [r6, #24]
    177c:	2064      	movs	r0, #100	; 0x64
    177e:	4d92      	ldr	r5, [pc, #584]	; (19c8 <_ZN14blink_nrf518224main17h5d64dfdd3a94922fE+0xc38>)
    1780:	6028      	str	r0, [r5, #0]
    1782:	2063      	movs	r0, #99	; 0x63
    1784:	902e      	str	r0, [sp, #184]	; 0xb8
    1786:	4628      	mov	r0, r5
    1788:	9d2e      	ldr	r5, [sp, #184]	; 0xb8
    178a:	6005      	str	r5, [r0, #0]
    178c:	02c8      	lsls	r0, r1, #11
    178e:	4048      	eors	r0, r1
    1790:	0cd1      	lsrs	r1, r2, #19
    1792:	4051      	eors	r1, r2
    1794:	4041      	eors	r1, r0
    1796:	0a07      	lsrs	r7, r0, #8
    1798:	404f      	eors	r7, r1
    179a:	9331      	str	r3, [sp, #196]	; 0xc4
    179c:	60f3      	str	r3, [r6, #12]
    179e:	6134      	str	r4, [r6, #16]
    17a0:	922d      	str	r2, [sp, #180]	; 0xb4
    17a2:	6172      	str	r2, [r6, #20]
    17a4:	61b7      	str	r7, [r6, #24]
    17a6:	217f      	movs	r1, #127	; 0x7f
    17a8:	4638      	mov	r0, r7
    17aa:	f002 ff1f 	bl	45ec <__aeabi_uidivmod>
    17ae:	9113      	str	r1, [sp, #76]	; 0x4c
    17b0:	2d00      	cmp	r5, #0
    17b2:	d006      	beq.n	17c2 <_ZN14blink_nrf518224main17h5d64dfdd3a94922fE+0xa32>
    17b4:	9830      	ldr	r0, [sp, #192]	; 0xc0
    17b6:	992e      	ldr	r1, [sp, #184]	; 0xb8
    17b8:	180b      	adds	r3, r1, r0
    17ba:	4883      	ldr	r0, [pc, #524]	; (19c8 <_ZN14blink_nrf518224main17h5d64dfdd3a94922fE+0xc38>)
    17bc:	9931      	ldr	r1, [sp, #196]	; 0xc4
    17be:	9a2d      	ldr	r2, [sp, #180]	; 0xb4
    17c0:	e011      	b.n	17e6 <_ZN14blink_nrf518224main17h5d64dfdd3a94922fE+0xa56>
    17c2:	a839      	add	r0, sp, #228	; 0xe4
    17c4:	2110      	movs	r1, #16
    17c6:	f001 ff29 	bl	361c <_ZN4zinc3hal8nrf518224rand9fill_rand17h7dfab05370fe1cccE>
    17ca:	9939      	ldr	r1, [sp, #228]	; 0xe4
    17cc:	60f1      	str	r1, [r6, #12]
    17ce:	9c3a      	ldr	r4, [sp, #232]	; 0xe8
    17d0:	6134      	str	r4, [r6, #16]
    17d2:	9a3b      	ldr	r2, [sp, #236]	; 0xec
    17d4:	6172      	str	r2, [r6, #20]
    17d6:	9f3c      	ldr	r7, [sp, #240]	; 0xf0
    17d8:	61b7      	str	r7, [r6, #24]
    17da:	2064      	movs	r0, #100	; 0x64
    17dc:	4b7a      	ldr	r3, [pc, #488]	; (19c8 <_ZN14blink_nrf518224main17h5d64dfdd3a94922fE+0xc38>)
    17de:	461d      	mov	r5, r3
    17e0:	6028      	str	r0, [r5, #0]
    17e2:	2363      	movs	r3, #99	; 0x63
    17e4:	4628      	mov	r0, r5
    17e6:	6003      	str	r3, [r0, #0]
    17e8:	02c8      	lsls	r0, r1, #11
    17ea:	4048      	eors	r0, r1
    17ec:	0cf9      	lsrs	r1, r7, #19
    17ee:	4079      	eors	r1, r7
    17f0:	4041      	eors	r1, r0
    17f2:	0a00      	lsrs	r0, r0, #8
    17f4:	4048      	eors	r0, r1
    17f6:	942e      	str	r4, [sp, #184]	; 0xb8
    17f8:	60f4      	str	r4, [r6, #12]
    17fa:	4615      	mov	r5, r2
    17fc:	6132      	str	r2, [r6, #16]
    17fe:	6177      	str	r7, [r6, #20]
    1800:	61b0      	str	r0, [r6, #24]
    1802:	2114      	movs	r1, #20
    1804:	9031      	str	r0, [sp, #196]	; 0xc4
    1806:	461c      	mov	r4, r3
    1808:	f002 fef0 	bl	45ec <__aeabi_uidivmod>
    180c:	4608      	mov	r0, r1
    180e:	f003 fe39 	bl	5484 <__aeabi_ui2f>
    1812:	4601      	mov	r1, r0
    1814:	9832      	ldr	r0, [sp, #200]	; 0xc8
    1816:	4041      	eors	r1, r0
    1818:	9112      	str	r1, [sp, #72]	; 0x48
    181a:	2c00      	cmp	r4, #0
    181c:	d006      	beq.n	182c <_ZN14blink_nrf518224main17h5d64dfdd3a94922fE+0xa9c>
    181e:	9830      	ldr	r0, [sp, #192]	; 0xc0
    1820:	1820      	adds	r0, r4, r0
    1822:	4632      	mov	r2, r6
    1824:	4e68      	ldr	r6, [pc, #416]	; (19c8 <_ZN14blink_nrf518224main17h5d64dfdd3a94922fE+0xc38>)
    1826:	9b31      	ldr	r3, [sp, #196]	; 0xc4
    1828:	992e      	ldr	r1, [sp, #184]	; 0xb8
    182a:	e012      	b.n	1852 <_ZN14blink_nrf518224main17h5d64dfdd3a94922fE+0xac2>
    182c:	a839      	add	r0, sp, #228	; 0xe4
    182e:	2110      	movs	r1, #16
    1830:	f001 fef4 	bl	361c <_ZN4zinc3hal8nrf518224rand9fill_rand17h7dfab05370fe1cccE>
    1834:	9939      	ldr	r1, [sp, #228]	; 0xe4
    1836:	60f1      	str	r1, [r6, #12]
    1838:	9d3a      	ldr	r5, [sp, #232]	; 0xe8
    183a:	6135      	str	r5, [r6, #16]
    183c:	9f3b      	ldr	r7, [sp, #236]	; 0xec
    183e:	6177      	str	r7, [r6, #20]
    1840:	9b3c      	ldr	r3, [sp, #240]	; 0xf0
    1842:	61b3      	str	r3, [r6, #24]
    1844:	2064      	movs	r0, #100	; 0x64
    1846:	4a60      	ldr	r2, [pc, #384]	; (19c8 <_ZN14blink_nrf518224main17h5d64dfdd3a94922fE+0xc38>)
    1848:	4614      	mov	r4, r2
    184a:	6020      	str	r0, [r4, #0]
    184c:	2063      	movs	r0, #99	; 0x63
    184e:	4632      	mov	r2, r6
    1850:	4626      	mov	r6, r4
    1852:	902e      	str	r0, [sp, #184]	; 0xb8
    1854:	6030      	str	r0, [r6, #0]
    1856:	02c8      	lsls	r0, r1, #11
    1858:	4048      	eors	r0, r1
    185a:	0cd9      	lsrs	r1, r3, #19
    185c:	4059      	eors	r1, r3
    185e:	4041      	eors	r1, r0
    1860:	0a04      	lsrs	r4, r0, #8
    1862:	404c      	eors	r4, r1
    1864:	60d5      	str	r5, [r2, #12]
    1866:	6117      	str	r7, [r2, #16]
    1868:	9331      	str	r3, [sp, #196]	; 0xc4
    186a:	6153      	str	r3, [r2, #20]
    186c:	6194      	str	r4, [r2, #24]
    186e:	2114      	movs	r1, #20
    1870:	4620      	mov	r0, r4
    1872:	f002 febb 	bl	45ec <__aeabi_uidivmod>
    1876:	310a      	adds	r1, #10
    1878:	4608      	mov	r0, r1
    187a:	f003 fe03 	bl	5484 <__aeabi_ui2f>
    187e:	4953      	ldr	r1, [pc, #332]	; (19cc <_ZN14blink_nrf518224main17h5d64dfdd3a94922fE+0xc3c>)
    1880:	f003 f8e4 	bl	4a4c <__aeabi_fdiv>
    1884:	992e      	ldr	r1, [sp, #184]	; 0xb8
    1886:	9010      	str	r0, [sp, #64]	; 0x40
    1888:	2900      	cmp	r1, #0
    188a:	d007      	beq.n	189c <_ZN14blink_nrf518224main17h5d64dfdd3a94922fE+0xb0c>
    188c:	9830      	ldr	r0, [sp, #192]	; 0xc0
    188e:	1808      	adds	r0, r1, r0
    1890:	902e      	str	r0, [sp, #184]	; 0xb8
    1892:	4630      	mov	r0, r6
    1894:	4e4e      	ldr	r6, [pc, #312]	; (19d0 <_ZN14blink_nrf518224main17h5d64dfdd3a94922fE+0xc40>)
    1896:	9b31      	ldr	r3, [sp, #196]	; 0xc4
    1898:	463a      	mov	r2, r7
    189a:	e013      	b.n	18c4 <_ZN14blink_nrf518224main17h5d64dfdd3a94922fE+0xb34>
    189c:	a839      	add	r0, sp, #228	; 0xe4
    189e:	2110      	movs	r1, #16
    18a0:	f001 febc 	bl	361c <_ZN4zinc3hal8nrf518224rand9fill_rand17h7dfab05370fe1cccE>
    18a4:	9d39      	ldr	r5, [sp, #228]	; 0xe4
    18a6:	484a      	ldr	r0, [pc, #296]	; (19d0 <_ZN14blink_nrf518224main17h5d64dfdd3a94922fE+0xc40>)
    18a8:	4601      	mov	r1, r0
    18aa:	60cd      	str	r5, [r1, #12]
    18ac:	9a3a      	ldr	r2, [sp, #232]	; 0xe8
    18ae:	610a      	str	r2, [r1, #16]
    18b0:	9b3b      	ldr	r3, [sp, #236]	; 0xec
    18b2:	614b      	str	r3, [r1, #20]
    18b4:	9c3c      	ldr	r4, [sp, #240]	; 0xf0
    18b6:	618c      	str	r4, [r1, #24]
    18b8:	2064      	movs	r0, #100	; 0x64
    18ba:	6030      	str	r0, [r6, #0]
    18bc:	2063      	movs	r0, #99	; 0x63
    18be:	902e      	str	r0, [sp, #184]	; 0xb8
    18c0:	4630      	mov	r0, r6
    18c2:	460e      	mov	r6, r1
    18c4:	9f2e      	ldr	r7, [sp, #184]	; 0xb8
    18c6:	6007      	str	r7, [r0, #0]
    18c8:	02e8      	lsls	r0, r5, #11
    18ca:	4068      	eors	r0, r5
    18cc:	0ce1      	lsrs	r1, r4, #19
    18ce:	4061      	eors	r1, r4
    18d0:	4041      	eors	r1, r0
    18d2:	0a00      	lsrs	r0, r0, #8
    18d4:	4048      	eors	r0, r1
    18d6:	922d      	str	r2, [sp, #180]	; 0xb4
    18d8:	60f2      	str	r2, [r6, #12]
    18da:	9331      	str	r3, [sp, #196]	; 0xc4
    18dc:	6133      	str	r3, [r6, #16]
    18de:	6174      	str	r4, [r6, #20]
    18e0:	61b0      	str	r0, [r6, #24]
    18e2:	2105      	movs	r1, #5
    18e4:	4605      	mov	r5, r0
    18e6:	f002 fe81 	bl	45ec <__aeabi_uidivmod>
    18ea:	0088      	lsls	r0, r1, #2
    18ec:	900d      	str	r0, [sp, #52]	; 0x34
    18ee:	2f00      	cmp	r7, #0
    18f0:	d008      	beq.n	1904 <_ZN14blink_nrf518224main17h5d64dfdd3a94922fE+0xb74>
    18f2:	9830      	ldr	r0, [sp, #192]	; 0xc0
    18f4:	992e      	ldr	r1, [sp, #184]	; 0xb8
    18f6:	1808      	adds	r0, r1, r0
    18f8:	902e      	str	r0, [sp, #184]	; 0xb8
    18fa:	4833      	ldr	r0, [pc, #204]	; (19c8 <_ZN14blink_nrf518224main17h5d64dfdd3a94922fE+0xc38>)
    18fc:	9b31      	ldr	r3, [sp, #196]	; 0xc4
    18fe:	992d      	ldr	r1, [sp, #180]	; 0xb4
    1900:	462a      	mov	r2, r5
    1902:	e011      	b.n	1928 <_ZN14blink_nrf518224main17h5d64dfdd3a94922fE+0xb98>
    1904:	a839      	add	r0, sp, #228	; 0xe4
    1906:	2110      	movs	r1, #16
    1908:	f001 fe88 	bl	361c <_ZN4zinc3hal8nrf518224rand9fill_rand17h7dfab05370fe1cccE>
    190c:	9939      	ldr	r1, [sp, #228]	; 0xe4
    190e:	60f1      	str	r1, [r6, #12]
    1910:	9b3a      	ldr	r3, [sp, #232]	; 0xe8
    1912:	6133      	str	r3, [r6, #16]
    1914:	9c3b      	ldr	r4, [sp, #236]	; 0xec
    1916:	6174      	str	r4, [r6, #20]
    1918:	9a3c      	ldr	r2, [sp, #240]	; 0xf0
    191a:	61b2      	str	r2, [r6, #24]
    191c:	2064      	movs	r0, #100	; 0x64
    191e:	4d2a      	ldr	r5, [pc, #168]	; (19c8 <_ZN14blink_nrf518224main17h5d64dfdd3a94922fE+0xc38>)
    1920:	6028      	str	r0, [r5, #0]
    1922:	2063      	movs	r0, #99	; 0x63
    1924:	902e      	str	r0, [sp, #184]	; 0xb8
    1926:	4628      	mov	r0, r5
    1928:	9d2e      	ldr	r5, [sp, #184]	; 0xb8
    192a:	6005      	str	r5, [r0, #0]
    192c:	02c8      	lsls	r0, r1, #11
    192e:	4048      	eors	r0, r1
    1930:	0cd1      	lsrs	r1, r2, #19
    1932:	4051      	eors	r1, r2
    1934:	4041      	eors	r1, r0
    1936:	0a07      	lsrs	r7, r0, #8
    1938:	404f      	eors	r7, r1
    193a:	9331      	str	r3, [sp, #196]	; 0xc4
    193c:	60f3      	str	r3, [r6, #12]
    193e:	6134      	str	r4, [r6, #16]
    1940:	922d      	str	r2, [sp, #180]	; 0xb4
    1942:	6172      	str	r2, [r6, #20]
    1944:	61b7      	str	r7, [r6, #24]
    1946:	217f      	movs	r1, #127	; 0x7f
    1948:	4638      	mov	r0, r7
    194a:	f002 fe4f 	bl	45ec <__aeabi_uidivmod>
    194e:	910f      	str	r1, [sp, #60]	; 0x3c
    1950:	2d00      	cmp	r5, #0
    1952:	d006      	beq.n	1962 <_ZN14blink_nrf518224main17h5d64dfdd3a94922fE+0xbd2>
    1954:	9830      	ldr	r0, [sp, #192]	; 0xc0
    1956:	992e      	ldr	r1, [sp, #184]	; 0xb8
    1958:	180b      	adds	r3, r1, r0
    195a:	481b      	ldr	r0, [pc, #108]	; (19c8 <_ZN14blink_nrf518224main17h5d64dfdd3a94922fE+0xc38>)
    195c:	9931      	ldr	r1, [sp, #196]	; 0xc4
    195e:	9d2d      	ldr	r5, [sp, #180]	; 0xb4
    1960:	e010      	b.n	1984 <_ZN14blink_nrf518224main17h5d64dfdd3a94922fE+0xbf4>
    1962:	a839      	add	r0, sp, #228	; 0xe4
    1964:	2110      	movs	r1, #16
    1966:	f001 fe59 	bl	361c <_ZN4zinc3hal8nrf518224rand9fill_rand17h7dfab05370fe1cccE>
    196a:	9939      	ldr	r1, [sp, #228]	; 0xe4
    196c:	60f1      	str	r1, [r6, #12]
    196e:	9c3a      	ldr	r4, [sp, #232]	; 0xe8
    1970:	6134      	str	r4, [r6, #16]
    1972:	9d3b      	ldr	r5, [sp, #236]	; 0xec
    1974:	6175      	str	r5, [r6, #20]
    1976:	9f3c      	ldr	r7, [sp, #240]	; 0xf0
    1978:	61b7      	str	r7, [r6, #24]
    197a:	2064      	movs	r0, #100	; 0x64
    197c:	4a12      	ldr	r2, [pc, #72]	; (19c8 <_ZN14blink_nrf518224main17h5d64dfdd3a94922fE+0xc38>)
    197e:	6010      	str	r0, [r2, #0]
    1980:	2363      	movs	r3, #99	; 0x63
    1982:	4610      	mov	r0, r2
    1984:	6003      	str	r3, [r0, #0]
    1986:	02c8      	lsls	r0, r1, #11
    1988:	4048      	eors	r0, r1
    198a:	0cf9      	lsrs	r1, r7, #19
    198c:	4079      	eors	r1, r7
    198e:	4041      	eors	r1, r0
    1990:	0a00      	lsrs	r0, r0, #8
    1992:	4048      	eors	r0, r1
    1994:	942e      	str	r4, [sp, #184]	; 0xb8
    1996:	4631      	mov	r1, r6
    1998:	310c      	adds	r1, #12
    199a:	c1b0      	stmia	r1!, {r4, r5, r7}
    199c:	61b0      	str	r0, [r6, #24]
    199e:	2114      	movs	r1, #20
    19a0:	9031      	str	r0, [sp, #196]	; 0xc4
    19a2:	461c      	mov	r4, r3
    19a4:	f002 fe22 	bl	45ec <__aeabi_uidivmod>
    19a8:	4608      	mov	r0, r1
    19aa:	f003 fd6b 	bl	5484 <__aeabi_ui2f>
    19ae:	4601      	mov	r1, r0
    19b0:	9832      	ldr	r0, [sp, #200]	; 0xc8
    19b2:	4041      	eors	r1, r0
    19b4:	910e      	str	r1, [sp, #56]	; 0x38
    19b6:	2c00      	cmp	r4, #0
    19b8:	d00c      	beq.n	19d4 <_ZN14blink_nrf518224main17h5d64dfdd3a94922fE+0xc44>
    19ba:	9830      	ldr	r0, [sp, #192]	; 0xc0
    19bc:	1820      	adds	r0, r4, r0
    19be:	4632      	mov	r2, r6
    19c0:	4e01      	ldr	r6, [pc, #4]	; (19c8 <_ZN14blink_nrf518224main17h5d64dfdd3a94922fE+0xc38>)
    19c2:	9b31      	ldr	r3, [sp, #196]	; 0xc4
    19c4:	992e      	ldr	r1, [sp, #184]	; 0xb8
    19c6:	e018      	b.n	19fa <_ZN14blink_nrf518224main17h5d64dfdd3a94922fE+0xc6a>
    19c8:	2000043c 	.word	0x2000043c
    19cc:	41a00000 	.word	0x41a00000
    19d0:	20000000 	.word	0x20000000
    19d4:	a839      	add	r0, sp, #228	; 0xe4
    19d6:	2110      	movs	r1, #16
    19d8:	f001 fe20 	bl	361c <_ZN4zinc3hal8nrf518224rand9fill_rand17h7dfab05370fe1cccE>
    19dc:	9939      	ldr	r1, [sp, #228]	; 0xe4
    19de:	60f1      	str	r1, [r6, #12]
    19e0:	9d3a      	ldr	r5, [sp, #232]	; 0xe8
    19e2:	6135      	str	r5, [r6, #16]
    19e4:	9f3b      	ldr	r7, [sp, #236]	; 0xec
    19e6:	6177      	str	r7, [r6, #20]
    19e8:	9b3c      	ldr	r3, [sp, #240]	; 0xf0
    19ea:	61b3      	str	r3, [r6, #24]
    19ec:	2064      	movs	r0, #100	; 0x64
    19ee:	4ad9      	ldr	r2, [pc, #868]	; (1d54 <_ZN14blink_nrf518224main17h5d64dfdd3a94922fE+0xfc4>)
    19f0:	4614      	mov	r4, r2
    19f2:	6020      	str	r0, [r4, #0]
    19f4:	2063      	movs	r0, #99	; 0x63
    19f6:	4632      	mov	r2, r6
    19f8:	4626      	mov	r6, r4
    19fa:	902e      	str	r0, [sp, #184]	; 0xb8
    19fc:	6030      	str	r0, [r6, #0]
    19fe:	02c8      	lsls	r0, r1, #11
    1a00:	4048      	eors	r0, r1
    1a02:	0cd9      	lsrs	r1, r3, #19
    1a04:	4059      	eors	r1, r3
    1a06:	4041      	eors	r1, r0
    1a08:	0a04      	lsrs	r4, r0, #8
    1a0a:	404c      	eors	r4, r1
    1a0c:	60d5      	str	r5, [r2, #12]
    1a0e:	6117      	str	r7, [r2, #16]
    1a10:	9331      	str	r3, [sp, #196]	; 0xc4
    1a12:	6153      	str	r3, [r2, #20]
    1a14:	6194      	str	r4, [r2, #24]
    1a16:	2114      	movs	r1, #20
    1a18:	4620      	mov	r0, r4
    1a1a:	f002 fde7 	bl	45ec <__aeabi_uidivmod>
    1a1e:	310a      	adds	r1, #10
    1a20:	4608      	mov	r0, r1
    1a22:	f003 fd2f 	bl	5484 <__aeabi_ui2f>
    1a26:	49cc      	ldr	r1, [pc, #816]	; (1d58 <_ZN14blink_nrf518224main17h5d64dfdd3a94922fE+0xfc8>)
    1a28:	f003 f810 	bl	4a4c <__aeabi_fdiv>
    1a2c:	992e      	ldr	r1, [sp, #184]	; 0xb8
    1a2e:	900c      	str	r0, [sp, #48]	; 0x30
    1a30:	2900      	cmp	r1, #0
    1a32:	d007      	beq.n	1a44 <_ZN14blink_nrf518224main17h5d64dfdd3a94922fE+0xcb4>
    1a34:	9830      	ldr	r0, [sp, #192]	; 0xc0
    1a36:	1808      	adds	r0, r1, r0
    1a38:	902e      	str	r0, [sp, #184]	; 0xb8
    1a3a:	4630      	mov	r0, r6
    1a3c:	4ec7      	ldr	r6, [pc, #796]	; (1d5c <_ZN14blink_nrf518224main17h5d64dfdd3a94922fE+0xfcc>)
    1a3e:	9b31      	ldr	r3, [sp, #196]	; 0xc4
    1a40:	463a      	mov	r2, r7
    1a42:	e013      	b.n	1a6c <_ZN14blink_nrf518224main17h5d64dfdd3a94922fE+0xcdc>
    1a44:	a839      	add	r0, sp, #228	; 0xe4
    1a46:	2110      	movs	r1, #16
    1a48:	f001 fde8 	bl	361c <_ZN4zinc3hal8nrf518224rand9fill_rand17h7dfab05370fe1cccE>
    1a4c:	9d39      	ldr	r5, [sp, #228]	; 0xe4
    1a4e:	48c3      	ldr	r0, [pc, #780]	; (1d5c <_ZN14blink_nrf518224main17h5d64dfdd3a94922fE+0xfcc>)
    1a50:	4601      	mov	r1, r0
    1a52:	60cd      	str	r5, [r1, #12]
    1a54:	9a3a      	ldr	r2, [sp, #232]	; 0xe8
    1a56:	610a      	str	r2, [r1, #16]
    1a58:	9b3b      	ldr	r3, [sp, #236]	; 0xec
    1a5a:	614b      	str	r3, [r1, #20]
    1a5c:	9c3c      	ldr	r4, [sp, #240]	; 0xf0
    1a5e:	618c      	str	r4, [r1, #24]
    1a60:	2064      	movs	r0, #100	; 0x64
    1a62:	6030      	str	r0, [r6, #0]
    1a64:	2063      	movs	r0, #99	; 0x63
    1a66:	902e      	str	r0, [sp, #184]	; 0xb8
    1a68:	4630      	mov	r0, r6
    1a6a:	460e      	mov	r6, r1
    1a6c:	9f2e      	ldr	r7, [sp, #184]	; 0xb8
    1a6e:	6007      	str	r7, [r0, #0]
    1a70:	02e8      	lsls	r0, r5, #11
    1a72:	4068      	eors	r0, r5
    1a74:	0ce1      	lsrs	r1, r4, #19
    1a76:	4061      	eors	r1, r4
    1a78:	4041      	eors	r1, r0
    1a7a:	0a05      	lsrs	r5, r0, #8
    1a7c:	404d      	eors	r5, r1
    1a7e:	922d      	str	r2, [sp, #180]	; 0xb4
    1a80:	60f2      	str	r2, [r6, #12]
    1a82:	9331      	str	r3, [sp, #196]	; 0xc4
    1a84:	4630      	mov	r0, r6
    1a86:	3010      	adds	r0, #16
    1a88:	c038      	stmia	r0!, {r3, r4, r5}
    1a8a:	2105      	movs	r1, #5
    1a8c:	4628      	mov	r0, r5
    1a8e:	f002 fdad 	bl	45ec <__aeabi_uidivmod>
    1a92:	0088      	lsls	r0, r1, #2
    1a94:	9009      	str	r0, [sp, #36]	; 0x24
    1a96:	2f00      	cmp	r7, #0
    1a98:	d008      	beq.n	1aac <_ZN14blink_nrf518224main17h5d64dfdd3a94922fE+0xd1c>
    1a9a:	9830      	ldr	r0, [sp, #192]	; 0xc0
    1a9c:	992e      	ldr	r1, [sp, #184]	; 0xb8
    1a9e:	1808      	adds	r0, r1, r0
    1aa0:	902e      	str	r0, [sp, #184]	; 0xb8
    1aa2:	48ac      	ldr	r0, [pc, #688]	; (1d54 <_ZN14blink_nrf518224main17h5d64dfdd3a94922fE+0xfc4>)
    1aa4:	9b31      	ldr	r3, [sp, #196]	; 0xc4
    1aa6:	992d      	ldr	r1, [sp, #180]	; 0xb4
    1aa8:	462a      	mov	r2, r5
    1aaa:	e011      	b.n	1ad0 <_ZN14blink_nrf518224main17h5d64dfdd3a94922fE+0xd40>
    1aac:	a839      	add	r0, sp, #228	; 0xe4
    1aae:	2110      	movs	r1, #16
    1ab0:	f001 fdb4 	bl	361c <_ZN4zinc3hal8nrf518224rand9fill_rand17h7dfab05370fe1cccE>
    1ab4:	9939      	ldr	r1, [sp, #228]	; 0xe4
    1ab6:	60f1      	str	r1, [r6, #12]
    1ab8:	9b3a      	ldr	r3, [sp, #232]	; 0xe8
    1aba:	6133      	str	r3, [r6, #16]
    1abc:	9c3b      	ldr	r4, [sp, #236]	; 0xec
    1abe:	6174      	str	r4, [r6, #20]
    1ac0:	9a3c      	ldr	r2, [sp, #240]	; 0xf0
    1ac2:	61b2      	str	r2, [r6, #24]
    1ac4:	2064      	movs	r0, #100	; 0x64
    1ac6:	4da3      	ldr	r5, [pc, #652]	; (1d54 <_ZN14blink_nrf518224main17h5d64dfdd3a94922fE+0xfc4>)
    1ac8:	6028      	str	r0, [r5, #0]
    1aca:	2063      	movs	r0, #99	; 0x63
    1acc:	902e      	str	r0, [sp, #184]	; 0xb8
    1ace:	4628      	mov	r0, r5
    1ad0:	9d2e      	ldr	r5, [sp, #184]	; 0xb8
    1ad2:	6005      	str	r5, [r0, #0]
    1ad4:	02c8      	lsls	r0, r1, #11
    1ad6:	4048      	eors	r0, r1
    1ad8:	0cd1      	lsrs	r1, r2, #19
    1ada:	4051      	eors	r1, r2
    1adc:	4041      	eors	r1, r0
    1ade:	0a07      	lsrs	r7, r0, #8
    1ae0:	404f      	eors	r7, r1
    1ae2:	9331      	str	r3, [sp, #196]	; 0xc4
    1ae4:	60f3      	str	r3, [r6, #12]
    1ae6:	6134      	str	r4, [r6, #16]
    1ae8:	922d      	str	r2, [sp, #180]	; 0xb4
    1aea:	6172      	str	r2, [r6, #20]
    1aec:	61b7      	str	r7, [r6, #24]
    1aee:	217f      	movs	r1, #127	; 0x7f
    1af0:	4638      	mov	r0, r7
    1af2:	f002 fd7b 	bl	45ec <__aeabi_uidivmod>
    1af6:	910b      	str	r1, [sp, #44]	; 0x2c
    1af8:	2d00      	cmp	r5, #0
    1afa:	d006      	beq.n	1b0a <_ZN14blink_nrf518224main17h5d64dfdd3a94922fE+0xd7a>
    1afc:	9830      	ldr	r0, [sp, #192]	; 0xc0
    1afe:	992e      	ldr	r1, [sp, #184]	; 0xb8
    1b00:	180b      	adds	r3, r1, r0
    1b02:	4894      	ldr	r0, [pc, #592]	; (1d54 <_ZN14blink_nrf518224main17h5d64dfdd3a94922fE+0xfc4>)
    1b04:	9931      	ldr	r1, [sp, #196]	; 0xc4
    1b06:	9d2d      	ldr	r5, [sp, #180]	; 0xb4
    1b08:	e010      	b.n	1b2c <_ZN14blink_nrf518224main17h5d64dfdd3a94922fE+0xd9c>
    1b0a:	a839      	add	r0, sp, #228	; 0xe4
    1b0c:	2110      	movs	r1, #16
    1b0e:	f001 fd85 	bl	361c <_ZN4zinc3hal8nrf518224rand9fill_rand17h7dfab05370fe1cccE>
    1b12:	9939      	ldr	r1, [sp, #228]	; 0xe4
    1b14:	60f1      	str	r1, [r6, #12]
    1b16:	9c3a      	ldr	r4, [sp, #232]	; 0xe8
    1b18:	6134      	str	r4, [r6, #16]
    1b1a:	9d3b      	ldr	r5, [sp, #236]	; 0xec
    1b1c:	6175      	str	r5, [r6, #20]
    1b1e:	9f3c      	ldr	r7, [sp, #240]	; 0xf0
    1b20:	61b7      	str	r7, [r6, #24]
    1b22:	2064      	movs	r0, #100	; 0x64
    1b24:	4a8b      	ldr	r2, [pc, #556]	; (1d54 <_ZN14blink_nrf518224main17h5d64dfdd3a94922fE+0xfc4>)
    1b26:	6010      	str	r0, [r2, #0]
    1b28:	2363      	movs	r3, #99	; 0x63
    1b2a:	4610      	mov	r0, r2
    1b2c:	6003      	str	r3, [r0, #0]
    1b2e:	02c8      	lsls	r0, r1, #11
    1b30:	4048      	eors	r0, r1
    1b32:	0cf9      	lsrs	r1, r7, #19
    1b34:	4079      	eors	r1, r7
    1b36:	4041      	eors	r1, r0
    1b38:	0a00      	lsrs	r0, r0, #8
    1b3a:	4048      	eors	r0, r1
    1b3c:	942e      	str	r4, [sp, #184]	; 0xb8
    1b3e:	4631      	mov	r1, r6
    1b40:	310c      	adds	r1, #12
    1b42:	c1b0      	stmia	r1!, {r4, r5, r7}
    1b44:	61b0      	str	r0, [r6, #24]
    1b46:	2114      	movs	r1, #20
    1b48:	9031      	str	r0, [sp, #196]	; 0xc4
    1b4a:	461c      	mov	r4, r3
    1b4c:	f002 fd4e 	bl	45ec <__aeabi_uidivmod>
    1b50:	4608      	mov	r0, r1
    1b52:	f003 fc97 	bl	5484 <__aeabi_ui2f>
    1b56:	4601      	mov	r1, r0
    1b58:	9832      	ldr	r0, [sp, #200]	; 0xc8
    1b5a:	4041      	eors	r1, r0
    1b5c:	910a      	str	r1, [sp, #40]	; 0x28
    1b5e:	2c00      	cmp	r4, #0
    1b60:	d005      	beq.n	1b6e <_ZN14blink_nrf518224main17h5d64dfdd3a94922fE+0xdde>
    1b62:	9830      	ldr	r0, [sp, #192]	; 0xc0
    1b64:	1820      	adds	r0, r4, r0
    1b66:	4a7b      	ldr	r2, [pc, #492]	; (1d54 <_ZN14blink_nrf518224main17h5d64dfdd3a94922fE+0xfc4>)
    1b68:	9b31      	ldr	r3, [sp, #196]	; 0xc4
    1b6a:	992e      	ldr	r1, [sp, #184]	; 0xb8
    1b6c:	e00f      	b.n	1b8e <_ZN14blink_nrf518224main17h5d64dfdd3a94922fE+0xdfe>
    1b6e:	a839      	add	r0, sp, #228	; 0xe4
    1b70:	2110      	movs	r1, #16
    1b72:	f001 fd53 	bl	361c <_ZN4zinc3hal8nrf518224rand9fill_rand17h7dfab05370fe1cccE>
    1b76:	9939      	ldr	r1, [sp, #228]	; 0xe4
    1b78:	60f1      	str	r1, [r6, #12]
    1b7a:	9d3a      	ldr	r5, [sp, #232]	; 0xe8
    1b7c:	6135      	str	r5, [r6, #16]
    1b7e:	9f3b      	ldr	r7, [sp, #236]	; 0xec
    1b80:	6177      	str	r7, [r6, #20]
    1b82:	9b3c      	ldr	r3, [sp, #240]	; 0xf0
    1b84:	61b3      	str	r3, [r6, #24]
    1b86:	2064      	movs	r0, #100	; 0x64
    1b88:	4a72      	ldr	r2, [pc, #456]	; (1d54 <_ZN14blink_nrf518224main17h5d64dfdd3a94922fE+0xfc4>)
    1b8a:	6010      	str	r0, [r2, #0]
    1b8c:	2063      	movs	r0, #99	; 0x63
    1b8e:	902e      	str	r0, [sp, #184]	; 0xb8
    1b90:	6010      	str	r0, [r2, #0]
    1b92:	02c8      	lsls	r0, r1, #11
    1b94:	4048      	eors	r0, r1
    1b96:	0cd9      	lsrs	r1, r3, #19
    1b98:	4059      	eors	r1, r3
    1b9a:	4041      	eors	r1, r0
    1b9c:	0a04      	lsrs	r4, r0, #8
    1b9e:	404c      	eors	r4, r1
    1ba0:	60f5      	str	r5, [r6, #12]
    1ba2:	6137      	str	r7, [r6, #16]
    1ba4:	9331      	str	r3, [sp, #196]	; 0xc4
    1ba6:	6173      	str	r3, [r6, #20]
    1ba8:	61b4      	str	r4, [r6, #24]
    1baa:	2114      	movs	r1, #20
    1bac:	4620      	mov	r0, r4
    1bae:	f002 fd1d 	bl	45ec <__aeabi_uidivmod>
    1bb2:	310a      	adds	r1, #10
    1bb4:	4608      	mov	r0, r1
    1bb6:	f003 fc65 	bl	5484 <__aeabi_ui2f>
    1bba:	4967      	ldr	r1, [pc, #412]	; (1d58 <_ZN14blink_nrf518224main17h5d64dfdd3a94922fE+0xfc8>)
    1bbc:	f002 ff46 	bl	4a4c <__aeabi_fdiv>
    1bc0:	992e      	ldr	r1, [sp, #184]	; 0xb8
    1bc2:	9008      	str	r0, [sp, #32]
    1bc4:	2900      	cmp	r1, #0
    1bc6:	d008      	beq.n	1bda <_ZN14blink_nrf518224main17h5d64dfdd3a94922fE+0xe4a>
    1bc8:	9830      	ldr	r0, [sp, #192]	; 0xc0
    1bca:	1808      	adds	r0, r1, r0
    1bcc:	902d      	str	r0, [sp, #180]	; 0xb4
    1bce:	4632      	mov	r2, r6
    1bd0:	4b60      	ldr	r3, [pc, #384]	; (1d54 <_ZN14blink_nrf518224main17h5d64dfdd3a94922fE+0xfc4>)
    1bd2:	972c      	str	r7, [sp, #176]	; 0xb0
    1bd4:	4627      	mov	r7, r4
    1bd6:	9c31      	ldr	r4, [sp, #196]	; 0xc4
    1bd8:	e013      	b.n	1c02 <_ZN14blink_nrf518224main17h5d64dfdd3a94922fE+0xe72>
    1bda:	a839      	add	r0, sp, #228	; 0xe4
    1bdc:	2110      	movs	r1, #16
    1bde:	f001 fd1d 	bl	361c <_ZN4zinc3hal8nrf518224rand9fill_rand17h7dfab05370fe1cccE>
    1be2:	9d39      	ldr	r5, [sp, #228]	; 0xe4
    1be4:	60f5      	str	r5, [r6, #12]
    1be6:	983a      	ldr	r0, [sp, #232]	; 0xe8
    1be8:	902c      	str	r0, [sp, #176]	; 0xb0
    1bea:	6130      	str	r0, [r6, #16]
    1bec:	9c3b      	ldr	r4, [sp, #236]	; 0xec
    1bee:	6174      	str	r4, [r6, #20]
    1bf0:	9f3c      	ldr	r7, [sp, #240]	; 0xf0
    1bf2:	61b7      	str	r7, [r6, #24]
    1bf4:	2064      	movs	r0, #100	; 0x64
    1bf6:	4957      	ldr	r1, [pc, #348]	; (1d54 <_ZN14blink_nrf518224main17h5d64dfdd3a94922fE+0xfc4>)
    1bf8:	6008      	str	r0, [r1, #0]
    1bfa:	2063      	movs	r0, #99	; 0x63
    1bfc:	902d      	str	r0, [sp, #180]	; 0xb4
    1bfe:	4632      	mov	r2, r6
    1c00:	460b      	mov	r3, r1
    1c02:	9e2d      	ldr	r6, [sp, #180]	; 0xb4
    1c04:	601e      	str	r6, [r3, #0]
    1c06:	02e8      	lsls	r0, r5, #11
    1c08:	4068      	eors	r0, r5
    1c0a:	0cf9      	lsrs	r1, r7, #19
    1c0c:	4079      	eors	r1, r7
    1c0e:	4041      	eors	r1, r0
    1c10:	0a00      	lsrs	r0, r0, #8
    1c12:	4048      	eors	r0, r1
    1c14:	992c      	ldr	r1, [sp, #176]	; 0xb0
    1c16:	60d1      	str	r1, [r2, #12]
    1c18:	9431      	str	r4, [sp, #196]	; 0xc4
    1c1a:	6114      	str	r4, [r2, #16]
    1c1c:	6157      	str	r7, [r2, #20]
    1c1e:	6190      	str	r0, [r2, #24]
    1c20:	2105      	movs	r1, #5
    1c22:	902e      	str	r0, [sp, #184]	; 0xb8
    1c24:	4615      	mov	r5, r2
    1c26:	461c      	mov	r4, r3
    1c28:	f002 fce0 	bl	45ec <__aeabi_uidivmod>
    1c2c:	0088      	lsls	r0, r1, #2
    1c2e:	9006      	str	r0, [sp, #24]
    1c30:	2e00      	cmp	r6, #0
    1c32:	d00a      	beq.n	1c4a <_ZN14blink_nrf518224main17h5d64dfdd3a94922fE+0xeba>
    1c34:	9830      	ldr	r0, [sp, #192]	; 0xc0
    1c36:	992d      	ldr	r1, [sp, #180]	; 0xb4
    1c38:	1808      	adds	r0, r1, r0
    1c3a:	902b      	str	r0, [sp, #172]	; 0xac
    1c3c:	462a      	mov	r2, r5
    1c3e:	4623      	mov	r3, r4
    1c40:	972d      	str	r7, [sp, #180]	; 0xb4
    1c42:	9c31      	ldr	r4, [sp, #196]	; 0xc4
    1c44:	992c      	ldr	r1, [sp, #176]	; 0xb0
    1c46:	9f2e      	ldr	r7, [sp, #184]	; 0xb8
    1c48:	e012      	b.n	1c70 <_ZN14blink_nrf518224main17h5d64dfdd3a94922fE+0xee0>
    1c4a:	a839      	add	r0, sp, #228	; 0xe4
    1c4c:	2110      	movs	r1, #16
    1c4e:	f001 fce5 	bl	361c <_ZN4zinc3hal8nrf518224rand9fill_rand17h7dfab05370fe1cccE>
    1c52:	9939      	ldr	r1, [sp, #228]	; 0xe4
    1c54:	60e9      	str	r1, [r5, #12]
    1c56:	4623      	mov	r3, r4
    1c58:	9c3a      	ldr	r4, [sp, #232]	; 0xe8
    1c5a:	612c      	str	r4, [r5, #16]
    1c5c:	983b      	ldr	r0, [sp, #236]	; 0xec
    1c5e:	902d      	str	r0, [sp, #180]	; 0xb4
    1c60:	6168      	str	r0, [r5, #20]
    1c62:	9f3c      	ldr	r7, [sp, #240]	; 0xf0
    1c64:	61af      	str	r7, [r5, #24]
    1c66:	2064      	movs	r0, #100	; 0x64
    1c68:	6018      	str	r0, [r3, #0]
    1c6a:	2063      	movs	r0, #99	; 0x63
    1c6c:	902b      	str	r0, [sp, #172]	; 0xac
    1c6e:	462a      	mov	r2, r5
    1c70:	9e2b      	ldr	r6, [sp, #172]	; 0xac
    1c72:	601e      	str	r6, [r3, #0]
    1c74:	02c8      	lsls	r0, r1, #11
    1c76:	4048      	eors	r0, r1
    1c78:	0cf9      	lsrs	r1, r7, #19
    1c7a:	4079      	eors	r1, r7
    1c7c:	4041      	eors	r1, r0
    1c7e:	0a05      	lsrs	r5, r0, #8
    1c80:	404d      	eors	r5, r1
    1c82:	9431      	str	r4, [sp, #196]	; 0xc4
    1c84:	60d4      	str	r4, [r2, #12]
    1c86:	982d      	ldr	r0, [sp, #180]	; 0xb4
    1c88:	6110      	str	r0, [r2, #16]
    1c8a:	972e      	str	r7, [sp, #184]	; 0xb8
    1c8c:	6157      	str	r7, [r2, #20]
    1c8e:	6195      	str	r5, [r2, #24]
    1c90:	217f      	movs	r1, #127	; 0x7f
    1c92:	4628      	mov	r0, r5
    1c94:	9114      	str	r1, [sp, #80]	; 0x50
    1c96:	4617      	mov	r7, r2
    1c98:	461c      	mov	r4, r3
    1c9a:	f002 fca7 	bl	45ec <__aeabi_uidivmod>
    1c9e:	9107      	str	r1, [sp, #28]
    1ca0:	2e00      	cmp	r6, #0
    1ca2:	d008      	beq.n	1cb6 <_ZN14blink_nrf518224main17h5d64dfdd3a94922fE+0xf26>
    1ca4:	9830      	ldr	r0, [sp, #192]	; 0xc0
    1ca6:	9a2b      	ldr	r2, [sp, #172]	; 0xac
    1ca8:	1810      	adds	r0, r2, r0
    1caa:	902c      	str	r0, [sp, #176]	; 0xb0
    1cac:	463a      	mov	r2, r7
    1cae:	4627      	mov	r7, r4
    1cb0:	9b31      	ldr	r3, [sp, #196]	; 0xc4
    1cb2:	9e2e      	ldr	r6, [sp, #184]	; 0xb8
    1cb4:	e012      	b.n	1cdc <_ZN14blink_nrf518224main17h5d64dfdd3a94922fE+0xf4c>
    1cb6:	a839      	add	r0, sp, #228	; 0xe4
    1cb8:	2110      	movs	r1, #16
    1cba:	f001 fcaf 	bl	361c <_ZN4zinc3hal8nrf518224rand9fill_rand17h7dfab05370fe1cccE>
    1cbe:	9b39      	ldr	r3, [sp, #228]	; 0xe4
    1cc0:	60fb      	str	r3, [r7, #12]
    1cc2:	983a      	ldr	r0, [sp, #232]	; 0xe8
    1cc4:	902d      	str	r0, [sp, #180]	; 0xb4
    1cc6:	6138      	str	r0, [r7, #16]
    1cc8:	9e3b      	ldr	r6, [sp, #236]	; 0xec
    1cca:	617e      	str	r6, [r7, #20]
    1ccc:	9d3c      	ldr	r5, [sp, #240]	; 0xf0
    1cce:	61bd      	str	r5, [r7, #24]
    1cd0:	2064      	movs	r0, #100	; 0x64
    1cd2:	6020      	str	r0, [r4, #0]
    1cd4:	2063      	movs	r0, #99	; 0x63
    1cd6:	902c      	str	r0, [sp, #176]	; 0xb0
    1cd8:	463a      	mov	r2, r7
    1cda:	4627      	mov	r7, r4
    1cdc:	9829      	ldr	r0, [sp, #164]	; 0xa4
    1cde:	4920      	ldr	r1, [pc, #128]	; (1d60 <_ZN14blink_nrf518224main17h5d64dfdd3a94922fE+0xfd0>)
    1ce0:	5808      	ldr	r0, [r1, r0]
    1ce2:	9004      	str	r0, [sp, #16]
    1ce4:	9822      	ldr	r0, [sp, #136]	; 0x88
    1ce6:	5808      	ldr	r0, [r1, r0]
    1ce8:	9005      	str	r0, [sp, #20]
    1cea:	9819      	ldr	r0, [sp, #100]	; 0x64
    1cec:	5808      	ldr	r0, [r1, r0]
    1cee:	9019      	str	r0, [sp, #100]	; 0x64
    1cf0:	9811      	ldr	r0, [sp, #68]	; 0x44
    1cf2:	5808      	ldr	r0, [r1, r0]
    1cf4:	9022      	str	r0, [sp, #136]	; 0x88
    1cf6:	980d      	ldr	r0, [sp, #52]	; 0x34
    1cf8:	5808      	ldr	r0, [r1, r0]
    1cfa:	9029      	str	r0, [sp, #164]	; 0xa4
    1cfc:	9809      	ldr	r0, [sp, #36]	; 0x24
    1cfe:	5808      	ldr	r0, [r1, r0]
    1d00:	902b      	str	r0, [sp, #172]	; 0xac
    1d02:	9806      	ldr	r0, [sp, #24]
    1d04:	5808      	ldr	r0, [r1, r0]
    1d06:	9031      	str	r0, [sp, #196]	; 0xc4
    1d08:	9c2c      	ldr	r4, [sp, #176]	; 0xb0
    1d0a:	603c      	str	r4, [r7, #0]
    1d0c:	02d8      	lsls	r0, r3, #11
    1d0e:	4058      	eors	r0, r3
    1d10:	0ce9      	lsrs	r1, r5, #19
    1d12:	4069      	eors	r1, r5
    1d14:	4041      	eors	r1, r0
    1d16:	0a07      	lsrs	r7, r0, #8
    1d18:	404f      	eors	r7, r1
    1d1a:	982d      	ldr	r0, [sp, #180]	; 0xb4
    1d1c:	60d0      	str	r0, [r2, #12]
    1d1e:	962e      	str	r6, [sp, #184]	; 0xb8
    1d20:	6116      	str	r6, [r2, #16]
    1d22:	6155      	str	r5, [r2, #20]
    1d24:	6197      	str	r7, [r2, #24]
    1d26:	2114      	movs	r1, #20
    1d28:	4638      	mov	r0, r7
    1d2a:	4616      	mov	r6, r2
    1d2c:	f002 fc5e 	bl	45ec <__aeabi_uidivmod>
    1d30:	4608      	mov	r0, r1
    1d32:	f003 fba7 	bl	5484 <__aeabi_ui2f>
    1d36:	4601      	mov	r1, r0
    1d38:	9832      	ldr	r0, [sp, #200]	; 0xc8
    1d3a:	4041      	eors	r1, r0
    1d3c:	9132      	str	r1, [sp, #200]	; 0xc8
    1d3e:	2c00      	cmp	r4, #0
    1d40:	d010      	beq.n	1d64 <_ZN14blink_nrf518224main17h5d64dfdd3a94922fE+0xfd4>
    1d42:	9830      	ldr	r0, [sp, #192]	; 0xc0
    1d44:	992c      	ldr	r1, [sp, #176]	; 0xb0
    1d46:	1808      	adds	r0, r1, r0
    1d48:	4632      	mov	r2, r6
    1d4a:	4902      	ldr	r1, [pc, #8]	; (1d54 <_ZN14blink_nrf518224main17h5d64dfdd3a94922fE+0xfc4>)
    1d4c:	9b2d      	ldr	r3, [sp, #180]	; 0xb4
    1d4e:	9c2e      	ldr	r4, [sp, #184]	; 0xb8
    1d50:	e01b      	b.n	1d8a <_ZN14blink_nrf518224main17h5d64dfdd3a94922fE+0xffa>
    1d52:	46c0      	nop			; (mov r8, r8)
    1d54:	2000043c 	.word	0x2000043c
    1d58:	41a00000 	.word	0x41a00000
    1d5c:	20000000 	.word	0x20000000
    1d60:	00008fac 	.word	0x00008fac
    1d64:	a839      	add	r0, sp, #228	; 0xe4
    1d66:	2110      	movs	r1, #16
    1d68:	f001 fc58 	bl	361c <_ZN4zinc3hal8nrf518224rand9fill_rand17h7dfab05370fe1cccE>
    1d6c:	9b39      	ldr	r3, [sp, #228]	; 0xe4
    1d6e:	4631      	mov	r1, r6
    1d70:	60cb      	str	r3, [r1, #12]
    1d72:	9c3a      	ldr	r4, [sp, #232]	; 0xe8
    1d74:	610c      	str	r4, [r1, #16]
    1d76:	9d3b      	ldr	r5, [sp, #236]	; 0xec
    1d78:	614d      	str	r5, [r1, #20]
    1d7a:	9f3c      	ldr	r7, [sp, #240]	; 0xf0
    1d7c:	618f      	str	r7, [r1, #24]
    1d7e:	2064      	movs	r0, #100	; 0x64
    1d80:	4ef3      	ldr	r6, [pc, #972]	; (2150 <_ZN14blink_nrf518224main17h5d64dfdd3a94922fE+0x13c0>)
    1d82:	6030      	str	r0, [r6, #0]
    1d84:	2063      	movs	r0, #99	; 0x63
    1d86:	460a      	mov	r2, r1
    1d88:	4631      	mov	r1, r6
    1d8a:	6008      	str	r0, [r1, #0]
    1d8c:	02d8      	lsls	r0, r3, #11
    1d8e:	4058      	eors	r0, r3
    1d90:	0cf9      	lsrs	r1, r7, #19
    1d92:	4079      	eors	r1, r7
    1d94:	4041      	eors	r1, r0
    1d96:	0a00      	lsrs	r0, r0, #8
    1d98:	4048      	eors	r0, r1
    1d9a:	4611      	mov	r1, r2
    1d9c:	310c      	adds	r1, #12
    1d9e:	c1b0      	stmia	r1!, {r4, r5, r7}
    1da0:	6190      	str	r0, [r2, #24]
    1da2:	9904      	ldr	r1, [sp, #16]
    1da4:	9139      	str	r1, [sp, #228]	; 0xe4
    1da6:	ac39      	add	r4, sp, #228	; 0xe4
    1da8:	992a      	ldr	r1, [sp, #168]	; 0xa8
    1daa:	7121      	strb	r1, [r4, #4]
    1dac:	a955      	add	r1, sp, #340	; 0x154
    1dae:	784a      	ldrb	r2, [r1, #1]
    1db0:	71a2      	strb	r2, [r4, #6]
    1db2:	780a      	ldrb	r2, [r1, #0]
    1db4:	7162      	strb	r2, [r4, #5]
    1db6:	7889      	ldrb	r1, [r1, #2]
    1db8:	71e1      	strb	r1, [r4, #7]
    1dba:	9928      	ldr	r1, [sp, #160]	; 0xa0
    1dbc:	913b      	str	r1, [sp, #236]	; 0xec
    1dbe:	9926      	ldr	r1, [sp, #152]	; 0x98
    1dc0:	913c      	str	r1, [sp, #240]	; 0xf0
    1dc2:	9905      	ldr	r1, [sp, #20]
    1dc4:	913d      	str	r1, [sp, #244]	; 0xf4
    1dc6:	9925      	ldr	r1, [sp, #148]	; 0x94
    1dc8:	7521      	strb	r1, [r4, #20]
    1dca:	a938      	add	r1, sp, #224	; 0xe0
    1dcc:	784a      	ldrb	r2, [r1, #1]
    1dce:	75a2      	strb	r2, [r4, #22]
    1dd0:	780a      	ldrb	r2, [r1, #0]
    1dd2:	7562      	strb	r2, [r4, #21]
    1dd4:	7889      	ldrb	r1, [r1, #2]
    1dd6:	75e1      	strb	r1, [r4, #23]
    1dd8:	9921      	ldr	r1, [sp, #132]	; 0x84
    1dda:	913f      	str	r1, [sp, #252]	; 0xfc
    1ddc:	9920      	ldr	r1, [sp, #128]	; 0x80
    1dde:	9140      	str	r1, [sp, #256]	; 0x100
    1de0:	9919      	ldr	r1, [sp, #100]	; 0x64
    1de2:	9141      	str	r1, [sp, #260]	; 0x104
    1de4:	2124      	movs	r1, #36	; 0x24
    1de6:	9a1e      	ldr	r2, [sp, #120]	; 0x78
    1de8:	5462      	strb	r2, [r4, r1]
    1dea:	a937      	add	r1, sp, #220	; 0xdc
    1dec:	784a      	ldrb	r2, [r1, #1]
    1dee:	2326      	movs	r3, #38	; 0x26
    1df0:	54e2      	strb	r2, [r4, r3]
    1df2:	780a      	ldrb	r2, [r1, #0]
    1df4:	2325      	movs	r3, #37	; 0x25
    1df6:	54e2      	strb	r2, [r4, r3]
    1df8:	7889      	ldrb	r1, [r1, #2]
    1dfa:	2227      	movs	r2, #39	; 0x27
    1dfc:	54a1      	strb	r1, [r4, r2]
    1dfe:	991a      	ldr	r1, [sp, #104]	; 0x68
    1e00:	9143      	str	r1, [sp, #268]	; 0x10c
    1e02:	9915      	ldr	r1, [sp, #84]	; 0x54
    1e04:	9144      	str	r1, [sp, #272]	; 0x110
    1e06:	9922      	ldr	r1, [sp, #136]	; 0x88
    1e08:	9145      	str	r1, [sp, #276]	; 0x114
    1e0a:	2134      	movs	r1, #52	; 0x34
    1e0c:	9a13      	ldr	r2, [sp, #76]	; 0x4c
    1e0e:	5462      	strb	r2, [r4, r1]
    1e10:	a936      	add	r1, sp, #216	; 0xd8
    1e12:	784a      	ldrb	r2, [r1, #1]
    1e14:	2336      	movs	r3, #54	; 0x36
    1e16:	54e2      	strb	r2, [r4, r3]
    1e18:	780a      	ldrb	r2, [r1, #0]
    1e1a:	2335      	movs	r3, #53	; 0x35
    1e1c:	54e2      	strb	r2, [r4, r3]
    1e1e:	7889      	ldrb	r1, [r1, #2]
    1e20:	2237      	movs	r2, #55	; 0x37
    1e22:	54a1      	strb	r1, [r4, r2]
    1e24:	9912      	ldr	r1, [sp, #72]	; 0x48
    1e26:	9147      	str	r1, [sp, #284]	; 0x11c
    1e28:	9910      	ldr	r1, [sp, #64]	; 0x40
    1e2a:	9148      	str	r1, [sp, #288]	; 0x120
    1e2c:	9929      	ldr	r1, [sp, #164]	; 0xa4
    1e2e:	9149      	str	r1, [sp, #292]	; 0x124
    1e30:	2144      	movs	r1, #68	; 0x44
    1e32:	9a0f      	ldr	r2, [sp, #60]	; 0x3c
    1e34:	5462      	strb	r2, [r4, r1]
    1e36:	a935      	add	r1, sp, #212	; 0xd4
    1e38:	784a      	ldrb	r2, [r1, #1]
    1e3a:	2346      	movs	r3, #70	; 0x46
    1e3c:	54e2      	strb	r2, [r4, r3]
    1e3e:	780a      	ldrb	r2, [r1, #0]
    1e40:	2345      	movs	r3, #69	; 0x45
    1e42:	54e2      	strb	r2, [r4, r3]
    1e44:	7889      	ldrb	r1, [r1, #2]
    1e46:	2247      	movs	r2, #71	; 0x47
    1e48:	54a1      	strb	r1, [r4, r2]
    1e4a:	990e      	ldr	r1, [sp, #56]	; 0x38
    1e4c:	914b      	str	r1, [sp, #300]	; 0x12c
    1e4e:	990c      	ldr	r1, [sp, #48]	; 0x30
    1e50:	914c      	str	r1, [sp, #304]	; 0x130
    1e52:	992b      	ldr	r1, [sp, #172]	; 0xac
    1e54:	914d      	str	r1, [sp, #308]	; 0x134
    1e56:	2154      	movs	r1, #84	; 0x54
    1e58:	9a0b      	ldr	r2, [sp, #44]	; 0x2c
    1e5a:	5462      	strb	r2, [r4, r1]
    1e5c:	a934      	add	r1, sp, #208	; 0xd0
    1e5e:	784a      	ldrb	r2, [r1, #1]
    1e60:	2356      	movs	r3, #86	; 0x56
    1e62:	54e2      	strb	r2, [r4, r3]
    1e64:	780a      	ldrb	r2, [r1, #0]
    1e66:	2355      	movs	r3, #85	; 0x55
    1e68:	54e2      	strb	r2, [r4, r3]
    1e6a:	7889      	ldrb	r1, [r1, #2]
    1e6c:	2257      	movs	r2, #87	; 0x57
    1e6e:	54a1      	strb	r1, [r4, r2]
    1e70:	990a      	ldr	r1, [sp, #40]	; 0x28
    1e72:	914f      	str	r1, [sp, #316]	; 0x13c
    1e74:	9908      	ldr	r1, [sp, #32]
    1e76:	9150      	str	r1, [sp, #320]	; 0x140
    1e78:	9931      	ldr	r1, [sp, #196]	; 0xc4
    1e7a:	9151      	str	r1, [sp, #324]	; 0x144
    1e7c:	2164      	movs	r1, #100	; 0x64
    1e7e:	9122      	str	r1, [sp, #136]	; 0x88
    1e80:	9a07      	ldr	r2, [sp, #28]
    1e82:	5462      	strb	r2, [r4, r1]
    1e84:	a933      	add	r1, sp, #204	; 0xcc
    1e86:	784a      	ldrb	r2, [r1, #1]
    1e88:	2366      	movs	r3, #102	; 0x66
    1e8a:	54e2      	strb	r2, [r4, r3]
    1e8c:	780a      	ldrb	r2, [r1, #0]
    1e8e:	2365      	movs	r3, #101	; 0x65
    1e90:	54e2      	strb	r2, [r4, r3]
    1e92:	7889      	ldrb	r1, [r1, #2]
    1e94:	2267      	movs	r2, #103	; 0x67
    1e96:	54a1      	strb	r1, [r4, r2]
    1e98:	9932      	ldr	r1, [sp, #200]	; 0xc8
    1e9a:	9153      	str	r1, [sp, #332]	; 0x14c
    1e9c:	2114      	movs	r1, #20
    1e9e:	9105      	str	r1, [sp, #20]
    1ea0:	f002 fba4 	bl	45ec <__aeabi_uidivmod>
    1ea4:	310a      	adds	r1, #10
    1ea6:	4608      	mov	r0, r1
    1ea8:	f003 faec 	bl	5484 <__aeabi_ui2f>
    1eac:	49a9      	ldr	r1, [pc, #676]	; (2154 <_ZN14blink_nrf518224main17h5d64dfdd3a94922fE+0x13c4>)
    1eae:	f002 fdcd 	bl	4a4c <__aeabi_fdiv>
    1eb2:	9054      	str	r0, [sp, #336]	; 0x150
    1eb4:	48a8      	ldr	r0, [pc, #672]	; (2158 <_ZN14blink_nrf518224main17h5d64dfdd3a94922fE+0x13c8>)
    1eb6:	6881      	ldr	r1, [r0, #8]
    1eb8:	9107      	str	r1, [sp, #28]
    1eba:	9157      	str	r1, [sp, #348]	; 0x15c
    1ebc:	6841      	ldr	r1, [r0, #4]
    1ebe:	9106      	str	r1, [sp, #24]
    1ec0:	9156      	str	r1, [sp, #344]	; 0x158
    1ec2:	6800      	ldr	r0, [r0, #0]
    1ec4:	9015      	str	r0, [sp, #84]	; 0x54
    1ec6:	9055      	str	r0, [sp, #340]	; 0x154
    1ec8:	a855      	add	r0, sp, #340	; 0x154
    1eca:	2540      	movs	r5, #64	; 0x40
    1ecc:	2230      	movs	r2, #48	; 0x30
    1ece:	4629      	mov	r1, r5
    1ed0:	f7fe fb86 	bl	5e0 <_ZN14blink_nrf518227display4draw17haa5976ca818aacebE>
    1ed4:	4620      	mov	r0, r4
    1ed6:	3070      	adds	r0, #112	; 0x70
    1ed8:	9026      	str	r0, [sp, #152]	; 0x98
    1eda:	4620      	mov	r0, r4
    1edc:	3068      	adds	r0, #104	; 0x68
    1ede:	9012      	str	r0, [sp, #72]	; 0x48
    1ee0:	4620      	mov	r0, r4
    1ee2:	3064      	adds	r0, #100	; 0x64
    1ee4:	9011      	str	r0, [sp, #68]	; 0x44
    1ee6:	4620      	mov	r0, r4
    1ee8:	3058      	adds	r0, #88	; 0x58
    1eea:	9010      	str	r0, [sp, #64]	; 0x40
    1eec:	4620      	mov	r0, r4
    1eee:	3054      	adds	r0, #84	; 0x54
    1ef0:	900f      	str	r0, [sp, #60]	; 0x3c
    1ef2:	4620      	mov	r0, r4
    1ef4:	3048      	adds	r0, #72	; 0x48
    1ef6:	900e      	str	r0, [sp, #56]	; 0x38
    1ef8:	4620      	mov	r0, r4
    1efa:	3044      	adds	r0, #68	; 0x44
    1efc:	900d      	str	r0, [sp, #52]	; 0x34
    1efe:	4620      	mov	r0, r4
    1f00:	3038      	adds	r0, #56	; 0x38
    1f02:	900c      	str	r0, [sp, #48]	; 0x30
    1f04:	4620      	mov	r0, r4
    1f06:	3034      	adds	r0, #52	; 0x34
    1f08:	900b      	str	r0, [sp, #44]	; 0x2c
    1f0a:	4620      	mov	r0, r4
    1f0c:	3028      	adds	r0, #40	; 0x28
    1f0e:	900a      	str	r0, [sp, #40]	; 0x28
    1f10:	4620      	mov	r0, r4
    1f12:	3024      	adds	r0, #36	; 0x24
    1f14:	9009      	str	r0, [sp, #36]	; 0x24
    1f16:	4620      	mov	r0, r4
    1f18:	3018      	adds	r0, #24
    1f1a:	9008      	str	r0, [sp, #32]
    1f1c:	3408      	adds	r4, #8
    1f1e:	9413      	str	r4, [sp, #76]	; 0x4c
    1f20:	2000      	movs	r0, #0
    1f22:	901a      	str	r0, [sp, #104]	; 0x68
    1f24:	e006      	b.n	1f34 <_ZN14blink_nrf518224main17h5d64dfdd3a94922fE+0x11a4>
    1f26:	5411      	strb	r1, [r2, r0]
    1f28:	488c      	ldr	r0, [pc, #560]	; (215c <_ZN14blink_nrf518224main17h5d64dfdd3a94922fE+0x13cc>)
    1f2a:	991b      	ldr	r1, [sp, #108]	; 0x6c
    1f2c:	5411      	strb	r1, [r2, r0]
    1f2e:	f7fe f9ab 	bl	288 <_ZN14blink_nrf518227display14update_display17h4431b73682dcb2eaE>
    1f32:	9d19      	ldr	r5, [sp, #100]	; 0x64
    1f34:	981a      	ldr	r0, [sp, #104]	; 0x68
    1f36:	1c40      	adds	r0, r0, #1
    1f38:	901a      	str	r0, [sp, #104]	; 0x68
    1f3a:	2832      	cmp	r0, #50	; 0x32
    1f3c:	d116      	bne.n	1f6c <_ZN14blink_nrf518224main17h5d64dfdd3a94922fE+0x11dc>
    1f3e:	2001      	movs	r0, #1
    1f40:	4987      	ldr	r1, [pc, #540]	; (2160 <_ZN14blink_nrf518224main17h5d64dfdd3a94922fE+0x13d0>)
    1f42:	7008      	strb	r0, [r1, #0]
    1f44:	2000      	movs	r0, #0
    1f46:	4987      	ldr	r1, [pc, #540]	; (2164 <_ZN14blink_nrf518224main17h5d64dfdd3a94922fE+0x13d4>)
    1f48:	6008      	str	r0, [r1, #0]
    1f4a:	4987      	ldr	r1, [pc, #540]	; (2168 <_ZN14blink_nrf518224main17h5d64dfdd3a94922fE+0x13d8>)
    1f4c:	460b      	mov	r3, r1
    1f4e:	6899      	ldr	r1, [r3, #8]
    1f50:	4a86      	ldr	r2, [pc, #536]	; (216c <_ZN14blink_nrf518224main17h5d64dfdd3a94922fE+0x13dc>)
    1f52:	6091      	str	r1, [r2, #8]
    1f54:	6859      	ldr	r1, [r3, #4]
    1f56:	6051      	str	r1, [r2, #4]
    1f58:	6819      	ldr	r1, [r3, #0]
    1f5a:	6011      	str	r1, [r2, #0]
    1f5c:	4984      	ldr	r1, [pc, #528]	; (2170 <_ZN14blink_nrf518224main17h5d64dfdd3a94922fE+0x13e0>)
    1f5e:	6008      	str	r0, [r1, #0]
    1f60:	4984      	ldr	r1, [pc, #528]	; (2174 <_ZN14blink_nrf518224main17h5d64dfdd3a94922fE+0x13e4>)
    1f62:	6008      	str	r0, [r1, #0]
    1f64:	4984      	ldr	r1, [pc, #528]	; (2178 <_ZN14blink_nrf518224main17h5d64dfdd3a94922fE+0x13e8>)
    1f66:	6008      	str	r0, [r1, #0]
    1f68:	4984      	ldr	r1, [pc, #528]	; (217c <_ZN14blink_nrf518224main17h5d64dfdd3a94922fE+0x13ec>)
    1f6a:	6008      	str	r0, [r1, #0]
    1f6c:	9519      	str	r5, [sp, #100]	; 0x64
    1f6e:	a855      	add	r0, sp, #340	; 0x154
    1f70:	991d      	ldr	r1, [sp, #116]	; 0x74
    1f72:	7001      	strb	r1, [r0, #0]
    1f74:	f001 fa4a 	bl	340c <_ZN70_$LT$zinc..hal..nrf51822..pin..Pin$u20$as$u20$zinc..hal..pin..Gpio$GT$5level17hd366ba0616e528fcE>
    1f78:	4601      	mov	r1, r0
    1f7a:	a855      	add	r0, sp, #340	; 0x154
    1f7c:	9a1c      	ldr	r2, [sp, #112]	; 0x70
    1f7e:	7002      	strb	r2, [r0, #0]
    1f80:	b2c9      	uxtb	r1, r1
    1f82:	2200      	movs	r2, #0
    1f84:	2900      	cmp	r1, #0
    1f86:	9c18      	ldr	r4, [sp, #96]	; 0x60
    1f88:	d000      	beq.n	1f8c <_ZN14blink_nrf518224main17h5d64dfdd3a94922fE+0x11fc>
    1f8a:	4614      	mov	r4, r2
    1f8c:	43d5      	mvns	r5, r2
    1f8e:	2900      	cmp	r1, #0
    1f90:	d100      	bne.n	1f94 <_ZN14blink_nrf518224main17h5d64dfdd3a94922fE+0x1204>
    1f92:	460d      	mov	r5, r1
    1f94:	f001 fa3a 	bl	340c <_ZN70_$LT$zinc..hal..nrf51822..pin..Pin$u20$as$u20$zinc..hal..pin..Gpio$GT$5level17hd366ba0616e528fcE>
    1f98:	9923      	ldr	r1, [sp, #140]	; 0x8c
    1f9a:	4208      	tst	r0, r1
    1f9c:	d000      	beq.n	1fa0 <_ZN14blink_nrf518224main17h5d64dfdd3a94922fE+0x1210>
    1f9e:	4625      	mov	r5, r4
    1fa0:	4877      	ldr	r0, [pc, #476]	; (2180 <_ZN14blink_nrf518224main17h5d64dfdd3a94922fE+0x13f0>)
    1fa2:	4205      	tst	r5, r0
    1fa4:	d021      	beq.n	1fea <_ZN14blink_nrf518224main17h5d64dfdd3a94922fE+0x125a>
    1fa6:	9e07      	ldr	r6, [sp, #28]
    1fa8:	9657      	str	r6, [sp, #348]	; 0x15c
    1faa:	9f06      	ldr	r7, [sp, #24]
    1fac:	9756      	str	r7, [sp, #344]	; 0x158
    1fae:	9815      	ldr	r0, [sp, #84]	; 0x54
    1fb0:	9055      	str	r0, [sp, #340]	; 0x154
    1fb2:	a855      	add	r0, sp, #340	; 0x154
    1fb4:	2230      	movs	r2, #48	; 0x30
    1fb6:	9c19      	ldr	r4, [sp, #100]	; 0x64
    1fb8:	4621      	mov	r1, r4
    1fba:	9232      	str	r2, [sp, #200]	; 0xc8
    1fbc:	f7fe fc72 	bl	8a4 <_ZN14blink_nrf518227display11clear_image17h8a05d38a1b3eda46E>
    1fc0:	9657      	str	r6, [sp, #348]	; 0x15c
    1fc2:	9756      	str	r7, [sp, #344]	; 0x158
    1fc4:	9815      	ldr	r0, [sp, #84]	; 0x54
    1fc6:	9055      	str	r0, [sp, #340]	; 0x154
    1fc8:	1928      	adds	r0, r5, r4
    1fca:	b202      	sxth	r2, r0
    1fcc:	2173      	movs	r1, #115	; 0x73
    1fce:	2a73      	cmp	r2, #115	; 0x73
    1fd0:	db00      	blt.n	1fd4 <_ZN14blink_nrf518224main17h5d64dfdd3a94922fE+0x1244>
    1fd2:	4608      	mov	r0, r1
    1fd4:	b201      	sxth	r1, r0
    1fd6:	2400      	movs	r4, #0
    1fd8:	2900      	cmp	r1, #0
    1fda:	db00      	blt.n	1fde <_ZN14blink_nrf518224main17h5d64dfdd3a94922fE+0x124e>
    1fdc:	4604      	mov	r4, r0
    1fde:	a855      	add	r0, sp, #340	; 0x154
    1fe0:	4621      	mov	r1, r4
    1fe2:	9a32      	ldr	r2, [sp, #200]	; 0xc8
    1fe4:	f7fe fafc 	bl	5e0 <_ZN14blink_nrf518227display4draw17haa5976ca818aacebE>
    1fe8:	e000      	b.n	1fec <_ZN14blink_nrf518224main17h5d64dfdd3a94922fE+0x125c>
    1fea:	9c19      	ldr	r4, [sp, #100]	; 0x64
    1fec:	9813      	ldr	r0, [sp, #76]	; 0x4c
    1fee:	6800      	ldr	r0, [r0, #0]
    1ff0:	f003 f9d8 	bl	53a4 <__aeabi_f2iz>
    1ff4:	4602      	mov	r2, r0
    1ff6:	ae39      	add	r6, sp, #228	; 0xe4
    1ff8:	7931      	ldrb	r1, [r6, #4]
    1ffa:	9839      	ldr	r0, [sp, #228]	; 0xe4
    1ffc:	f7fe fc52 	bl	8a4 <_ZN14blink_nrf518227display11clear_image17h8a05d38a1b3eda46E>
    2000:	9808      	ldr	r0, [sp, #32]
    2002:	6800      	ldr	r0, [r0, #0]
    2004:	f003 f9ce 	bl	53a4 <__aeabi_f2iz>
    2008:	4602      	mov	r2, r0
    200a:	7d31      	ldrb	r1, [r6, #20]
    200c:	983d      	ldr	r0, [sp, #244]	; 0xf4
    200e:	f7fe fc49 	bl	8a4 <_ZN14blink_nrf518227display11clear_image17h8a05d38a1b3eda46E>
    2012:	980a      	ldr	r0, [sp, #40]	; 0x28
    2014:	6800      	ldr	r0, [r0, #0]
    2016:	f003 f9c5 	bl	53a4 <__aeabi_f2iz>
    201a:	4602      	mov	r2, r0
    201c:	9809      	ldr	r0, [sp, #36]	; 0x24
    201e:	7801      	ldrb	r1, [r0, #0]
    2020:	9841      	ldr	r0, [sp, #260]	; 0x104
    2022:	f7fe fc3f 	bl	8a4 <_ZN14blink_nrf518227display11clear_image17h8a05d38a1b3eda46E>
    2026:	980c      	ldr	r0, [sp, #48]	; 0x30
    2028:	6800      	ldr	r0, [r0, #0]
    202a:	f003 f9bb 	bl	53a4 <__aeabi_f2iz>
    202e:	4602      	mov	r2, r0
    2030:	980b      	ldr	r0, [sp, #44]	; 0x2c
    2032:	7801      	ldrb	r1, [r0, #0]
    2034:	9845      	ldr	r0, [sp, #276]	; 0x114
    2036:	f7fe fc35 	bl	8a4 <_ZN14blink_nrf518227display11clear_image17h8a05d38a1b3eda46E>
    203a:	980e      	ldr	r0, [sp, #56]	; 0x38
    203c:	6800      	ldr	r0, [r0, #0]
    203e:	f003 f9b1 	bl	53a4 <__aeabi_f2iz>
    2042:	4602      	mov	r2, r0
    2044:	980d      	ldr	r0, [sp, #52]	; 0x34
    2046:	7801      	ldrb	r1, [r0, #0]
    2048:	9849      	ldr	r0, [sp, #292]	; 0x124
    204a:	f7fe fc2b 	bl	8a4 <_ZN14blink_nrf518227display11clear_image17h8a05d38a1b3eda46E>
    204e:	9810      	ldr	r0, [sp, #64]	; 0x40
    2050:	6800      	ldr	r0, [r0, #0]
    2052:	f003 f9a7 	bl	53a4 <__aeabi_f2iz>
    2056:	4602      	mov	r2, r0
    2058:	980f      	ldr	r0, [sp, #60]	; 0x3c
    205a:	7801      	ldrb	r1, [r0, #0]
    205c:	984d      	ldr	r0, [sp, #308]	; 0x134
    205e:	f7fe fc21 	bl	8a4 <_ZN14blink_nrf518227display11clear_image17h8a05d38a1b3eda46E>
    2062:	9812      	ldr	r0, [sp, #72]	; 0x48
    2064:	6800      	ldr	r0, [r0, #0]
    2066:	f003 f99d 	bl	53a4 <__aeabi_f2iz>
    206a:	4602      	mov	r2, r0
    206c:	9811      	ldr	r0, [sp, #68]	; 0x44
    206e:	7801      	ldrb	r1, [r0, #0]
    2070:	9851      	ldr	r0, [sp, #324]	; 0x144
    2072:	f7fe fc17 	bl	8a4 <_ZN14blink_nrf518227display11clear_image17h8a05d38a1b3eda46E>
    2076:	1ca0      	adds	r0, r4, #2
    2078:	b200      	sxth	r0, r0
    207a:	901e      	str	r0, [sp, #120]	; 0x78
    207c:	9419      	str	r4, [sp, #100]	; 0x64
    207e:	4620      	mov	r0, r4
    2080:	300a      	adds	r0, #10
    2082:	b200      	sxth	r0, r0
    2084:	9021      	str	r0, [sp, #132]	; 0x84
    2086:	981a      	ldr	r0, [sp, #104]	; 0x68
    2088:	0880      	lsrs	r0, r0, #2
    208a:	3028      	adds	r0, #40	; 0x28
    208c:	9020      	str	r0, [sp, #128]	; 0x80
    208e:	4637      	mov	r7, r6
    2090:	68b9      	ldr	r1, [r7, #8]
    2092:	68f8      	ldr	r0, [r7, #12]
    2094:	f002 fb48 	bl	4728 <__aeabi_fadd>
    2098:	4605      	mov	r5, r0
    209a:	60bd      	str	r5, [r7, #8]
    209c:	2085      	movs	r0, #133	; 0x85
    209e:	05c1      	lsls	r1, r0, #23
    20a0:	4628      	mov	r0, r5
    20a2:	f002 fb0d 	bl	46c0 <__aeabi_fcmpgt>
    20a6:	2100      	movs	r1, #0
    20a8:	9128      	str	r1, [sp, #160]	; 0xa0
    20aa:	43c9      	mvns	r1, r1
    20ac:	912c      	str	r1, [sp, #176]	; 0xb0
    20ae:	4639      	mov	r1, r7
    20b0:	3108      	adds	r1, #8
    20b2:	9131      	str	r1, [sp, #196]	; 0xc4
    20b4:	4639      	mov	r1, r7
    20b6:	310c      	adds	r1, #12
    20b8:	3610      	adds	r6, #16
    20ba:	962d      	str	r6, [sp, #180]	; 0xb4
    20bc:	2800      	cmp	r0, #0
    20be:	9732      	str	r7, [sp, #200]	; 0xc8
    20c0:	d100      	bne.n	20c4 <_ZN14blink_nrf518224main17h5d64dfdd3a94922fE+0x1334>
    20c2:	e0ca      	b.n	225a <_ZN14blink_nrf518224main17h5d64dfdd3a94922fE+0x14ca>
    20c4:	4b22      	ldr	r3, [pc, #136]	; (2150 <_ZN14blink_nrf518224main17h5d64dfdd3a94922fE+0x13c0>)
    20c6:	6818      	ldr	r0, [r3, #0]
    20c8:	2800      	cmp	r0, #0
    20ca:	4a28      	ldr	r2, [pc, #160]	; (216c <_ZN14blink_nrf518224main17h5d64dfdd3a94922fE+0x13dc>)
    20cc:	9125      	str	r1, [sp, #148]	; 0x94
    20ce:	d008      	beq.n	20e2 <_ZN14blink_nrf518224main17h5d64dfdd3a94922fE+0x1352>
    20d0:	9930      	ldr	r1, [sp, #192]	; 0xc0
    20d2:	1840      	adds	r0, r0, r1
    20d4:	9029      	str	r0, [sp, #164]	; 0xa4
    20d6:	68d0      	ldr	r0, [r2, #12]
    20d8:	6911      	ldr	r1, [r2, #16]
    20da:	912a      	str	r1, [sp, #168]	; 0xa8
    20dc:	6957      	ldr	r7, [r2, #20]
    20de:	6995      	ldr	r5, [r2, #24]
    20e0:	e012      	b.n	2108 <_ZN14blink_nrf518224main17h5d64dfdd3a94922fE+0x1378>
    20e2:	a855      	add	r0, sp, #340	; 0x154
    20e4:	2110      	movs	r1, #16
    20e6:	f001 fa99 	bl	361c <_ZN4zinc3hal8nrf518224rand9fill_rand17h7dfab05370fe1cccE>
    20ea:	4b19      	ldr	r3, [pc, #100]	; (2150 <_ZN14blink_nrf518224main17h5d64dfdd3a94922fE+0x13c0>)
    20ec:	4a1f      	ldr	r2, [pc, #124]	; (216c <_ZN14blink_nrf518224main17h5d64dfdd3a94922fE+0x13dc>)
    20ee:	9855      	ldr	r0, [sp, #340]	; 0x154
    20f0:	60d0      	str	r0, [r2, #12]
    20f2:	9956      	ldr	r1, [sp, #344]	; 0x158
    20f4:	912a      	str	r1, [sp, #168]	; 0xa8
    20f6:	6111      	str	r1, [r2, #16]
    20f8:	9f57      	ldr	r7, [sp, #348]	; 0x15c
    20fa:	6157      	str	r7, [r2, #20]
    20fc:	9d58      	ldr	r5, [sp, #352]	; 0x160
    20fe:	6195      	str	r5, [r2, #24]
    2100:	9922      	ldr	r1, [sp, #136]	; 0x88
    2102:	6019      	str	r1, [r3, #0]
    2104:	2163      	movs	r1, #99	; 0x63
    2106:	9129      	str	r1, [sp, #164]	; 0xa4
    2108:	9e29      	ldr	r6, [sp, #164]	; 0xa4
    210a:	601e      	str	r6, [r3, #0]
    210c:	02c1      	lsls	r1, r0, #11
    210e:	4041      	eors	r1, r0
    2110:	0ce8      	lsrs	r0, r5, #19
    2112:	4068      	eors	r0, r5
    2114:	4048      	eors	r0, r1
    2116:	0a0c      	lsrs	r4, r1, #8
    2118:	4044      	eors	r4, r0
    211a:	982a      	ldr	r0, [sp, #168]	; 0xa8
    211c:	60d0      	str	r0, [r2, #12]
    211e:	972b      	str	r7, [sp, #172]	; 0xac
    2120:	6117      	str	r7, [r2, #16]
    2122:	952e      	str	r5, [sp, #184]	; 0xb8
    2124:	6155      	str	r5, [r2, #20]
    2126:	6194      	str	r4, [r2, #24]
    2128:	2105      	movs	r1, #5
    212a:	4620      	mov	r0, r4
    212c:	4617      	mov	r7, r2
    212e:	f002 fa5d 	bl	45ec <__aeabi_uidivmod>
    2132:	0088      	lsls	r0, r1, #2
    2134:	4913      	ldr	r1, [pc, #76]	; (2184 <_ZN14blink_nrf518224main17h5d64dfdd3a94922fE+0x13f4>)
    2136:	5808      	ldr	r0, [r1, r0]
    2138:	9d32      	ldr	r5, [sp, #200]	; 0xc8
    213a:	6028      	str	r0, [r5, #0]
    213c:	2e00      	cmp	r6, #0
    213e:	d023      	beq.n	2188 <_ZN14blink_nrf518224main17h5d64dfdd3a94922fE+0x13f8>
    2140:	9930      	ldr	r1, [sp, #192]	; 0xc0
    2142:	9a29      	ldr	r2, [sp, #164]	; 0xa4
    2144:	1856      	adds	r6, r2, r1
    2146:	4902      	ldr	r1, [pc, #8]	; (2150 <_ZN14blink_nrf518224main17h5d64dfdd3a94922fE+0x13c0>)
    2148:	9b2e      	ldr	r3, [sp, #184]	; 0xb8
    214a:	9a2a      	ldr	r2, [sp, #168]	; 0xa8
    214c:	e02e      	b.n	21ac <_ZN14blink_nrf518224main17h5d64dfdd3a94922fE+0x141c>
    214e:	46c0      	nop			; (mov r8, r8)
    2150:	2000043c 	.word	0x2000043c
    2154:	41a00000 	.word	0x41a00000
    2158:	00008fec 	.word	0x00008fec
    215c:	00000401 	.word	0x00000401
    2160:	20000438 	.word	0x20000438
    2164:	20000424 	.word	0x20000424
    2168:	0000b1c4 	.word	0x0000b1c4
    216c:	20000000 	.word	0x20000000
    2170:	20000428 	.word	0x20000428
    2174:	2000042c 	.word	0x2000042c
    2178:	20000430 	.word	0x20000430
    217c:	20000434 	.word	0x20000434
    2180:	0000ffff 	.word	0x0000ffff
    2184:	00008fac 	.word	0x00008fac
    2188:	a855      	add	r0, sp, #340	; 0x154
    218a:	2110      	movs	r1, #16
    218c:	f001 fa46 	bl	361c <_ZN4zinc3hal8nrf518224rand9fill_rand17h7dfab05370fe1cccE>
    2190:	9a55      	ldr	r2, [sp, #340]	; 0x154
    2192:	60fa      	str	r2, [r7, #12]
    2194:	9856      	ldr	r0, [sp, #344]	; 0x158
    2196:	902b      	str	r0, [sp, #172]	; 0xac
    2198:	6138      	str	r0, [r7, #16]
    219a:	9b57      	ldr	r3, [sp, #348]	; 0x15c
    219c:	617b      	str	r3, [r7, #20]
    219e:	9c58      	ldr	r4, [sp, #352]	; 0x160
    21a0:	61bc      	str	r4, [r7, #24]
    21a2:	9822      	ldr	r0, [sp, #136]	; 0x88
    21a4:	49e6      	ldr	r1, [pc, #920]	; (2540 <_ZN14blink_nrf518224main17h5d64dfdd3a94922fE+0x17b0>)
    21a6:	6008      	str	r0, [r1, #0]
    21a8:	6828      	ldr	r0, [r5, #0]
    21aa:	2663      	movs	r6, #99	; 0x63
    21ac:	4635      	mov	r5, r6
    21ae:	600e      	str	r6, [r1, #0]
    21b0:	02d1      	lsls	r1, r2, #11
    21b2:	4051      	eors	r1, r2
    21b4:	0ce2      	lsrs	r2, r4, #19
    21b6:	4062      	eors	r2, r4
    21b8:	404a      	eors	r2, r1
    21ba:	0a0e      	lsrs	r6, r1, #8
    21bc:	4056      	eors	r6, r2
    21be:	992b      	ldr	r1, [sp, #172]	; 0xac
    21c0:	60f9      	str	r1, [r7, #12]
    21c2:	932e      	str	r3, [sp, #184]	; 0xb8
    21c4:	4639      	mov	r1, r7
    21c6:	3110      	adds	r1, #16
    21c8:	c158      	stmia	r1!, {r3, r4, r6}
    21ca:	7a00      	ldrb	r0, [r0, #8]
    21cc:	217f      	movs	r1, #127	; 0x7f
    21ce:	1a08      	subs	r0, r1, r0
    21d0:	9923      	ldr	r1, [sp, #140]	; 0x8c
    21d2:	4208      	tst	r0, r1
    21d4:	d101      	bne.n	21da <_ZN14blink_nrf518224main17h5d64dfdd3a94922fE+0x144a>
    21d6:	f000 ff7c 	bl	30d2 <_ZN14blink_nrf518224main17h5d64dfdd3a94922fE+0x2342>
    21da:	b2c1      	uxtb	r1, r0
    21dc:	4630      	mov	r0, r6
    21de:	f002 fa05 	bl	45ec <__aeabi_uidivmod>
    21e2:	9f32      	ldr	r7, [sp, #200]	; 0xc8
    21e4:	7139      	strb	r1, [r7, #4]
    21e6:	48d7      	ldr	r0, [pc, #860]	; (2544 <_ZN14blink_nrf518224main17h5d64dfdd3a94922fE+0x17b4>)
    21e8:	9931      	ldr	r1, [sp, #196]	; 0xc4
    21ea:	6008      	str	r0, [r1, #0]
    21ec:	4608      	mov	r0, r1
    21ee:	2d00      	cmp	r5, #0
    21f0:	d006      	beq.n	2200 <_ZN14blink_nrf518224main17h5d64dfdd3a94922fE+0x1470>
    21f2:	9830      	ldr	r0, [sp, #192]	; 0xc0
    21f4:	1828      	adds	r0, r5, r0
    21f6:	4dd3      	ldr	r5, [pc, #844]	; (2544 <_ZN14blink_nrf518224main17h5d64dfdd3a94922fE+0x17b4>)
    21f8:	4ad3      	ldr	r2, [pc, #844]	; (2548 <_ZN14blink_nrf518224main17h5d64dfdd3a94922fE+0x17b8>)
    21fa:	49d1      	ldr	r1, [pc, #836]	; (2540 <_ZN14blink_nrf518224main17h5d64dfdd3a94922fE+0x17b0>)
    21fc:	9b2b      	ldr	r3, [sp, #172]	; 0xac
    21fe:	e013      	b.n	2228 <_ZN14blink_nrf518224main17h5d64dfdd3a94922fE+0x1498>
    2200:	4605      	mov	r5, r0
    2202:	a855      	add	r0, sp, #340	; 0x154
    2204:	2110      	movs	r1, #16
    2206:	f001 fa09 	bl	361c <_ZN4zinc3hal8nrf518224rand9fill_rand17h7dfab05370fe1cccE>
    220a:	9b55      	ldr	r3, [sp, #340]	; 0x154
    220c:	4ace      	ldr	r2, [pc, #824]	; (2548 <_ZN14blink_nrf518224main17h5d64dfdd3a94922fE+0x17b8>)
    220e:	60d3      	str	r3, [r2, #12]
    2210:	9856      	ldr	r0, [sp, #344]	; 0x158
    2212:	902e      	str	r0, [sp, #184]	; 0xb8
    2214:	6110      	str	r0, [r2, #16]
    2216:	9c57      	ldr	r4, [sp, #348]	; 0x15c
    2218:	6154      	str	r4, [r2, #20]
    221a:	9e58      	ldr	r6, [sp, #352]	; 0x160
    221c:	6196      	str	r6, [r2, #24]
    221e:	49c8      	ldr	r1, [pc, #800]	; (2540 <_ZN14blink_nrf518224main17h5d64dfdd3a94922fE+0x17b0>)
    2220:	9822      	ldr	r0, [sp, #136]	; 0x88
    2222:	6008      	str	r0, [r1, #0]
    2224:	682d      	ldr	r5, [r5, #0]
    2226:	2063      	movs	r0, #99	; 0x63
    2228:	6008      	str	r0, [r1, #0]
    222a:	02d8      	lsls	r0, r3, #11
    222c:	4058      	eors	r0, r3
    222e:	0cf1      	lsrs	r1, r6, #19
    2230:	4071      	eors	r1, r6
    2232:	4041      	eors	r1, r0
    2234:	0a00      	lsrs	r0, r0, #8
    2236:	4048      	eors	r0, r1
    2238:	992e      	ldr	r1, [sp, #184]	; 0xb8
    223a:	4613      	mov	r3, r2
    223c:	330c      	adds	r3, #12
    223e:	c352      	stmia	r3!, {r1, r4, r6}
    2240:	6190      	str	r0, [r2, #24]
    2242:	2114      	movs	r1, #20
    2244:	f002 f9d2 	bl	45ec <__aeabi_uidivmod>
    2248:	9820      	ldr	r0, [sp, #128]	; 0x80
    224a:	1840      	adds	r0, r0, r1
    224c:	f003 f91a 	bl	5484 <__aeabi_ui2f>
    2250:	49be      	ldr	r1, [pc, #760]	; (254c <_ZN14blink_nrf518224main17h5d64dfdd3a94922fE+0x17bc>)
    2252:	f002 fbfb 	bl	4a4c <__aeabi_fdiv>
    2256:	9925      	ldr	r1, [sp, #148]	; 0x94
    2258:	6008      	str	r0, [r1, #0]
    225a:	2004      	movs	r0, #4
    225c:	902a      	str	r0, [sp, #168]	; 0xa8
    225e:	563e      	ldrsb	r6, [r7, r0]
    2260:	683c      	ldr	r4, [r7, #0]
    2262:	4628      	mov	r0, r5
    2264:	f003 f89e 	bl	53a4 <__aeabi_f2iz>
    2268:	283f      	cmp	r0, #63	; 0x3f
    226a:	dd00      	ble.n	226e <_ZN14blink_nrf518224main17h5d64dfdd3a94922fE+0x14de>
    226c:	e10b      	b.n	2486 <_ZN14blink_nrf518224main17h5d64dfdd3a94922fE+0x16f6>
    226e:	2e00      	cmp	r6, #0
    2270:	da00      	bge.n	2274 <_ZN14blink_nrf518224main17h5d64dfdd3a94922fE+0x14e4>
    2272:	e108      	b.n	2486 <_ZN14blink_nrf518224main17h5d64dfdd3a94922fE+0x16f6>
    2274:	b2f5      	uxtb	r5, r6
    2276:	7a23      	ldrb	r3, [r4, #8]
    2278:	1959      	adds	r1, r3, r5
    227a:	2900      	cmp	r1, #0
    227c:	d100      	bne.n	2280 <_ZN14blink_nrf518224main17h5d64dfdd3a94922fE+0x14f0>
    227e:	e102      	b.n	2486 <_ZN14blink_nrf518224main17h5d64dfdd3a94922fE+0x16f6>
    2280:	7a62      	ldrb	r2, [r4, #9]
    2282:	1816      	adds	r6, r2, r0
    2284:	b236      	sxth	r6, r6
    2286:	2e01      	cmp	r6, #1
    2288:	da00      	bge.n	228c <_ZN14blink_nrf518224main17h5d64dfdd3a94922fE+0x14fc>
    228a:	e0fc      	b.n	2486 <_ZN14blink_nrf518224main17h5d64dfdd3a94922fE+0x16f6>
    228c:	462e      	mov	r6, r5
    228e:	4306      	orrs	r6, r0
    2290:	4faf      	ldr	r7, [pc, #700]	; (2550 <_ZN14blink_nrf518224main17h5d64dfdd3a94922fE+0x17c0>)
    2292:	423e      	tst	r6, r7
    2294:	d120      	bne.n	22d8 <_ZN14blink_nrf518224main17h5d64dfdd3a94922fE+0x1548>
    2296:	9e27      	ldr	r6, [sp, #156]	; 0x9c
    2298:	42b3      	cmp	r3, r6
    229a:	d11d      	bne.n	22d8 <_ZN14blink_nrf518224main17h5d64dfdd3a94922fE+0x1548>
    229c:	2a40      	cmp	r2, #64	; 0x40
    229e:	d11b      	bne.n	22d8 <_ZN14blink_nrf518224main17h5d64dfdd3a94922fE+0x1548>
    22a0:	6860      	ldr	r0, [r4, #4]
    22a2:	992f      	ldr	r1, [sp, #188]	; 0xbc
    22a4:	4288      	cmp	r0, r1
    22a6:	d300      	bcc.n	22aa <_ZN14blink_nrf518224main17h5d64dfdd3a94922fE+0x151a>
    22a8:	982f      	ldr	r0, [sp, #188]	; 0xbc
    22aa:	2800      	cmp	r0, #0
    22ac:	4ea9      	ldr	r6, [pc, #676]	; (2554 <_ZN14blink_nrf518224main17h5d64dfdd3a94922fE+0x17c4>)
    22ae:	d00b      	beq.n	22c8 <_ZN14blink_nrf518224main17h5d64dfdd3a94922fE+0x1538>
    22b0:	6821      	ldr	r1, [r4, #0]
    22b2:	2200      	movs	r2, #0
    22b4:	18b3      	adds	r3, r6, r2
    22b6:	2b00      	cmp	r3, #0
    22b8:	d006      	beq.n	22c8 <_ZN14blink_nrf518224main17h5d64dfdd3a94922fE+0x1538>
    22ba:	5c8c      	ldrb	r4, [r1, r2]
    22bc:	781d      	ldrb	r5, [r3, #0]
    22be:	4325      	orrs	r5, r4
    22c0:	701d      	strb	r5, [r3, #0]
    22c2:	1c52      	adds	r2, r2, #1
    22c4:	4282      	cmp	r2, r0
    22c6:	d3f5      	bcc.n	22b4 <_ZN14blink_nrf518224main17h5d64dfdd3a94922fE+0x1524>
    22c8:	2001      	movs	r0, #1
    22ca:	0280      	lsls	r0, r0, #10
    22cc:	2100      	movs	r1, #0
    22ce:	5431      	strb	r1, [r6, r0]
    22d0:	48a1      	ldr	r0, [pc, #644]	; (2558 <_ZN14blink_nrf518224main17h5d64dfdd3a94922fE+0x17c8>)
    22d2:	991b      	ldr	r1, [sp, #108]	; 0x6c
    22d4:	5431      	strb	r1, [r6, r0]
    22d6:	e0d6      	b.n	2486 <_ZN14blink_nrf518224main17h5d64dfdd3a94922fE+0x16f6>
    22d8:	4ba0      	ldr	r3, [pc, #640]	; (255c <_ZN14blink_nrf518224main17h5d64dfdd3a94922fE+0x17cc>)
    22da:	4003      	ands	r3, r0
    22dc:	283f      	cmp	r0, #63	; 0x3f
    22de:	dc56      	bgt.n	238e <_ZN14blink_nrf518224main17h5d64dfdd3a94922fE+0x15fe>
    22e0:	2b00      	cmp	r3, #0
    22e2:	d154      	bne.n	238e <_ZN14blink_nrf518224main17h5d64dfdd3a94922fE+0x15fe>
    22e4:	2a08      	cmp	r2, #8
    22e6:	d152      	bne.n	238e <_ZN14blink_nrf518224main17h5d64dfdd3a94922fE+0x15fe>
    22e8:	b28b      	uxth	r3, r1
    22ea:	227f      	movs	r2, #127	; 0x7f
    22ec:	2b7f      	cmp	r3, #127	; 0x7f
    22ee:	d800      	bhi.n	22f2 <_ZN14blink_nrf518224main17h5d64dfdd3a94922fE+0x1562>
    22f0:	460a      	mov	r2, r1
    22f2:	1b51      	subs	r1, r2, r5
    22f4:	912e      	str	r1, [sp, #184]	; 0xb8
    22f6:	b20b      	sxth	r3, r1
    22f8:	0f01      	lsrs	r1, r0, #28
    22fa:	9a1b      	ldr	r2, [sp, #108]	; 0x6c
    22fc:	4011      	ands	r1, r2
    22fe:	1840      	adds	r0, r0, r1
    2300:	b200      	sxth	r0, r0
    2302:	10c6      	asrs	r6, r0, #3
    2304:	01f0      	lsls	r0, r6, #7
    2306:	9923      	ldr	r1, [sp, #140]	; 0x8c
    2308:	01cf      	lsls	r7, r1, #7
    230a:	4007      	ands	r7, r0
    230c:	1978      	adds	r0, r7, r5
    230e:	181a      	adds	r2, r3, r0
    2310:	2101      	movs	r1, #1
    2312:	429a      	cmp	r2, r3
    2314:	d200      	bcs.n	2318 <_ZN14blink_nrf518224main17h5d64dfdd3a94922fE+0x1588>
    2316:	9128      	str	r1, [sp, #160]	; 0xa0
    2318:	9928      	ldr	r1, [sp, #160]	; 0xa0
    231a:	2900      	cmp	r1, #0
    231c:	d001      	beq.n	2322 <_ZN14blink_nrf518224main17h5d64dfdd3a94922fE+0x1592>
    231e:	f000 fefd 	bl	311c <_ZN14blink_nrf518224main17h5d64dfdd3a94922fE+0x238c>
    2322:	962b      	str	r6, [sp, #172]	; 0xac
    2324:	992f      	ldr	r1, [sp, #188]	; 0xbc
    2326:	428a      	cmp	r2, r1
    2328:	d901      	bls.n	232e <_ZN14blink_nrf518224main17h5d64dfdd3a94922fE+0x159e>
    232a:	f000 fefa 	bl	3122 <_ZN14blink_nrf518224main17h5d64dfdd3a94922fE+0x2392>
    232e:	6861      	ldr	r1, [r4, #4]
    2330:	428b      	cmp	r3, r1
    2332:	d901      	bls.n	2338 <_ZN14blink_nrf518224main17h5d64dfdd3a94922fE+0x15a8>
    2334:	f000 fef9 	bl	312a <_ZN14blink_nrf518224main17h5d64dfdd3a94922fE+0x239a>
    2338:	6821      	ldr	r1, [r4, #0]
    233a:	4a85      	ldr	r2, [pc, #532]	; (2550 <_ZN14blink_nrf518224main17h5d64dfdd3a94922fE+0x17c0>)
    233c:	9c2e      	ldr	r4, [sp, #184]	; 0xb8
    233e:	4214      	tst	r4, r2
    2340:	d00f      	beq.n	2362 <_ZN14blink_nrf518224main17h5d64dfdd3a94922fE+0x15d2>
    2342:	4a84      	ldr	r2, [pc, #528]	; (2554 <_ZN14blink_nrf518224main17h5d64dfdd3a94922fE+0x17c4>)
    2344:	1810      	adds	r0, r2, r0
    2346:	4252      	negs	r2, r2
    2348:	1b52      	subs	r2, r2, r5
    234a:	1bd2      	subs	r2, r2, r7
    234c:	2400      	movs	r4, #0
    234e:	1905      	adds	r5, r0, r4
    2350:	42a2      	cmp	r2, r4
    2352:	d006      	beq.n	2362 <_ZN14blink_nrf518224main17h5d64dfdd3a94922fE+0x15d2>
    2354:	5d0f      	ldrb	r7, [r1, r4]
    2356:	782e      	ldrb	r6, [r5, #0]
    2358:	433e      	orrs	r6, r7
    235a:	702e      	strb	r6, [r5, #0]
    235c:	1c64      	adds	r4, r4, #1
    235e:	429c      	cmp	r4, r3
    2360:	d3f5      	bcc.n	234e <_ZN14blink_nrf518224main17h5d64dfdd3a94922fE+0x15be>
    2362:	2001      	movs	r0, #1
    2364:	0280      	lsls	r0, r0, #10
    2366:	4c7b      	ldr	r4, [pc, #492]	; (2554 <_ZN14blink_nrf518224main17h5d64dfdd3a94922fE+0x17c4>)
    2368:	5c22      	ldrb	r2, [r4, r0]
    236a:	9d2b      	ldr	r5, [sp, #172]	; 0xac
    236c:	b2e9      	uxtb	r1, r5
    236e:	428a      	cmp	r2, r1
    2370:	462b      	mov	r3, r5
    2372:	d200      	bcs.n	2376 <_ZN14blink_nrf518224main17h5d64dfdd3a94922fE+0x15e6>
    2374:	4613      	mov	r3, r2
    2376:	5423      	strb	r3, [r4, r0]
    2378:	4877      	ldr	r0, [pc, #476]	; (2558 <_ZN14blink_nrf518224main17h5d64dfdd3a94922fE+0x17c8>)
    237a:	5c22      	ldrb	r2, [r4, r0]
    237c:	428a      	cmp	r2, r1
    237e:	4611      	mov	r1, r2
    2380:	d200      	bcs.n	2384 <_ZN14blink_nrf518224main17h5d64dfdd3a94922fE+0x15f4>
    2382:	4629      	mov	r1, r5
    2384:	2a07      	cmp	r2, #7
    2386:	d800      	bhi.n	238a <_ZN14blink_nrf518224main17h5d64dfdd3a94922fE+0x15fa>
    2388:	460d      	mov	r5, r1
    238a:	5425      	strb	r5, [r4, r0]
    238c:	e07b      	b.n	2486 <_ZN14blink_nrf518224main17h5d64dfdd3a94922fE+0x16f6>
    238e:	2a08      	cmp	r2, #8
    2390:	d166      	bne.n	2460 <_ZN14blink_nrf518224main17h5d64dfdd3a94922fE+0x16d0>
    2392:	b28a      	uxth	r2, r1
    2394:	2a7f      	cmp	r2, #127	; 0x7f
    2396:	9a14      	ldr	r2, [sp, #80]	; 0x50
    2398:	d800      	bhi.n	239c <_ZN14blink_nrf518224main17h5d64dfdd3a94922fE+0x160c>
    239a:	460a      	mov	r2, r1
    239c:	1b51      	subs	r1, r2, r5
    239e:	4602      	mov	r2, r0
    23a0:	3208      	adds	r2, #8
    23a2:	b213      	sxth	r3, r2
    23a4:	0f1b      	lsrs	r3, r3, #28
    23a6:	9e1b      	ldr	r6, [sp, #108]	; 0x6c
    23a8:	4033      	ands	r3, r6
    23aa:	18d3      	adds	r3, r2, r3
    23ac:	43b3      	bics	r3, r6
    23ae:	1ad2      	subs	r2, r2, r3
    23b0:	0f03      	lsrs	r3, r0, #28
    23b2:	4033      	ands	r3, r6
    23b4:	18c3      	adds	r3, r0, r3
    23b6:	b21b      	sxth	r3, r3
    23b8:	10db      	asrs	r3, r3, #3
    23ba:	2800      	cmp	r0, #0
    23bc:	9f2c      	ldr	r7, [sp, #176]	; 0xb0
    23be:	db00      	blt.n	23c2 <_ZN14blink_nrf518224main17h5d64dfdd3a94922fE+0x1632>
    23c0:	461f      	mov	r7, r3
    23c2:	b20e      	sxth	r6, r1
    23c4:	01f8      	lsls	r0, r7, #7
    23c6:	1945      	adds	r5, r0, r5
    23c8:	cc18      	ldmia	r4, {r3, r4}
    23ca:	982c      	ldr	r0, [sp, #176]	; 0xb0
    23cc:	4287      	cmp	r7, r0
    23ce:	dd25      	ble.n	241c <_ZN14blink_nrf518224main17h5d64dfdd3a94922fE+0x168c>
    23d0:	4668      	mov	r0, sp
    23d2:	2100      	movs	r1, #0
    23d4:	c042      	stmia	r0!, {r1, r6}
    23d6:	932b      	str	r3, [sp, #172]	; 0xac
    23d8:	4618      	mov	r0, r3
    23da:	4621      	mov	r1, r4
    23dc:	922e      	str	r2, [sp, #184]	; 0xb8
    23de:	462b      	mov	r3, r5
    23e0:	f7fd ff96 	bl	310 <_ZN14blink_nrf518227display11slice_paint17hb4297fb6849e963eE>
    23e4:	2001      	movs	r0, #1
    23e6:	0280      	lsls	r0, r0, #10
    23e8:	495a      	ldr	r1, [pc, #360]	; (2554 <_ZN14blink_nrf518224main17h5d64dfdd3a94922fE+0x17c4>)
    23ea:	5c0a      	ldrb	r2, [r1, r0]
    23ec:	b2f9      	uxtb	r1, r7
    23ee:	428a      	cmp	r2, r1
    23f0:	463b      	mov	r3, r7
    23f2:	d200      	bcs.n	23f6 <_ZN14blink_nrf518224main17h5d64dfdd3a94922fE+0x1666>
    23f4:	4613      	mov	r3, r2
    23f6:	4a57      	ldr	r2, [pc, #348]	; (2554 <_ZN14blink_nrf518224main17h5d64dfdd3a94922fE+0x17c4>)
    23f8:	5413      	strb	r3, [r2, r0]
    23fa:	4857      	ldr	r0, [pc, #348]	; (2558 <_ZN14blink_nrf518224main17h5d64dfdd3a94922fE+0x17c8>)
    23fc:	5c12      	ldrb	r2, [r2, r0]
    23fe:	428a      	cmp	r2, r1
    2400:	4611      	mov	r1, r2
    2402:	d200      	bcs.n	2406 <_ZN14blink_nrf518224main17h5d64dfdd3a94922fE+0x1676>
    2404:	4639      	mov	r1, r7
    2406:	2a07      	cmp	r2, #7
    2408:	463b      	mov	r3, r7
    240a:	9a2e      	ldr	r2, [sp, #184]	; 0xb8
    240c:	d800      	bhi.n	2410 <_ZN14blink_nrf518224main17h5d64dfdd3a94922fE+0x1680>
    240e:	460b      	mov	r3, r1
    2410:	4950      	ldr	r1, [pc, #320]	; (2554 <_ZN14blink_nrf518224main17h5d64dfdd3a94922fE+0x17c4>)
    2412:	540b      	strb	r3, [r1, r0]
    2414:	b238      	sxth	r0, r7
    2416:	2806      	cmp	r0, #6
    2418:	9b2b      	ldr	r3, [sp, #172]	; 0xac
    241a:	dc34      	bgt.n	2486 <_ZN14blink_nrf518224main17h5d64dfdd3a94922fE+0x16f6>
    241c:	4668      	mov	r0, sp
    241e:	9928      	ldr	r1, [sp, #160]	; 0xa0
    2420:	c042      	stmia	r0!, {r1, r6}
    2422:	982c      	ldr	r0, [sp, #176]	; 0xb0
    2424:	1810      	adds	r0, r2, r0
    2426:	1fc2      	subs	r2, r0, #7
    2428:	3580      	adds	r5, #128	; 0x80
    242a:	4618      	mov	r0, r3
    242c:	4621      	mov	r1, r4
    242e:	462b      	mov	r3, r5
    2430:	f7fd ff6e 	bl	310 <_ZN14blink_nrf518227display11slice_paint17hb4297fb6849e963eE>
    2434:	2001      	movs	r0, #1
    2436:	0281      	lsls	r1, r0, #10
    2438:	4d46      	ldr	r5, [pc, #280]	; (2554 <_ZN14blink_nrf518224main17h5d64dfdd3a94922fE+0x17c4>)
    243a:	5c6b      	ldrb	r3, [r5, r1]
    243c:	1c78      	adds	r0, r7, #1
    243e:	b2c2      	uxtb	r2, r0
    2440:	4293      	cmp	r3, r2
    2442:	4604      	mov	r4, r0
    2444:	d200      	bcs.n	2448 <_ZN14blink_nrf518224main17h5d64dfdd3a94922fE+0x16b8>
    2446:	461c      	mov	r4, r3
    2448:	546c      	strb	r4, [r5, r1]
    244a:	4943      	ldr	r1, [pc, #268]	; (2558 <_ZN14blink_nrf518224main17h5d64dfdd3a94922fE+0x17c8>)
    244c:	5c6b      	ldrb	r3, [r5, r1]
    244e:	4293      	cmp	r3, r2
    2450:	461a      	mov	r2, r3
    2452:	d200      	bcs.n	2456 <_ZN14blink_nrf518224main17h5d64dfdd3a94922fE+0x16c6>
    2454:	4602      	mov	r2, r0
    2456:	2b07      	cmp	r3, #7
    2458:	d800      	bhi.n	245c <_ZN14blink_nrf518224main17h5d64dfdd3a94922fE+0x16cc>
    245a:	4610      	mov	r0, r2
    245c:	5468      	strb	r0, [r5, r1]
    245e:	e012      	b.n	2486 <_ZN14blink_nrf518224main17h5d64dfdd3a94922fE+0x16f6>
    2460:	483f      	ldr	r0, [pc, #252]	; (2560 <_ZN14blink_nrf518224main17h5d64dfdd3a94922fE+0x17d0>)
    2462:	9055      	str	r0, [sp, #340]	; 0x154
    2464:	2001      	movs	r0, #1
    2466:	9056      	str	r0, [sp, #344]	; 0x158
    2468:	9c28      	ldr	r4, [sp, #160]	; 0xa0
    246a:	9457      	str	r4, [sp, #348]	; 0x15c
    246c:	483d      	ldr	r0, [pc, #244]	; (2564 <_ZN14blink_nrf518224main17h5d64dfdd3a94922fE+0x17d4>)
    246e:	9059      	str	r0, [sp, #356]	; 0x164
    2470:	945a      	str	r4, [sp, #360]	; 0x168
    2472:	a838      	add	r0, sp, #224	; 0xe0
    2474:	aa55      	add	r2, sp, #340	; 0x154
    2476:	493c      	ldr	r1, [pc, #240]	; (2568 <_ZN14blink_nrf518224main17h5d64dfdd3a94922fE+0x17d8>)
    2478:	f001 fa64 	bl	3944 <_ZN4core3fmt5write17h56e3d15cb4a744eaE>
    247c:	483b      	ldr	r0, [pc, #236]	; (256c <_ZN14blink_nrf518224main17h5d64dfdd3a94922fE+0x17dc>)
    247e:	493c      	ldr	r1, [pc, #240]	; (2570 <_ZN14blink_nrf518224main17h5d64dfdd3a94922fE+0x17e0>)
    2480:	4622      	mov	r2, r4
    2482:	f000 ff01 	bl	3288 <_ZN4zinc3hal8nrf518224uart4Uart7writeln17h3374573b82f4d38aE>
    2486:	9831      	ldr	r0, [sp, #196]	; 0xc4
    2488:	6804      	ldr	r4, [r0, #0]
    248a:	493a      	ldr	r1, [pc, #232]	; (2574 <_ZN14blink_nrf518224main17h5d64dfdd3a94922fE+0x17e4>)
    248c:	4620      	mov	r0, r4
    248e:	f002 f90d 	bl	46ac <__aeabi_fcmple>
    2492:	2800      	cmp	r0, #0
    2494:	9d32      	ldr	r5, [sp, #200]	; 0xc8
    2496:	d10f      	bne.n	24b8 <_ZN14blink_nrf518224main17h5d64dfdd3a94922fE+0x1728>
    2498:	4937      	ldr	r1, [pc, #220]	; (2578 <_ZN14blink_nrf518224main17h5d64dfdd3a94922fE+0x17e8>)
    249a:	4620      	mov	r0, r4
    249c:	f002 f910 	bl	46c0 <__aeabi_fcmpgt>
    24a0:	2800      	cmp	r0, #0
    24a2:	d109      	bne.n	24b8 <_ZN14blink_nrf518224main17h5d64dfdd3a94922fE+0x1728>
    24a4:	7928      	ldrb	r0, [r5, #4]
    24a6:	9921      	ldr	r1, [sp, #132]	; 0x84
    24a8:	4288      	cmp	r0, r1
    24aa:	dc05      	bgt.n	24b8 <_ZN14blink_nrf518224main17h5d64dfdd3a94922fE+0x1728>
    24ac:	6829      	ldr	r1, [r5, #0]
    24ae:	7a09      	ldrb	r1, [r1, #8]
    24b0:	1808      	adds	r0, r1, r0
    24b2:	991e      	ldr	r1, [sp, #120]	; 0x78
    24b4:	4288      	cmp	r0, r1
    24b6:	da63      	bge.n	2580 <_ZN14blink_nrf518224main17h5d64dfdd3a94922fE+0x17f0>
    24b8:	9826      	ldr	r0, [sp, #152]	; 0x98
    24ba:	9e2d      	ldr	r6, [sp, #180]	; 0xb4
    24bc:	4286      	cmp	r6, r0
    24be:	d000      	beq.n	24c2 <_ZN14blink_nrf518224main17h5d64dfdd3a94922fE+0x1732>
    24c0:	e5e5      	b.n	208e <_ZN14blink_nrf518224main17h5d64dfdd3a94922fE+0x12fe>
    24c2:	981a      	ldr	r0, [sp, #104]	; 0x68
    24c4:	2805      	cmp	r0, #5
    24c6:	d331      	bcc.n	252c <_ZN14blink_nrf518224main17h5d64dfdd3a94922fE+0x179c>
    24c8:	2105      	movs	r1, #5
    24ca:	981a      	ldr	r0, [sp, #104]	; 0x68
    24cc:	f002 f808 	bl	44e0 <__udivsi3>
    24d0:	4604      	mov	r4, r0
    24d2:	267e      	movs	r6, #126	; 0x7e
    24d4:	250a      	movs	r5, #10
    24d6:	9632      	str	r6, [sp, #200]	; 0xc8
    24d8:	2d00      	cmp	r5, #0
    24da:	d101      	bne.n	24e0 <_ZN14blink_nrf518224main17h5d64dfdd3a94922fE+0x1750>
    24dc:	f000 fdfc 	bl	30d8 <_ZN14blink_nrf518224main17h5d64dfdd3a94922fE+0x2348>
    24e0:	4620      	mov	r0, r4
    24e2:	4629      	mov	r1, r5
    24e4:	f002 f882 	bl	45ec <__aeabi_uidivmod>
    24e8:	460e      	mov	r6, r1
    24ea:	1ba4      	subs	r4, r4, r6
    24ec:	2d0a      	cmp	r5, #10
    24ee:	d201      	bcs.n	24f4 <_ZN14blink_nrf518224main17h5d64dfdd3a94922fE+0x1764>
    24f0:	f000 fdf5 	bl	30de <_ZN14blink_nrf518224main17h5d64dfdd3a94922fE+0x234e>
    24f4:	270a      	movs	r7, #10
    24f6:	4628      	mov	r0, r5
    24f8:	4639      	mov	r1, r7
    24fa:	f001 fff1 	bl	44e0 <__udivsi3>
    24fe:	4601      	mov	r1, r0
    2500:	4630      	mov	r0, r6
    2502:	f001 ffed 	bl	44e0 <__udivsi3>
    2506:	4601      	mov	r1, r0
    2508:	982c      	ldr	r0, [sp, #176]	; 0xb0
    250a:	9a32      	ldr	r2, [sp, #200]	; 0xc8
    250c:	1810      	adds	r0, r2, r0
    250e:	1f46      	subs	r6, r0, #5
    2510:	2909      	cmp	r1, #9
    2512:	d901      	bls.n	2518 <_ZN14blink_nrf518224main17h5d64dfdd3a94922fE+0x1788>
    2514:	f000 fde6 	bl	30e4 <_ZN14blink_nrf518224main17h5d64dfdd3a94922fE+0x2354>
    2518:	0088      	lsls	r0, r1, #2
    251a:	4918      	ldr	r1, [pc, #96]	; (257c <_ZN14blink_nrf518224main17h5d64dfdd3a94922fE+0x17ec>)
    251c:	5808      	ldr	r0, [r1, r0]
    251e:	2238      	movs	r2, #56	; 0x38
    2520:	4631      	mov	r1, r6
    2522:	f7fe f85d 	bl	5e0 <_ZN14blink_nrf518227display4draw17haa5976ca818aacebE>
    2526:	437d      	muls	r5, r7
    2528:	2c00      	cmp	r4, #0
    252a:	d1d4      	bne.n	24d6 <_ZN14blink_nrf518224main17h5d64dfdd3a94922fE+0x1746>
    252c:	2001      	movs	r0, #1
    252e:	0280      	lsls	r0, r0, #10
    2530:	4a08      	ldr	r2, [pc, #32]	; (2554 <_ZN14blink_nrf518224main17h5d64dfdd3a94922fE+0x17c4>)
    2532:	5c11      	ldrb	r1, [r2, r0]
    2534:	2907      	cmp	r1, #7
    2536:	d200      	bcs.n	253a <_ZN14blink_nrf518224main17h5d64dfdd3a94922fE+0x17aa>
    2538:	e4f5      	b.n	1f26 <_ZN14blink_nrf518224main17h5d64dfdd3a94922fE+0x1196>
    253a:	991b      	ldr	r1, [sp, #108]	; 0x6c
    253c:	e4f3      	b.n	1f26 <_ZN14blink_nrf518224main17h5d64dfdd3a94922fE+0x1196>
    253e:	46c0      	nop			; (mov r8, r8)
    2540:	2000043c 	.word	0x2000043c
    2544:	c0e00000 	.word	0xc0e00000
    2548:	20000000 	.word	0x20000000
    254c:	43480000 	.word	0x43480000
    2550:	0000ffff 	.word	0x0000ffff
    2554:	2000001c 	.word	0x2000001c
    2558:	00000401 	.word	0x00000401
    255c:	00008007 	.word	0x00008007
    2560:	0000c8d0 	.word	0x0000c8d0
    2564:	00006648 	.word	0x00006648
    2568:	00006630 	.word	0x00006630
    256c:	00006469 	.word	0x00006469
    2570:	00006648 	.word	0x00006648
    2574:	42280000 	.word	0x42280000
    2578:	425c0000 	.word	0x425c0000
    257c:	000065bc 	.word	0x000065bc
    2580:	2700      	movs	r7, #0
    2582:	4819      	ldr	r0, [pc, #100]	; (25e8 <_ZN14blink_nrf518224main17h5d64dfdd3a94922fE+0x1858>)
    2584:	7007      	strb	r7, [r0, #0]
    2586:	4819      	ldr	r0, [pc, #100]	; (25ec <_ZN14blink_nrf518224main17h5d64dfdd3a94922fE+0x185c>)
    2588:	6007      	str	r7, [r0, #0]
    258a:	4819      	ldr	r0, [pc, #100]	; (25f0 <_ZN14blink_nrf518224main17h5d64dfdd3a94922fE+0x1860>)
    258c:	6881      	ldr	r1, [r0, #8]
    258e:	4a19      	ldr	r2, [pc, #100]	; (25f4 <_ZN14blink_nrf518224main17h5d64dfdd3a94922fE+0x1864>)
    2590:	6091      	str	r1, [r2, #8]
    2592:	6841      	ldr	r1, [r0, #4]
    2594:	6051      	str	r1, [r2, #4]
    2596:	6800      	ldr	r0, [r0, #0]
    2598:	6010      	str	r0, [r2, #0]
    259a:	4817      	ldr	r0, [pc, #92]	; (25f8 <_ZN14blink_nrf518224main17h5d64dfdd3a94922fE+0x1868>)
    259c:	6007      	str	r7, [r0, #0]
    259e:	4817      	ldr	r0, [pc, #92]	; (25fc <_ZN14blink_nrf518224main17h5d64dfdd3a94922fE+0x186c>)
    25a0:	6007      	str	r7, [r0, #0]
    25a2:	4817      	ldr	r0, [pc, #92]	; (2600 <_ZN14blink_nrf518224main17h5d64dfdd3a94922fE+0x1870>)
    25a4:	6007      	str	r7, [r0, #0]
    25a6:	4817      	ldr	r0, [pc, #92]	; (2604 <_ZN14blink_nrf518224main17h5d64dfdd3a94922fE+0x1874>)
    25a8:	6007      	str	r7, [r0, #0]
    25aa:	2601      	movs	r6, #1
    25ac:	4c16      	ldr	r4, [pc, #88]	; (2608 <_ZN14blink_nrf518224main17h5d64dfdd3a94922fE+0x1878>)
    25ae:	4630      	mov	r0, r6
    25b0:	4621      	mov	r1, r4
    25b2:	f7fd fe0f 	bl	1d4 <_ZN14blink_nrf518227display7fade_to17h8c516a49d9bd70f0E>
    25b6:	9d03      	ldr	r5, [sp, #12]
    25b8:	4628      	mov	r0, r5
    25ba:	4621      	mov	r1, r4
    25bc:	f7fd fe0a 	bl	1d4 <_ZN14blink_nrf518227display7fade_to17h8c516a49d9bd70f0E>
    25c0:	962e      	str	r6, [sp, #184]	; 0xb8
    25c2:	4630      	mov	r0, r6
    25c4:	4621      	mov	r1, r4
    25c6:	f7fd fe05 	bl	1d4 <_ZN14blink_nrf518227display7fade_to17h8c516a49d9bd70f0E>
    25ca:	4628      	mov	r0, r5
    25cc:	463d      	mov	r5, r7
    25ce:	4621      	mov	r1, r4
    25d0:	f7fd fe00 	bl	1d4 <_ZN14blink_nrf518227display7fade_to17h8c516a49d9bd70f0E>
    25d4:	2105      	movs	r1, #5
    25d6:	981a      	ldr	r0, [sp, #104]	; 0x68
    25d8:	9128      	str	r1, [sp, #160]	; 0xa0
    25da:	f001 ff81 	bl	44e0 <__udivsi3>
    25de:	4604      	mov	r4, r0
    25e0:	982f      	ldr	r0, [sp, #188]	; 0xbc
    25e2:	9930      	ldr	r1, [sp, #192]	; 0xc0
    25e4:	4a09      	ldr	r2, [pc, #36]	; (260c <_ZN14blink_nrf518224main17h5d64dfdd3a94922fE+0x187c>)
    25e6:	e013      	b.n	2610 <_ZN14blink_nrf518224main17h5d64dfdd3a94922fE+0x1880>
    25e8:	20000438 	.word	0x20000438
    25ec:	20000424 	.word	0x20000424
    25f0:	0000c92c 	.word	0x0000c92c
    25f4:	20000000 	.word	0x20000000
    25f8:	20000428 	.word	0x20000428
    25fc:	2000042c 	.word	0x2000042c
    2600:	20000430 	.word	0x20000430
    2604:	20000434 	.word	0x20000434
    2608:	3e4ccccd 	.word	0x3e4ccccd
    260c:	2000001c 	.word	0x2000001c
    2610:	7015      	strb	r5, [r2, #0]
    2612:	1840      	adds	r0, r0, r1
    2614:	1c52      	adds	r2, r2, #1
    2616:	2800      	cmp	r0, #0
    2618:	d1fa      	bne.n	2610 <_ZN14blink_nrf518224main17h5d64dfdd3a94922fE+0x1880>
    261a:	982e      	ldr	r0, [sp, #184]	; 0xb8
    261c:	0280      	lsls	r0, r0, #10
    261e:	4918      	ldr	r1, [pc, #96]	; (2680 <_ZN14blink_nrf518224main17h5d64dfdd3a94922fE+0x18f0>)
    2620:	902d      	str	r0, [sp, #180]	; 0xb4
    2622:	540d      	strb	r5, [r1, r0]
    2624:	4817      	ldr	r0, [pc, #92]	; (2684 <_ZN14blink_nrf518224main17h5d64dfdd3a94922fE+0x18f4>)
    2626:	2607      	movs	r6, #7
    2628:	540e      	strb	r6, [r1, r0]
    262a:	4817      	ldr	r0, [pc, #92]	; (2688 <_ZN14blink_nrf518224main17h5d64dfdd3a94922fE+0x18f8>)
    262c:	7005      	strb	r5, [r0, #0]
    262e:	4817      	ldr	r0, [pc, #92]	; (268c <_ZN14blink_nrf518224main17h5d64dfdd3a94922fE+0x18fc>)
    2630:	6005      	str	r5, [r0, #0]
    2632:	4817      	ldr	r0, [pc, #92]	; (2690 <_ZN14blink_nrf518224main17h5d64dfdd3a94922fE+0x1900>)
    2634:	6881      	ldr	r1, [r0, #8]
    2636:	4a17      	ldr	r2, [pc, #92]	; (2694 <_ZN14blink_nrf518224main17h5d64dfdd3a94922fE+0x1904>)
    2638:	6091      	str	r1, [r2, #8]
    263a:	6841      	ldr	r1, [r0, #4]
    263c:	6051      	str	r1, [r2, #4]
    263e:	6800      	ldr	r0, [r0, #0]
    2640:	6010      	str	r0, [r2, #0]
    2642:	4815      	ldr	r0, [pc, #84]	; (2698 <_ZN14blink_nrf518224main17h5d64dfdd3a94922fE+0x1908>)
    2644:	6005      	str	r5, [r0, #0]
    2646:	4815      	ldr	r0, [pc, #84]	; (269c <_ZN14blink_nrf518224main17h5d64dfdd3a94922fE+0x190c>)
    2648:	6005      	str	r5, [r0, #0]
    264a:	4815      	ldr	r0, [pc, #84]	; (26a0 <_ZN14blink_nrf518224main17h5d64dfdd3a94922fE+0x1910>)
    264c:	6005      	str	r5, [r0, #0]
    264e:	4815      	ldr	r0, [pc, #84]	; (26a4 <_ZN14blink_nrf518224main17h5d64dfdd3a94922fE+0x1914>)
    2650:	6005      	str	r5, [r0, #0]
    2652:	4815      	ldr	r0, [pc, #84]	; (26a8 <_ZN14blink_nrf518224main17h5d64dfdd3a94922fE+0x1918>)
    2654:	6881      	ldr	r1, [r0, #8]
    2656:	913b      	str	r1, [sp, #236]	; 0xec
    2658:	6841      	ldr	r1, [r0, #4]
    265a:	913a      	str	r1, [sp, #232]	; 0xe8
    265c:	6800      	ldr	r0, [r0, #0]
    265e:	9039      	str	r0, [sp, #228]	; 0xe4
    2660:	a839      	add	r0, sp, #228	; 0xe4
    2662:	4629      	mov	r1, r5
    2664:	462a      	mov	r2, r5
    2666:	f7fd ffbb 	bl	5e0 <_ZN14blink_nrf518227display4draw17haa5976ca818aacebE>
    266a:	f7fd fe0d 	bl	288 <_ZN14blink_nrf518227display14update_display17h4431b73682dcb2eaE>
    266e:	480f      	ldr	r0, [pc, #60]	; (26ac <_ZN14blink_nrf518224main17h5d64dfdd3a94922fE+0x191c>)
    2670:	4629      	mov	r1, r5
    2672:	f000 ffeb 	bl	364c <_ZN4zinc3hal8nrf518228sleep_us17h401a33623f589258E>
    2676:	1c60      	adds	r0, r4, #1
    2678:	9026      	str	r0, [sp, #152]	; 0x98
    267a:	9631      	str	r6, [sp, #196]	; 0xc4
    267c:	e018      	b.n	26b0 <_ZN14blink_nrf518224main17h5d64dfdd3a94922fE+0x1920>
    267e:	46c0      	nop			; (mov r8, r8)
    2680:	2000001c 	.word	0x2000001c
    2684:	00000401 	.word	0x00000401
    2688:	20000438 	.word	0x20000438
    268c:	20000424 	.word	0x20000424
    2690:	0000c420 	.word	0x0000c420
    2694:	20000000 	.word	0x20000000
    2698:	20000428 	.word	0x20000428
    269c:	2000042c 	.word	0x2000042c
    26a0:	20000430 	.word	0x20000430
    26a4:	20000434 	.word	0x20000434
    26a8:	0000c82c 	.word	0x0000c82c
    26ac:	0007a120 	.word	0x0007a120
    26b0:	a839      	add	r0, sp, #228	; 0xe4
    26b2:	2100      	movs	r1, #0
    26b4:	7001      	strb	r1, [r0, #0]
    26b6:	7041      	strb	r1, [r0, #1]
    26b8:	7081      	strb	r1, [r0, #2]
    26ba:	70c1      	strb	r1, [r0, #3]
    26bc:	7101      	strb	r1, [r0, #4]
    26be:	7141      	strb	r1, [r0, #5]
    26c0:	7181      	strb	r1, [r0, #6]
    26c2:	71c1      	strb	r1, [r0, #7]
    26c4:	7201      	strb	r1, [r0, #8]
    26c6:	912b      	str	r1, [sp, #172]	; 0xac
    26c8:	7241      	strb	r1, [r0, #9]
    26ca:	1c68      	adds	r0, r5, #1
    26cc:	9029      	str	r0, [sp, #164]	; 0xa4
    26ce:	2609      	movs	r6, #9
    26d0:	2d00      	cmp	r5, #0
    26d2:	d025      	beq.n	2720 <_ZN14blink_nrf518224main17h5d64dfdd3a94922fE+0x1990>
    26d4:	270a      	movs	r7, #10
    26d6:	2609      	movs	r6, #9
    26d8:	2f00      	cmp	r7, #0
    26da:	d101      	bne.n	26e0 <_ZN14blink_nrf518224main17h5d64dfdd3a94922fE+0x1950>
    26dc:	f000 fcdc 	bl	3098 <_ZN14blink_nrf518224main17h5d64dfdd3a94922fE+0x2308>
    26e0:	4628      	mov	r0, r5
    26e2:	4639      	mov	r1, r7
    26e4:	f001 ff82 	bl	45ec <__aeabi_uidivmod>
    26e8:	460c      	mov	r4, r1
    26ea:	1b2d      	subs	r5, r5, r4
    26ec:	2f0a      	cmp	r7, #10
    26ee:	d201      	bcs.n	26f4 <_ZN14blink_nrf518224main17h5d64dfdd3a94922fE+0x1964>
    26f0:	f000 fcd5 	bl	309e <_ZN14blink_nrf518224main17h5d64dfdd3a94922fE+0x230e>
    26f4:	2e09      	cmp	r6, #9
    26f6:	d901      	bls.n	26fc <_ZN14blink_nrf518224main17h5d64dfdd3a94922fE+0x196c>
    26f8:	f000 fcd4 	bl	30a4 <_ZN14blink_nrf518224main17h5d64dfdd3a94922fE+0x2314>
    26fc:	9532      	str	r5, [sp, #200]	; 0xc8
    26fe:	250a      	movs	r5, #10
    2700:	4638      	mov	r0, r7
    2702:	4629      	mov	r1, r5
    2704:	f001 feec 	bl	44e0 <__udivsi3>
    2708:	4601      	mov	r1, r0
    270a:	4620      	mov	r0, r4
    270c:	f001 fee8 	bl	44e0 <__udivsi3>
    2710:	a939      	add	r1, sp, #228	; 0xe4
    2712:	5588      	strb	r0, [r1, r6]
    2714:	9830      	ldr	r0, [sp, #192]	; 0xc0
    2716:	1836      	adds	r6, r6, r0
    2718:	436f      	muls	r7, r5
    271a:	9d32      	ldr	r5, [sp, #200]	; 0xc8
    271c:	2d00      	cmp	r5, #0
    271e:	d1db      	bne.n	26d8 <_ZN14blink_nrf518224main17h5d64dfdd3a94922fE+0x1948>
    2720:	1c74      	adds	r4, r6, #1
    2722:	2e09      	cmp	r6, #9
    2724:	d300      	bcc.n	2728 <_ZN14blink_nrf518224main17h5d64dfdd3a94922fE+0x1998>
    2726:	4634      	mov	r4, r6
    2728:	2c09      	cmp	r4, #9
    272a:	4e02      	ldr	r6, [pc, #8]	; (2734 <_ZN14blink_nrf518224main17h5d64dfdd3a94922fE+0x19a4>)
    272c:	4f02      	ldr	r7, [pc, #8]	; (2738 <_ZN14blink_nrf518224main17h5d64dfdd3a94922fE+0x19a8>)
    272e:	d816      	bhi.n	275e <_ZN14blink_nrf518224main17h5d64dfdd3a94922fE+0x19ce>
    2730:	e004      	b.n	273c <_ZN14blink_nrf518224main17h5d64dfdd3a94922fE+0x19ac>
    2732:	46c0      	nop			; (mov r8, r8)
    2734:	000065bc 	.word	0x000065bc
    2738:	2000001c 	.word	0x2000001c
    273c:	2551      	movs	r5, #81	; 0x51
    273e:	a839      	add	r0, sp, #228	; 0xe4
    2740:	5d01      	ldrb	r1, [r0, r4]
    2742:	2909      	cmp	r1, #9
    2744:	d901      	bls.n	274a <_ZN14blink_nrf518224main17h5d64dfdd3a94922fE+0x19ba>
    2746:	f000 fcb2 	bl	30ae <_ZN14blink_nrf518224main17h5d64dfdd3a94922fE+0x231e>
    274a:	0088      	lsls	r0, r1, #2
    274c:	5830      	ldr	r0, [r6, r0]
    274e:	2228      	movs	r2, #40	; 0x28
    2750:	4629      	mov	r1, r5
    2752:	f7fd ff45 	bl	5e0 <_ZN14blink_nrf518227display4draw17haa5976ca818aacebE>
    2756:	1dad      	adds	r5, r5, #6
    2758:	1c64      	adds	r4, r4, #1
    275a:	2c0a      	cmp	r4, #10
    275c:	d3ef      	bcc.n	273e <_ZN14blink_nrf518224main17h5d64dfdd3a94922fE+0x19ae>
    275e:	982d      	ldr	r0, [sp, #180]	; 0xb4
    2760:	5c38      	ldrb	r0, [r7, r0]
    2762:	2805      	cmp	r0, #5
    2764:	d300      	bcc.n	2768 <_ZN14blink_nrf518224main17h5d64dfdd3a94922fE+0x19d8>
    2766:	9828      	ldr	r0, [sp, #160]	; 0xa0
    2768:	992d      	ldr	r1, [sp, #180]	; 0xb4
    276a:	5478      	strb	r0, [r7, r1]
    276c:	4805      	ldr	r0, [pc, #20]	; (2784 <_ZN14blink_nrf518224main17h5d64dfdd3a94922fE+0x19f4>)
    276e:	5c39      	ldrb	r1, [r7, r0]
    2770:	9a27      	ldr	r2, [sp, #156]	; 0x9c
    2772:	188a      	adds	r2, r1, r2
    2774:	327b      	adds	r2, #123	; 0x7b
    2776:	b2d2      	uxtb	r2, r2
    2778:	2a02      	cmp	r2, #2
    277a:	9a28      	ldr	r2, [sp, #160]	; 0xa0
    277c:	9e31      	ldr	r6, [sp, #196]	; 0xc4
    277e:	d804      	bhi.n	278a <_ZN14blink_nrf518224main17h5d64dfdd3a94922fE+0x19fa>
    2780:	e002      	b.n	2788 <_ZN14blink_nrf518224main17h5d64dfdd3a94922fE+0x19f8>
    2782:	46c0      	nop			; (mov r8, r8)
    2784:	00000401 	.word	0x00000401
    2788:	460a      	mov	r2, r1
    278a:	543a      	strb	r2, [r7, r0]
    278c:	f7fd fd7c 	bl	288 <_ZN14blink_nrf518227display14update_display17h4431b73682dcb2eaE>
    2790:	9826      	ldr	r0, [sp, #152]	; 0x98
    2792:	9929      	ldr	r1, [sp, #164]	; 0xa4
    2794:	4281      	cmp	r1, r0
    2796:	460d      	mov	r5, r1
    2798:	d38a      	bcc.n	26b0 <_ZN14blink_nrf518224main17h5d64dfdd3a94922fE+0x1920>
    279a:	992e      	ldr	r1, [sp, #184]	; 0xb8
    279c:	0208      	lsls	r0, r1, #8
    279e:	9028      	str	r0, [sp, #160]	; 0xa0
    27a0:	982b      	ldr	r0, [sp, #172]	; 0xac
    27a2:	9032      	str	r0, [sp, #200]	; 0xc8
    27a4:	9130      	str	r1, [sp, #192]	; 0xc0
    27a6:	2140      	movs	r1, #64	; 0x40
    27a8:	9122      	str	r1, [sp, #136]	; 0x88
    27aa:	1a09      	subs	r1, r1, r0
    27ac:	b2c9      	uxtb	r1, r1
    27ae:	9126      	str	r1, [sp, #152]	; 0x98
    27b0:	9b28      	ldr	r3, [sp, #160]	; 0xa0
    27b2:	4319      	orrs	r1, r3
    27b4:	5c7a      	ldrb	r2, [r7, r1]
    27b6:	9c2e      	ldr	r4, [sp, #184]	; 0xb8
    27b8:	4322      	orrs	r2, r4
    27ba:	547a      	strb	r2, [r7, r1]
    27bc:	992d      	ldr	r1, [sp, #180]	; 0xb4
    27be:	9c2b      	ldr	r4, [sp, #172]	; 0xac
    27c0:	547c      	strb	r4, [r7, r1]
    27c2:	4d27      	ldr	r5, [pc, #156]	; (2860 <_ZN14blink_nrf518224main17h5d64dfdd3a94922fE+0x1ad0>)
    27c4:	557e      	strb	r6, [r7, r5]
    27c6:	9525      	str	r5, [sp, #148]	; 0x94
    27c8:	4602      	mov	r2, r0
    27ca:	3240      	adds	r2, #64	; 0x40
    27cc:	b2d2      	uxtb	r2, r2
    27ce:	9229      	str	r2, [sp, #164]	; 0xa4
    27d0:	431a      	orrs	r2, r3
    27d2:	5cbe      	ldrb	r6, [r7, r2]
    27d4:	982e      	ldr	r0, [sp, #184]	; 0xb8
    27d6:	4306      	orrs	r6, r0
    27d8:	54be      	strb	r6, [r7, r2]
    27da:	547c      	strb	r4, [r7, r1]
    27dc:	9a31      	ldr	r2, [sp, #196]	; 0xc4
    27de:	557a      	strb	r2, [r7, r5]
    27e0:	461a      	mov	r2, r3
    27e2:	3280      	adds	r2, #128	; 0x80
    27e4:	9b26      	ldr	r3, [sp, #152]	; 0x98
    27e6:	189d      	adds	r5, r3, r2
    27e8:	5d7e      	ldrb	r6, [r7, r5]
    27ea:	4306      	orrs	r6, r0
    27ec:	557e      	strb	r6, [r7, r5]
    27ee:	547c      	strb	r4, [r7, r1]
    27f0:	9b31      	ldr	r3, [sp, #196]	; 0xc4
    27f2:	9825      	ldr	r0, [sp, #148]	; 0x94
    27f4:	543b      	strb	r3, [r7, r0]
    27f6:	2541      	movs	r5, #65	; 0x41
    27f8:	9b32      	ldr	r3, [sp, #200]	; 0xc8
    27fa:	1aed      	subs	r5, r5, r3
    27fc:	b2ed      	uxtb	r5, r5
    27fe:	18ad      	adds	r5, r5, r2
    2800:	5d7e      	ldrb	r6, [r7, r5]
    2802:	9f24      	ldr	r7, [sp, #144]	; 0x90
    2804:	433e      	orrs	r6, r7
    2806:	4b17      	ldr	r3, [pc, #92]	; (2864 <_ZN14blink_nrf518224main17h5d64dfdd3a94922fE+0x1ad4>)
    2808:	555e      	strb	r6, [r3, r5]
    280a:	4b16      	ldr	r3, [pc, #88]	; (2864 <_ZN14blink_nrf518224main17h5d64dfdd3a94922fE+0x1ad4>)
    280c:	545c      	strb	r4, [r3, r1]
    280e:	4b15      	ldr	r3, [pc, #84]	; (2864 <_ZN14blink_nrf518224main17h5d64dfdd3a94922fE+0x1ad4>)
    2810:	9d31      	ldr	r5, [sp, #196]	; 0xc4
    2812:	541d      	strb	r5, [r3, r0]
    2814:	9b29      	ldr	r3, [sp, #164]	; 0xa4
    2816:	189b      	adds	r3, r3, r2
    2818:	4d12      	ldr	r5, [pc, #72]	; (2864 <_ZN14blink_nrf518224main17h5d64dfdd3a94922fE+0x1ad4>)
    281a:	5ced      	ldrb	r5, [r5, r3]
    281c:	9e2e      	ldr	r6, [sp, #184]	; 0xb8
    281e:	4335      	orrs	r5, r6
    2820:	4e10      	ldr	r6, [pc, #64]	; (2864 <_ZN14blink_nrf518224main17h5d64dfdd3a94922fE+0x1ad4>)
    2822:	54f5      	strb	r5, [r6, r3]
    2824:	9e31      	ldr	r6, [sp, #196]	; 0xc4
    2826:	4b0f      	ldr	r3, [pc, #60]	; (2864 <_ZN14blink_nrf518224main17h5d64dfdd3a94922fE+0x1ad4>)
    2828:	545c      	strb	r4, [r3, r1]
    282a:	4b0e      	ldr	r3, [pc, #56]	; (2864 <_ZN14blink_nrf518224main17h5d64dfdd3a94922fE+0x1ad4>)
    282c:	4605      	mov	r5, r0
    282e:	555e      	strb	r6, [r3, r5]
    2830:	9832      	ldr	r0, [sp, #200]	; 0xc8
    2832:	3041      	adds	r0, #65	; 0x41
    2834:	b2c0      	uxtb	r0, r0
    2836:	1880      	adds	r0, r0, r2
    2838:	4a0a      	ldr	r2, [pc, #40]	; (2864 <_ZN14blink_nrf518224main17h5d64dfdd3a94922fE+0x1ad4>)
    283a:	5c12      	ldrb	r2, [r2, r0]
    283c:	433a      	orrs	r2, r7
    283e:	4f09      	ldr	r7, [pc, #36]	; (2864 <_ZN14blink_nrf518224main17h5d64dfdd3a94922fE+0x1ad4>)
    2840:	543a      	strb	r2, [r7, r0]
    2842:	547c      	strb	r4, [r7, r1]
    2844:	557e      	strb	r6, [r7, r5]
    2846:	f7fd fd1f 	bl	288 <_ZN14blink_nrf518227display14update_display17h4431b73682dcb2eaE>
    284a:	2064      	movs	r0, #100	; 0x64
    284c:	4621      	mov	r1, r4
    284e:	f000 fefd 	bl	364c <_ZN4zinc3hal8nrf518228sleep_us17h401a33623f589258E>
    2852:	9a30      	ldr	r2, [sp, #192]	; 0xc0
    2854:	b2d0      	uxtb	r0, r2
    2856:	1c51      	adds	r1, r2, #1
    2858:	2821      	cmp	r0, #33	; 0x21
    285a:	d306      	bcc.n	286a <_ZN14blink_nrf518224main17h5d64dfdd3a94922fE+0x1ada>
    285c:	e004      	b.n	2868 <_ZN14blink_nrf518224main17h5d64dfdd3a94922fE+0x1ad8>
    285e:	46c0      	nop			; (mov r8, r8)
    2860:	00000401 	.word	0x00000401
    2864:	2000001c 	.word	0x2000001c
    2868:	4611      	mov	r1, r2
    286a:	2821      	cmp	r0, #33	; 0x21
    286c:	4610      	mov	r0, r2
    286e:	d398      	bcc.n	27a2 <_ZN14blink_nrf518224main17h5d64dfdd3a94922fE+0x1a12>
    2870:	2101      	movs	r1, #1
    2872:	2200      	movs	r2, #0
    2874:	9c2f      	ldr	r4, [sp, #188]	; 0xbc
    2876:	922d      	str	r2, [sp, #180]	; 0xb4
    2878:	9126      	str	r1, [sp, #152]	; 0x98
    287a:	4635      	mov	r5, r6
    287c:	4613      	mov	r3, r2
    287e:	3310      	adds	r3, #16
    2880:	20f8      	movs	r0, #248	; 0xf8
    2882:	4619      	mov	r1, r3
    2884:	4001      	ands	r1, r0
    2886:	010a      	lsls	r2, r1, #4
    2888:	261f      	movs	r6, #31
    288a:	922b      	str	r2, [sp, #172]	; 0xac
    288c:	4332      	orrs	r2, r6
    288e:	42a2      	cmp	r2, r4
    2890:	d301      	bcc.n	2896 <_ZN14blink_nrf518224main17h5d64dfdd3a94922fE+0x1b06>
    2892:	f000 fc10 	bl	30b6 <_ZN14blink_nrf518224main17h5d64dfdd3a94922fE+0x2326>
    2896:	5cbc      	ldrb	r4, [r7, r2]
    2898:	402b      	ands	r3, r5
    289a:	2101      	movs	r1, #1
    289c:	460d      	mov	r5, r1
    289e:	409d      	lsls	r5, r3
    28a0:	432c      	orrs	r4, r5
    28a2:	54bc      	strb	r4, [r7, r2]
    28a4:	460c      	mov	r4, r1
    28a6:	02a1      	lsls	r1, r4, #10
    28a8:	2200      	movs	r2, #0
    28aa:	9132      	str	r1, [sp, #200]	; 0xc8
    28ac:	9230      	str	r2, [sp, #192]	; 0xc0
    28ae:	547a      	strb	r2, [r7, r1]
    28b0:	4a09      	ldr	r2, [pc, #36]	; (28d8 <_ZN14blink_nrf518224main17h5d64dfdd3a94922fE+0x1b48>)
    28b2:	9931      	ldr	r1, [sp, #196]	; 0xc4
    28b4:	54b9      	strb	r1, [r7, r2]
    28b6:	2218      	movs	r2, #24
    28b8:	4639      	mov	r1, r7
    28ba:	9b2d      	ldr	r3, [sp, #180]	; 0xb4
    28bc:	1ad7      	subs	r7, r2, r3
    28be:	463a      	mov	r2, r7
    28c0:	902e      	str	r0, [sp, #184]	; 0xb8
    28c2:	4002      	ands	r2, r0
    28c4:	0112      	lsls	r2, r2, #4
    28c6:	4613      	mov	r3, r2
    28c8:	9621      	str	r6, [sp, #132]	; 0x84
    28ca:	4333      	orrs	r3, r6
    28cc:	982f      	ldr	r0, [sp, #188]	; 0xbc
    28ce:	4283      	cmp	r3, r0
    28d0:	9831      	ldr	r0, [sp, #196]	; 0xc4
    28d2:	d303      	bcc.n	28dc <_ZN14blink_nrf518224main17h5d64dfdd3a94922fE+0x1b4c>
    28d4:	e3f8      	b.n	30c8 <_ZN14blink_nrf518224main17h5d64dfdd3a94922fE+0x2338>
    28d6:	46c0      	nop			; (mov r8, r8)
    28d8:	00000401 	.word	0x00000401
    28dc:	5cce      	ldrb	r6, [r1, r3]
    28de:	4007      	ands	r7, r0
    28e0:	9429      	str	r4, [sp, #164]	; 0xa4
    28e2:	40bc      	lsls	r4, r7
    28e4:	4326      	orrs	r6, r4
    28e6:	54ce      	strb	r6, [r1, r3]
    28e8:	9b32      	ldr	r3, [sp, #200]	; 0xc8
    28ea:	9e30      	ldr	r6, [sp, #192]	; 0xc0
    28ec:	54ce      	strb	r6, [r1, r3]
    28ee:	4b05      	ldr	r3, [pc, #20]	; (2904 <_ZN14blink_nrf518224main17h5d64dfdd3a94922fE+0x1b74>)
    28f0:	54c8      	strb	r0, [r1, r3]
    28f2:	2361      	movs	r3, #97	; 0x61
    28f4:	9f2b      	ldr	r7, [sp, #172]	; 0xac
    28f6:	431f      	orrs	r7, r3
    28f8:	9e2f      	ldr	r6, [sp, #188]	; 0xbc
    28fa:	42b7      	cmp	r7, r6
    28fc:	463e      	mov	r6, r7
    28fe:	460f      	mov	r7, r1
    2900:	d302      	bcc.n	2908 <_ZN14blink_nrf518224main17h5d64dfdd3a94922fE+0x1b78>
    2902:	e3f3      	b.n	30ec <_ZN14blink_nrf518224main17h5d64dfdd3a94922fE+0x235c>
    2904:	00000401 	.word	0x00000401
    2908:	4631      	mov	r1, r6
    290a:	5c7e      	ldrb	r6, [r7, r1]
    290c:	432e      	orrs	r6, r5
    290e:	547e      	strb	r6, [r7, r1]
    2910:	9d30      	ldr	r5, [sp, #192]	; 0xc0
    2912:	9932      	ldr	r1, [sp, #200]	; 0xc8
    2914:	547d      	strb	r5, [r7, r1]
    2916:	4905      	ldr	r1, [pc, #20]	; (292c <_ZN14blink_nrf518224main17h5d64dfdd3a94922fE+0x1b9c>)
    2918:	5478      	strb	r0, [r7, r1]
    291a:	431a      	orrs	r2, r3
    291c:	992f      	ldr	r1, [sp, #188]	; 0xbc
    291e:	428a      	cmp	r2, r1
    2920:	4606      	mov	r6, r0
    2922:	4628      	mov	r0, r5
    2924:	9d32      	ldr	r5, [sp, #200]	; 0xc8
    2926:	d303      	bcc.n	2930 <_ZN14blink_nrf518224main17h5d64dfdd3a94922fE+0x1ba0>
    2928:	e3c5      	b.n	30b6 <_ZN14blink_nrf518224main17h5d64dfdd3a94922fE+0x2326>
    292a:	46c0      	nop			; (mov r8, r8)
    292c:	00000401 	.word	0x00000401
    2930:	5cb9      	ldrb	r1, [r7, r2]
    2932:	4321      	orrs	r1, r4
    2934:	54b9      	strb	r1, [r7, r2]
    2936:	5578      	strb	r0, [r7, r5]
    2938:	4908      	ldr	r1, [pc, #32]	; (295c <_ZN14blink_nrf518224main17h5d64dfdd3a94922fE+0x1bcc>)
    293a:	547e      	strb	r6, [r7, r1]
    293c:	9b2d      	ldr	r3, [sp, #180]	; 0xb4
    293e:	3311      	adds	r3, #17
    2940:	4619      	mov	r1, r3
    2942:	9a2e      	ldr	r2, [sp, #184]	; 0xb8
    2944:	4011      	ands	r1, r2
    2946:	0109      	lsls	r1, r1, #4
    2948:	2262      	movs	r2, #98	; 0x62
    294a:	922b      	str	r2, [sp, #172]	; 0xac
    294c:	4311      	orrs	r1, r2
    294e:	9a2f      	ldr	r2, [sp, #188]	; 0xbc
    2950:	4291      	cmp	r1, r2
    2952:	4602      	mov	r2, r0
    2954:	4628      	mov	r0, r5
    2956:	d303      	bcc.n	2960 <_ZN14blink_nrf518224main17h5d64dfdd3a94922fE+0x1bd0>
    2958:	e3b2      	b.n	30c0 <_ZN14blink_nrf518224main17h5d64dfdd3a94922fE+0x2330>
    295a:	46c0      	nop			; (mov r8, r8)
    295c:	00000401 	.word	0x00000401
    2960:	5c7c      	ldrb	r4, [r7, r1]
    2962:	9425      	str	r4, [sp, #148]	; 0x94
    2964:	4033      	ands	r3, r6
    2966:	4634      	mov	r4, r6
    2968:	9e29      	ldr	r6, [sp, #164]	; 0xa4
    296a:	4635      	mov	r5, r6
    296c:	409d      	lsls	r5, r3
    296e:	9b25      	ldr	r3, [sp, #148]	; 0x94
    2970:	431d      	orrs	r5, r3
    2972:	547d      	strb	r5, [r7, r1]
    2974:	4605      	mov	r5, r0
    2976:	557a      	strb	r2, [r7, r5]
    2978:	4907      	ldr	r1, [pc, #28]	; (2998 <_ZN14blink_nrf518224main17h5d64dfdd3a94922fE+0x1c08>)
    297a:	547c      	strb	r4, [r7, r1]
    297c:	2119      	movs	r1, #25
    297e:	982d      	ldr	r0, [sp, #180]	; 0xb4
    2980:	1a08      	subs	r0, r1, r0
    2982:	4601      	mov	r1, r0
    2984:	9b2e      	ldr	r3, [sp, #184]	; 0xb8
    2986:	4019      	ands	r1, r3
    2988:	0109      	lsls	r1, r1, #4
    298a:	9b2b      	ldr	r3, [sp, #172]	; 0xac
    298c:	4319      	orrs	r1, r3
    298e:	9b2f      	ldr	r3, [sp, #188]	; 0xbc
    2990:	4299      	cmp	r1, r3
    2992:	4614      	mov	r4, r2
    2994:	d302      	bcc.n	299c <_ZN14blink_nrf518224main17h5d64dfdd3a94922fE+0x1c0c>
    2996:	e393      	b.n	30c0 <_ZN14blink_nrf518224main17h5d64dfdd3a94922fE+0x2330>
    2998:	00000401 	.word	0x00000401
    299c:	5c7a      	ldrb	r2, [r7, r1]
    299e:	9b31      	ldr	r3, [sp, #196]	; 0xc4
    29a0:	4018      	ands	r0, r3
    29a2:	4086      	lsls	r6, r0
    29a4:	4316      	orrs	r6, r2
    29a6:	547e      	strb	r6, [r7, r1]
    29a8:	557c      	strb	r4, [r7, r5]
    29aa:	4807      	ldr	r0, [pc, #28]	; (29c8 <_ZN14blink_nrf518224main17h5d64dfdd3a94922fE+0x1c38>)
    29ac:	9e31      	ldr	r6, [sp, #196]	; 0xc4
    29ae:	543e      	strb	r6, [r7, r0]
    29b0:	f7fd fc6a 	bl	288 <_ZN14blink_nrf518227display14update_display17h4431b73682dcb2eaE>
    29b4:	2064      	movs	r0, #100	; 0x64
    29b6:	4621      	mov	r1, r4
    29b8:	f000 fe48 	bl	364c <_ZN4zinc3hal8nrf518228sleep_us17h401a33623f589258E>
    29bc:	9a26      	ldr	r2, [sp, #152]	; 0x98
    29be:	b2d0      	uxtb	r0, r2
    29c0:	1c51      	adds	r1, r2, #1
    29c2:	2805      	cmp	r0, #5
    29c4:	d303      	bcc.n	29ce <_ZN14blink_nrf518224main17h5d64dfdd3a94922fE+0x1c3e>
    29c6:	e001      	b.n	29cc <_ZN14blink_nrf518224main17h5d64dfdd3a94922fE+0x1c3c>
    29c8:	00000401 	.word	0x00000401
    29cc:	4611      	mov	r1, r2
    29ce:	2805      	cmp	r0, #5
    29d0:	9c2f      	ldr	r4, [sp, #188]	; 0xbc
    29d2:	d200      	bcs.n	29d6 <_ZN14blink_nrf518224main17h5d64dfdd3a94922fE+0x1c46>
    29d4:	e74f      	b.n	2876 <_ZN14blink_nrf518224main17h5d64dfdd3a94922fE+0x1ae6>
    29d6:	2622      	movs	r6, #34	; 0x22
    29d8:	2021      	movs	r0, #33	; 0x21
    29da:	9922      	ldr	r1, [sp, #136]	; 0x88
    29dc:	1a09      	subs	r1, r1, r0
    29de:	b2c9      	uxtb	r1, r1
    29e0:	9b28      	ldr	r3, [sp, #160]	; 0xa0
    29e2:	4319      	orrs	r1, r3
    29e4:	5c7a      	ldrb	r2, [r7, r1]
    29e6:	2410      	movs	r4, #16
    29e8:	942d      	str	r4, [sp, #180]	; 0xb4
    29ea:	4322      	orrs	r2, r4
    29ec:	547a      	strb	r2, [r7, r1]
    29ee:	9930      	ldr	r1, [sp, #192]	; 0xc0
    29f0:	5579      	strb	r1, [r7, r5]
    29f2:	490d      	ldr	r1, [pc, #52]	; (2a28 <_ZN14blink_nrf518224main17h5d64dfdd3a94922fE+0x1c98>)
    29f4:	462c      	mov	r4, r5
    29f6:	9d31      	ldr	r5, [sp, #196]	; 0xc4
    29f8:	547d      	strb	r5, [r7, r1]
    29fa:	3040      	adds	r0, #64	; 0x40
    29fc:	b2c0      	uxtb	r0, r0
    29fe:	4318      	orrs	r0, r3
    2a00:	5c3a      	ldrb	r2, [r7, r0]
    2a02:	9b2d      	ldr	r3, [sp, #180]	; 0xb4
    2a04:	431a      	orrs	r2, r3
    2a06:	543a      	strb	r2, [r7, r0]
    2a08:	9830      	ldr	r0, [sp, #192]	; 0xc0
    2a0a:	5538      	strb	r0, [r7, r4]
    2a0c:	547d      	strb	r5, [r7, r1]
    2a0e:	9c30      	ldr	r4, [sp, #192]	; 0xc0
    2a10:	f7fd fc3a 	bl	288 <_ZN14blink_nrf518227display14update_display17h4431b73682dcb2eaE>
    2a14:	2064      	movs	r0, #100	; 0x64
    2a16:	4621      	mov	r1, r4
    2a18:	f000 fe18 	bl	364c <_ZN4zinc3hal8nrf518228sleep_us17h401a33623f589258E>
    2a1c:	b2f0      	uxtb	r0, r6
    2a1e:	1c71      	adds	r1, r6, #1
    2a20:	283a      	cmp	r0, #58	; 0x3a
    2a22:	d304      	bcc.n	2a2e <_ZN14blink_nrf518224main17h5d64dfdd3a94922fE+0x1c9e>
    2a24:	e002      	b.n	2a2c <_ZN14blink_nrf518224main17h5d64dfdd3a94922fE+0x1c9c>
    2a26:	46c0      	nop			; (mov r8, r8)
    2a28:	00000401 	.word	0x00000401
    2a2c:	4631      	mov	r1, r6
    2a2e:	283a      	cmp	r0, #58	; 0x3a
    2a30:	4630      	mov	r0, r6
    2a32:	460e      	mov	r6, r1
    2a34:	9d32      	ldr	r5, [sp, #200]	; 0xc8
    2a36:	d3d0      	bcc.n	29da <_ZN14blink_nrf518224main17h5d64dfdd3a94922fE+0x1c4a>
    2a38:	9b05      	ldr	r3, [sp, #20]
    2a3a:	9d2f      	ldr	r5, [sp, #188]	; 0xbc
    2a3c:	9821      	ldr	r0, [sp, #132]	; 0x84
    2a3e:	01c0      	lsls	r0, r0, #7
    2a40:	0119      	lsls	r1, r3, #4
    2a42:	4001      	ands	r1, r0
    2a44:	2206      	movs	r2, #6
    2a46:	430a      	orrs	r2, r1
    2a48:	1c58      	adds	r0, r3, #1
    2a4a:	902d      	str	r0, [sp, #180]	; 0xb4
    2a4c:	42aa      	cmp	r2, r5
    2a4e:	461e      	mov	r6, r3
    2a50:	d300      	bcc.n	2a54 <_ZN14blink_nrf518224main17h5d64dfdd3a94922fE+0x1cc4>
    2a52:	e350      	b.n	30f6 <_ZN14blink_nrf518224main17h5d64dfdd3a94922fE+0x2366>
    2a54:	5cbb      	ldrb	r3, [r7, r2]
    2a56:	9c31      	ldr	r4, [sp, #196]	; 0xc4
    2a58:	4026      	ands	r6, r4
    2a5a:	9829      	ldr	r0, [sp, #164]	; 0xa4
    2a5c:	40b0      	lsls	r0, r6
    2a5e:	4626      	mov	r6, r4
    2a60:	4303      	orrs	r3, r0
    2a62:	54bb      	strb	r3, [r7, r2]
    2a64:	9c30      	ldr	r4, [sp, #192]	; 0xc0
    2a66:	9b32      	ldr	r3, [sp, #200]	; 0xc8
    2a68:	54fc      	strb	r4, [r7, r3]
    2a6a:	4a03      	ldr	r2, [pc, #12]	; (2a78 <_ZN14blink_nrf518224main17h5d64dfdd3a94922fE+0x1ce8>)
    2a6c:	54be      	strb	r6, [r7, r2]
    2a6e:	227a      	movs	r2, #122	; 0x7a
    2a70:	4311      	orrs	r1, r2
    2a72:	42a9      	cmp	r1, r5
    2a74:	d302      	bcc.n	2a7c <_ZN14blink_nrf518224main17h5d64dfdd3a94922fE+0x1cec>
    2a76:	e323      	b.n	30c0 <_ZN14blink_nrf518224main17h5d64dfdd3a94922fE+0x2330>
    2a78:	00000401 	.word	0x00000401
    2a7c:	5c7a      	ldrb	r2, [r7, r1]
    2a7e:	4302      	orrs	r2, r0
    2a80:	547a      	strb	r2, [r7, r1]
    2a82:	54fc      	strb	r4, [r7, r3]
    2a84:	4806      	ldr	r0, [pc, #24]	; (2aa0 <_ZN14blink_nrf518224main17h5d64dfdd3a94922fE+0x1d10>)
    2a86:	543e      	strb	r6, [r7, r0]
    2a88:	f7fd fbfe 	bl	288 <_ZN14blink_nrf518227display14update_display17h4431b73682dcb2eaE>
    2a8c:	2064      	movs	r0, #100	; 0x64
    2a8e:	4621      	mov	r1, r4
    2a90:	f000 fddc 	bl	364c <_ZN4zinc3hal8nrf518228sleep_us17h401a33623f589258E>
    2a94:	992d      	ldr	r1, [sp, #180]	; 0xb4
    2a96:	b2c8      	uxtb	r0, r1
    2a98:	282e      	cmp	r0, #46	; 0x2e
    2a9a:	460b      	mov	r3, r1
    2a9c:	d3ce      	bcc.n	2a3c <_ZN14blink_nrf518224main17h5d64dfdd3a94922fE+0x1cac>
    2a9e:	e001      	b.n	2aa4 <_ZN14blink_nrf518224main17h5d64dfdd3a94922fE+0x1d14>
    2aa0:	00000401 	.word	0x00000401
    2aa4:	4832      	ldr	r0, [pc, #200]	; (2b70 <_ZN14blink_nrf518224main17h5d64dfdd3a94922fE+0x1de0>)
    2aa6:	5c39      	ldrb	r1, [r7, r0]
    2aa8:	2520      	movs	r5, #32
    2aaa:	4329      	orrs	r1, r5
    2aac:	5439      	strb	r1, [r7, r0]
    2aae:	4831      	ldr	r0, [pc, #196]	; (2b74 <_ZN14blink_nrf518224main17h5d64dfdd3a94922fE+0x1de4>)
    2ab0:	5c39      	ldrb	r1, [r7, r0]
    2ab2:	4329      	orrs	r1, r5
    2ab4:	5439      	strb	r1, [r7, r0]
    2ab6:	9e30      	ldr	r6, [sp, #192]	; 0xc0
    2ab8:	9c32      	ldr	r4, [sp, #200]	; 0xc8
    2aba:	553e      	strb	r6, [r7, r4]
    2abc:	482e      	ldr	r0, [pc, #184]	; (2b78 <_ZN14blink_nrf518224main17h5d64dfdd3a94922fE+0x1de8>)
    2abe:	902b      	str	r0, [sp, #172]	; 0xac
    2ac0:	9931      	ldr	r1, [sp, #196]	; 0xc4
    2ac2:	5439      	strb	r1, [r7, r0]
    2ac4:	f7fd fbe0 	bl	288 <_ZN14blink_nrf518227display14update_display17h4431b73682dcb2eaE>
    2ac8:	2064      	movs	r0, #100	; 0x64
    2aca:	902d      	str	r0, [sp, #180]	; 0xb4
    2acc:	4631      	mov	r1, r6
    2ace:	f000 fdbd 	bl	364c <_ZN4zinc3hal8nrf518228sleep_us17h401a33623f589258E>
    2ad2:	482a      	ldr	r0, [pc, #168]	; (2b7c <_ZN14blink_nrf518224main17h5d64dfdd3a94922fE+0x1dec>)
    2ad4:	5c39      	ldrb	r1, [r7, r0]
    2ad6:	4329      	orrs	r1, r5
    2ad8:	5439      	strb	r1, [r7, r0]
    2ada:	205f      	movs	r0, #95	; 0x5f
    2adc:	00c0      	lsls	r0, r0, #3
    2ade:	5c39      	ldrb	r1, [r7, r0]
    2ae0:	4329      	orrs	r1, r5
    2ae2:	5439      	strb	r1, [r7, r0]
    2ae4:	553e      	strb	r6, [r7, r4]
    2ae6:	9831      	ldr	r0, [sp, #196]	; 0xc4
    2ae8:	992b      	ldr	r1, [sp, #172]	; 0xac
    2aea:	5478      	strb	r0, [r7, r1]
    2aec:	f7fd fbcc 	bl	288 <_ZN14blink_nrf518227display14update_display17h4431b73682dcb2eaE>
    2af0:	982d      	ldr	r0, [sp, #180]	; 0xb4
    2af2:	4631      	mov	r1, r6
    2af4:	f000 fdaa 	bl	364c <_ZN4zinc3hal8nrf518228sleep_us17h401a33623f589258E>
    2af8:	2051      	movs	r0, #81	; 0x51
    2afa:	00c0      	lsls	r0, r0, #3
    2afc:	5c39      	ldrb	r1, [r7, r0]
    2afe:	4329      	orrs	r1, r5
    2b00:	5439      	strb	r1, [r7, r0]
    2b02:	481f      	ldr	r0, [pc, #124]	; (2b80 <_ZN14blink_nrf518224main17h5d64dfdd3a94922fE+0x1df0>)
    2b04:	5c39      	ldrb	r1, [r7, r0]
    2b06:	4329      	orrs	r1, r5
    2b08:	5439      	strb	r1, [r7, r0]
    2b0a:	553e      	strb	r6, [r7, r4]
    2b0c:	9c2b      	ldr	r4, [sp, #172]	; 0xac
    2b0e:	9831      	ldr	r0, [sp, #196]	; 0xc4
    2b10:	5538      	strb	r0, [r7, r4]
    2b12:	f7fd fbb9 	bl	288 <_ZN14blink_nrf518227display14update_display17h4431b73682dcb2eaE>
    2b16:	982d      	ldr	r0, [sp, #180]	; 0xb4
    2b18:	4631      	mov	r1, r6
    2b1a:	f000 fd97 	bl	364c <_ZN4zinc3hal8nrf518228sleep_us17h401a33623f589258E>
    2b1e:	4819      	ldr	r0, [pc, #100]	; (2b84 <_ZN14blink_nrf518224main17h5d64dfdd3a94922fE+0x1df4>)
    2b20:	5c39      	ldrb	r1, [r7, r0]
    2b22:	4329      	orrs	r1, r5
    2b24:	5439      	strb	r1, [r7, r0]
    2b26:	4818      	ldr	r0, [pc, #96]	; (2b88 <_ZN14blink_nrf518224main17h5d64dfdd3a94922fE+0x1df8>)
    2b28:	5c39      	ldrb	r1, [r7, r0]
    2b2a:	4329      	orrs	r1, r5
    2b2c:	5439      	strb	r1, [r7, r0]
    2b2e:	9832      	ldr	r0, [sp, #200]	; 0xc8
    2b30:	543e      	strb	r6, [r7, r0]
    2b32:	9831      	ldr	r0, [sp, #196]	; 0xc4
    2b34:	5538      	strb	r0, [r7, r4]
    2b36:	f7fd fba7 	bl	288 <_ZN14blink_nrf518227display14update_display17h4431b73682dcb2eaE>
    2b3a:	9c2d      	ldr	r4, [sp, #180]	; 0xb4
    2b3c:	4620      	mov	r0, r4
    2b3e:	4631      	mov	r1, r6
    2b40:	f000 fd84 	bl	364c <_ZN4zinc3hal8nrf518228sleep_us17h401a33623f589258E>
    2b44:	4811      	ldr	r0, [pc, #68]	; (2b8c <_ZN14blink_nrf518224main17h5d64dfdd3a94922fE+0x1dfc>)
    2b46:	5c39      	ldrb	r1, [r7, r0]
    2b48:	4329      	orrs	r1, r5
    2b4a:	5439      	strb	r1, [r7, r0]
    2b4c:	4810      	ldr	r0, [pc, #64]	; (2b90 <_ZN14blink_nrf518224main17h5d64dfdd3a94922fE+0x1e00>)
    2b4e:	5c39      	ldrb	r1, [r7, r0]
    2b50:	4329      	orrs	r1, r5
    2b52:	4635      	mov	r5, r6
    2b54:	5439      	strb	r1, [r7, r0]
    2b56:	9832      	ldr	r0, [sp, #200]	; 0xc8
    2b58:	543d      	strb	r5, [r7, r0]
    2b5a:	9e31      	ldr	r6, [sp, #196]	; 0xc4
    2b5c:	992b      	ldr	r1, [sp, #172]	; 0xac
    2b5e:	547e      	strb	r6, [r7, r1]
    2b60:	f7fd fb92 	bl	288 <_ZN14blink_nrf518227display14update_display17h4431b73682dcb2eaE>
    2b64:	4620      	mov	r0, r4
    2b66:	4629      	mov	r1, r5
    2b68:	f000 fd70 	bl	364c <_ZN4zinc3hal8nrf518228sleep_us17h401a33623f589258E>
    2b6c:	991f      	ldr	r1, [sp, #124]	; 0x7c
    2b6e:	e011      	b.n	2b94 <_ZN14blink_nrf518224main17h5d64dfdd3a94922fE+0x1e04>
    2b70:	00000286 	.word	0x00000286
    2b74:	000002f9 	.word	0x000002f9
    2b78:	00000401 	.word	0x00000401
    2b7c:	00000287 	.word	0x00000287
    2b80:	000002f7 	.word	0x000002f7
    2b84:	00000289 	.word	0x00000289
    2b88:	000002f6 	.word	0x000002f6
    2b8c:	0000028a 	.word	0x0000028a
    2b90:	000002f5 	.word	0x000002f5
    2b94:	462b      	mov	r3, r5
    2b96:	332c      	adds	r3, #44	; 0x2c
    2b98:	4618      	mov	r0, r3
    2b9a:	9a2e      	ldr	r2, [sp, #184]	; 0xb8
    2b9c:	4010      	ands	r0, r2
    2b9e:	0104      	lsls	r4, r0, #4
    2ba0:	4622      	mov	r2, r4
    2ba2:	430a      	orrs	r2, r1
    2ba4:	982f      	ldr	r0, [sp, #188]	; 0xbc
    2ba6:	4282      	cmp	r2, r0
    2ba8:	d300      	bcc.n	2bac <_ZN14blink_nrf518224main17h5d64dfdd3a94922fE+0x1e1c>
    2baa:	e284      	b.n	30b6 <_ZN14blink_nrf518224main17h5d64dfdd3a94922fE+0x2326>
    2bac:	5cb9      	ldrb	r1, [r7, r2]
    2bae:	4033      	ands	r3, r6
    2bb0:	2601      	movs	r6, #1
    2bb2:	4630      	mov	r0, r6
    2bb4:	4098      	lsls	r0, r3
    2bb6:	4301      	orrs	r1, r0
    2bb8:	54b9      	strb	r1, [r7, r2]
    2bba:	962d      	str	r6, [sp, #180]	; 0xb4
    2bbc:	02b1      	lsls	r1, r6, #10
    2bbe:	2200      	movs	r2, #0
    2bc0:	912b      	str	r1, [sp, #172]	; 0xac
    2bc2:	9232      	str	r2, [sp, #200]	; 0xc8
    2bc4:	547a      	strb	r2, [r7, r1]
    2bc6:	4a09      	ldr	r2, [pc, #36]	; (2bec <_ZN14blink_nrf518224main17h5d64dfdd3a94922fE+0x1e5c>)
    2bc8:	9931      	ldr	r1, [sp, #196]	; 0xc4
    2bca:	54b9      	strb	r1, [r7, r2]
    2bcc:	222c      	movs	r2, #44	; 0x2c
    2bce:	4639      	mov	r1, r7
    2bd0:	9530      	str	r5, [sp, #192]	; 0xc0
    2bd2:	1b57      	subs	r7, r2, r5
    2bd4:	463a      	mov	r2, r7
    2bd6:	9b2e      	ldr	r3, [sp, #184]	; 0xb8
    2bd8:	401a      	ands	r2, r3
    2bda:	0112      	lsls	r2, r2, #4
    2bdc:	4613      	mov	r3, r2
    2bde:	9d1f      	ldr	r5, [sp, #124]	; 0x7c
    2be0:	432b      	orrs	r3, r5
    2be2:	9d2f      	ldr	r5, [sp, #188]	; 0xbc
    2be4:	42ab      	cmp	r3, r5
    2be6:	9d31      	ldr	r5, [sp, #196]	; 0xc4
    2be8:	d302      	bcc.n	2bf0 <_ZN14blink_nrf518224main17h5d64dfdd3a94922fE+0x1e60>
    2bea:	e26d      	b.n	30c8 <_ZN14blink_nrf518224main17h5d64dfdd3a94922fE+0x2338>
    2bec:	00000401 	.word	0x00000401
    2bf0:	5cce      	ldrb	r6, [r1, r3]
    2bf2:	9628      	str	r6, [sp, #160]	; 0xa0
    2bf4:	402f      	ands	r7, r5
    2bf6:	9d2d      	ldr	r5, [sp, #180]	; 0xb4
    2bf8:	40bd      	lsls	r5, r7
    2bfa:	9e28      	ldr	r6, [sp, #160]	; 0xa0
    2bfc:	432e      	orrs	r6, r5
    2bfe:	54ce      	strb	r6, [r1, r3]
    2c00:	9b2b      	ldr	r3, [sp, #172]	; 0xac
    2c02:	9e32      	ldr	r6, [sp, #200]	; 0xc8
    2c04:	54ce      	strb	r6, [r1, r3]
    2c06:	4b05      	ldr	r3, [pc, #20]	; (2c1c <_ZN14blink_nrf518224main17h5d64dfdd3a94922fE+0x1e8c>)
    2c08:	9e31      	ldr	r6, [sp, #196]	; 0xc4
    2c0a:	54ce      	strb	r6, [r1, r3]
    2c0c:	2673      	movs	r6, #115	; 0x73
    2c0e:	4334      	orrs	r4, r6
    2c10:	9b2f      	ldr	r3, [sp, #188]	; 0xbc
    2c12:	429c      	cmp	r4, r3
    2c14:	460f      	mov	r7, r1
    2c16:	d303      	bcc.n	2c20 <_ZN14blink_nrf518224main17h5d64dfdd3a94922fE+0x1e90>
    2c18:	e272      	b.n	3100 <_ZN14blink_nrf518224main17h5d64dfdd3a94922fE+0x2370>
    2c1a:	46c0      	nop			; (mov r8, r8)
    2c1c:	00000401 	.word	0x00000401
    2c20:	5d3b      	ldrb	r3, [r7, r4]
    2c22:	4303      	orrs	r3, r0
    2c24:	553b      	strb	r3, [r7, r4]
    2c26:	992b      	ldr	r1, [sp, #172]	; 0xac
    2c28:	9b32      	ldr	r3, [sp, #200]	; 0xc8
    2c2a:	547b      	strb	r3, [r7, r1]
    2c2c:	48fe      	ldr	r0, [pc, #1016]	; (3028 <_ZN14blink_nrf518224main17h5d64dfdd3a94922fE+0x2298>)
    2c2e:	9c31      	ldr	r4, [sp, #196]	; 0xc4
    2c30:	543c      	strb	r4, [r7, r0]
    2c32:	9628      	str	r6, [sp, #160]	; 0xa0
    2c34:	4332      	orrs	r2, r6
    2c36:	982f      	ldr	r0, [sp, #188]	; 0xbc
    2c38:	4282      	cmp	r2, r0
    2c3a:	d300      	bcc.n	2c3e <_ZN14blink_nrf518224main17h5d64dfdd3a94922fE+0x1eae>
    2c3c:	e23b      	b.n	30b6 <_ZN14blink_nrf518224main17h5d64dfdd3a94922fE+0x2326>
    2c3e:	5cb8      	ldrb	r0, [r7, r2]
    2c40:	4328      	orrs	r0, r5
    2c42:	54b8      	strb	r0, [r7, r2]
    2c44:	547b      	strb	r3, [r7, r1]
    2c46:	48f8      	ldr	r0, [pc, #992]	; (3028 <_ZN14blink_nrf518224main17h5d64dfdd3a94922fE+0x2298>)
    2c48:	9a31      	ldr	r2, [sp, #196]	; 0xc4
    2c4a:	543a      	strb	r2, [r7, r0]
    2c4c:	9d30      	ldr	r5, [sp, #192]	; 0xc0
    2c4e:	4628      	mov	r0, r5
    2c50:	302d      	adds	r0, #45	; 0x2d
    2c52:	4601      	mov	r1, r0
    2c54:	9c2e      	ldr	r4, [sp, #184]	; 0xb8
    2c56:	4021      	ands	r1, r4
    2c58:	0109      	lsls	r1, r1, #4
    2c5a:	2274      	movs	r2, #116	; 0x74
    2c5c:	4311      	orrs	r1, r2
    2c5e:	9b2f      	ldr	r3, [sp, #188]	; 0xbc
    2c60:	4299      	cmp	r1, r3
    2c62:	d300      	bcc.n	2c66 <_ZN14blink_nrf518224main17h5d64dfdd3a94922fE+0x1ed6>
    2c64:	e22c      	b.n	30c0 <_ZN14blink_nrf518224main17h5d64dfdd3a94922fE+0x2330>
    2c66:	5c7b      	ldrb	r3, [r7, r1]
    2c68:	9326      	str	r3, [sp, #152]	; 0x98
    2c6a:	9e31      	ldr	r6, [sp, #196]	; 0xc4
    2c6c:	4030      	ands	r0, r6
    2c6e:	9b2d      	ldr	r3, [sp, #180]	; 0xb4
    2c70:	4083      	lsls	r3, r0
    2c72:	9826      	ldr	r0, [sp, #152]	; 0x98
    2c74:	4303      	orrs	r3, r0
    2c76:	547b      	strb	r3, [r7, r1]
    2c78:	9832      	ldr	r0, [sp, #200]	; 0xc8
    2c7a:	992b      	ldr	r1, [sp, #172]	; 0xac
    2c7c:	5478      	strb	r0, [r7, r1]
    2c7e:	48ea      	ldr	r0, [pc, #936]	; (3028 <_ZN14blink_nrf518224main17h5d64dfdd3a94922fE+0x2298>)
    2c80:	543e      	strb	r6, [r7, r0]
    2c82:	202d      	movs	r0, #45	; 0x2d
    2c84:	1b40      	subs	r0, r0, r5
    2c86:	4601      	mov	r1, r0
    2c88:	4021      	ands	r1, r4
    2c8a:	0109      	lsls	r1, r1, #4
    2c8c:	4311      	orrs	r1, r2
    2c8e:	9b2f      	ldr	r3, [sp, #188]	; 0xbc
    2c90:	4299      	cmp	r1, r3
    2c92:	9c1f      	ldr	r4, [sp, #124]	; 0x7c
    2c94:	d300      	bcc.n	2c98 <_ZN14blink_nrf518224main17h5d64dfdd3a94922fE+0x1f08>
    2c96:	e213      	b.n	30c0 <_ZN14blink_nrf518224main17h5d64dfdd3a94922fE+0x2330>
    2c98:	9226      	str	r2, [sp, #152]	; 0x98
    2c9a:	5c7a      	ldrb	r2, [r7, r1]
    2c9c:	4030      	ands	r0, r6
    2c9e:	9b2d      	ldr	r3, [sp, #180]	; 0xb4
    2ca0:	4083      	lsls	r3, r0
    2ca2:	4313      	orrs	r3, r2
    2ca4:	547b      	strb	r3, [r7, r1]
    2ca6:	9d32      	ldr	r5, [sp, #200]	; 0xc8
    2ca8:	982b      	ldr	r0, [sp, #172]	; 0xac
    2caa:	543d      	strb	r5, [r7, r0]
    2cac:	48de      	ldr	r0, [pc, #888]	; (3028 <_ZN14blink_nrf518224main17h5d64dfdd3a94922fE+0x2298>)
    2cae:	543e      	strb	r6, [r7, r0]
    2cb0:	f7fd faea 	bl	288 <_ZN14blink_nrf518227display14update_display17h4431b73682dcb2eaE>
    2cb4:	2064      	movs	r0, #100	; 0x64
    2cb6:	4629      	mov	r1, r5
    2cb8:	f000 fcc8 	bl	364c <_ZN4zinc3hal8nrf518228sleep_us17h401a33623f589258E>
    2cbc:	9d29      	ldr	r5, [sp, #164]	; 0xa4
    2cbe:	b2e8      	uxtb	r0, r5
    2cc0:	1c69      	adds	r1, r5, #1
    2cc2:	2805      	cmp	r0, #5
    2cc4:	9b2d      	ldr	r3, [sp, #180]	; 0xb4
    2cc6:	d300      	bcc.n	2cca <_ZN14blink_nrf518224main17h5d64dfdd3a94922fE+0x1f3a>
    2cc8:	4629      	mov	r1, r5
    2cca:	2805      	cmp	r0, #5
    2ccc:	9129      	str	r1, [sp, #164]	; 0xa4
    2cce:	9e31      	ldr	r6, [sp, #196]	; 0xc4
    2cd0:	4621      	mov	r1, r4
    2cd2:	d200      	bcs.n	2cd6 <_ZN14blink_nrf518224main17h5d64dfdd3a94922fE+0x1f46>
    2cd4:	e75e      	b.n	2b94 <_ZN14blink_nrf518224main17h5d64dfdd3a94922fE+0x1e04>
    2cd6:	9802      	ldr	r0, [sp, #8]
    2cd8:	0200      	lsls	r0, r0, #8
    2cda:	9030      	str	r0, [sp, #192]	; 0xc0
    2cdc:	0258      	lsls	r0, r3, #9
    2cde:	9025      	str	r0, [sp, #148]	; 0x94
    2ce0:	9832      	ldr	r0, [sp, #200]	; 0xc8
    2ce2:	932d      	str	r3, [sp, #180]	; 0xb4
    2ce4:	4601      	mov	r1, r0
    2ce6:	310b      	adds	r1, #11
    2ce8:	b2ca      	uxtb	r2, r1
    2cea:	4611      	mov	r1, r2
    2cec:	9c25      	ldr	r4, [sp, #148]	; 0x94
    2cee:	4321      	orrs	r1, r4
    2cf0:	5c7b      	ldrb	r3, [r7, r1]
    2cf2:	9d27      	ldr	r5, [sp, #156]	; 0x9c
    2cf4:	432b      	orrs	r3, r5
    2cf6:	547b      	strb	r3, [r7, r1]
    2cf8:	992b      	ldr	r1, [sp, #172]	; 0xac
    2cfa:	9b32      	ldr	r3, [sp, #200]	; 0xc8
    2cfc:	547b      	strb	r3, [r7, r1]
    2cfe:	4dca      	ldr	r5, [pc, #808]	; (3028 <_ZN14blink_nrf518224main17h5d64dfdd3a94922fE+0x2298>)
    2d00:	557e      	strb	r6, [r7, r5]
    2d02:	9b28      	ldr	r3, [sp, #160]	; 0xa0
    2d04:	1a1b      	subs	r3, r3, r0
    2d06:	b2db      	uxtb	r3, r3
    2d08:	461e      	mov	r6, r3
    2d0a:	4326      	orrs	r6, r4
    2d0c:	4cc7      	ldr	r4, [pc, #796]	; (302c <_ZN14blink_nrf518224main17h5d64dfdd3a94922fE+0x229c>)
    2d0e:	5da7      	ldrb	r7, [r4, r6]
    2d10:	9c27      	ldr	r4, [sp, #156]	; 0x9c
    2d12:	4327      	orrs	r7, r4
    2d14:	4cc5      	ldr	r4, [pc, #788]	; (302c <_ZN14blink_nrf518224main17h5d64dfdd3a94922fE+0x229c>)
    2d16:	55a7      	strb	r7, [r4, r6]
    2d18:	4fc4      	ldr	r7, [pc, #784]	; (302c <_ZN14blink_nrf518224main17h5d64dfdd3a94922fE+0x229c>)
    2d1a:	9c32      	ldr	r4, [sp, #200]	; 0xc8
    2d1c:	547c      	strb	r4, [r7, r1]
    2d1e:	9c31      	ldr	r4, [sp, #196]	; 0xc4
    2d20:	557c      	strb	r4, [r7, r5]
    2d22:	9c30      	ldr	r4, [sp, #192]	; 0xc0
    2d24:	4322      	orrs	r2, r4
    2d26:	5cbe      	ldrb	r6, [r7, r2]
    2d28:	9c24      	ldr	r4, [sp, #144]	; 0x90
    2d2a:	4326      	orrs	r6, r4
    2d2c:	54be      	strb	r6, [r7, r2]
    2d2e:	9a32      	ldr	r2, [sp, #200]	; 0xc8
    2d30:	547a      	strb	r2, [r7, r1]
    2d32:	9a31      	ldr	r2, [sp, #196]	; 0xc4
    2d34:	557a      	strb	r2, [r7, r5]
    2d36:	9e30      	ldr	r6, [sp, #192]	; 0xc0
    2d38:	4333      	orrs	r3, r6
    2d3a:	5cfa      	ldrb	r2, [r7, r3]
    2d3c:	9c24      	ldr	r4, [sp, #144]	; 0x90
    2d3e:	4322      	orrs	r2, r4
    2d40:	54fa      	strb	r2, [r7, r3]
    2d42:	9a32      	ldr	r2, [sp, #200]	; 0xc8
    2d44:	547a      	strb	r2, [r7, r1]
    2d46:	9c31      	ldr	r4, [sp, #196]	; 0xc4
    2d48:	557c      	strb	r4, [r7, r5]
    2d4a:	9a26      	ldr	r2, [sp, #152]	; 0x98
    2d4c:	1a12      	subs	r2, r2, r0
    2d4e:	9229      	str	r2, [sp, #164]	; 0xa4
    2d50:	300c      	adds	r0, #12
    2d52:	b2c0      	uxtb	r0, r0
    2d54:	4330      	orrs	r0, r6
    2d56:	4632      	mov	r2, r6
    2d58:	5c3b      	ldrb	r3, [r7, r0]
    2d5a:	9e2a      	ldr	r6, [sp, #168]	; 0xa8
    2d5c:	4333      	orrs	r3, r6
    2d5e:	543b      	strb	r3, [r7, r0]
    2d60:	9832      	ldr	r0, [sp, #200]	; 0xc8
    2d62:	5478      	strb	r0, [r7, r1]
    2d64:	557c      	strb	r4, [r7, r5]
    2d66:	9829      	ldr	r0, [sp, #164]	; 0xa4
    2d68:	b2c0      	uxtb	r0, r0
    2d6a:	4310      	orrs	r0, r2
    2d6c:	5c3a      	ldrb	r2, [r7, r0]
    2d6e:	4332      	orrs	r2, r6
    2d70:	4626      	mov	r6, r4
    2d72:	9b32      	ldr	r3, [sp, #200]	; 0xc8
    2d74:	543a      	strb	r2, [r7, r0]
    2d76:	547b      	strb	r3, [r7, r1]
    2d78:	557e      	strb	r6, [r7, r5]
    2d7a:	461c      	mov	r4, r3
    2d7c:	f7fd fa84 	bl	288 <_ZN14blink_nrf518227display14update_display17h4431b73682dcb2eaE>
    2d80:	2064      	movs	r0, #100	; 0x64
    2d82:	4621      	mov	r1, r4
    2d84:	f000 fc62 	bl	364c <_ZN4zinc3hal8nrf518228sleep_us17h401a33623f589258E>
    2d88:	9a2d      	ldr	r2, [sp, #180]	; 0xb4
    2d8a:	b2d0      	uxtb	r0, r2
    2d8c:	1c51      	adds	r1, r2, #1
    2d8e:	2826      	cmp	r0, #38	; 0x26
    2d90:	d300      	bcc.n	2d94 <_ZN14blink_nrf518224main17h5d64dfdd3a94922fE+0x2004>
    2d92:	4611      	mov	r1, r2
    2d94:	2826      	cmp	r0, #38	; 0x26
    2d96:	4610      	mov	r0, r2
    2d98:	460b      	mov	r3, r1
    2d9a:	d3a2      	bcc.n	2ce2 <_ZN14blink_nrf518224main17h5d64dfdd3a94922fE+0x1f52>
    2d9c:	2101      	movs	r1, #1
    2d9e:	2000      	movs	r0, #0
    2da0:	902d      	str	r0, [sp, #180]	; 0xb4
    2da2:	9c2f      	ldr	r4, [sp, #188]	; 0xbc
    2da4:	9b2e      	ldr	r3, [sp, #184]	; 0xb8
    2da6:	9127      	str	r1, [sp, #156]	; 0x9c
    2da8:	982d      	ldr	r0, [sp, #180]	; 0xb4
    2daa:	3027      	adds	r0, #39	; 0x27
    2dac:	4601      	mov	r1, r0
    2dae:	4019      	ands	r1, r3
    2db0:	010a      	lsls	r2, r1, #4
    2db2:	2331      	movs	r3, #49	; 0x31
    2db4:	922a      	str	r2, [sp, #168]	; 0xa8
    2db6:	431a      	orrs	r2, r3
    2db8:	42a2      	cmp	r2, r4
    2dba:	d300      	bcc.n	2dbe <_ZN14blink_nrf518224main17h5d64dfdd3a94922fE+0x202e>
    2dbc:	e17b      	b.n	30b6 <_ZN14blink_nrf518224main17h5d64dfdd3a94922fE+0x2326>
    2dbe:	5cbc      	ldrb	r4, [r7, r2]
    2dc0:	4030      	ands	r0, r6
    2dc2:	2501      	movs	r5, #1
    2dc4:	4629      	mov	r1, r5
    2dc6:	4081      	lsls	r1, r0
    2dc8:	9128      	str	r1, [sp, #160]	; 0xa0
    2dca:	430c      	orrs	r4, r1
    2dcc:	54bc      	strb	r4, [r7, r2]
    2dce:	952b      	str	r5, [sp, #172]	; 0xac
    2dd0:	02aa      	lsls	r2, r5, #10
    2dd2:	2000      	movs	r0, #0
    2dd4:	9032      	str	r0, [sp, #200]	; 0xc8
    2dd6:	9230      	str	r2, [sp, #192]	; 0xc0
    2dd8:	54b8      	strb	r0, [r7, r2]
    2dda:	48d5      	ldr	r0, [pc, #852]	; (3130 <_ZN14blink_nrf518224main17h5d64dfdd3a94922fE+0x23a0>)
    2ddc:	543e      	strb	r6, [r7, r0]
    2dde:	4635      	mov	r5, r6
    2de0:	992d      	ldr	r1, [sp, #180]	; 0xb4
    2de2:	460e      	mov	r6, r1
    2de4:	3628      	adds	r6, #40	; 0x28
    2de6:	4630      	mov	r0, r6
    2de8:	9c2e      	ldr	r4, [sp, #184]	; 0xb8
    2dea:	4020      	ands	r0, r4
    2dec:	0102      	lsls	r2, r0, #4
    2dee:	2032      	movs	r0, #50	; 0x32
    2df0:	9029      	str	r0, [sp, #164]	; 0xa4
    2df2:	4302      	orrs	r2, r0
    2df4:	982f      	ldr	r0, [sp, #188]	; 0xbc
    2df6:	4282      	cmp	r2, r0
    2df8:	4620      	mov	r0, r4
    2dfa:	d300      	bcc.n	2dfe <_ZN14blink_nrf518224main17h5d64dfdd3a94922fE+0x206e>
    2dfc:	e15b      	b.n	30b6 <_ZN14blink_nrf518224main17h5d64dfdd3a94922fE+0x2326>
    2dfe:	5cbc      	ldrb	r4, [r7, r2]
    2e00:	402e      	ands	r6, r5
    2e02:	9d2b      	ldr	r5, [sp, #172]	; 0xac
    2e04:	40b5      	lsls	r5, r6
    2e06:	4325      	orrs	r5, r4
    2e08:	54bd      	strb	r5, [r7, r2]
    2e0a:	9a32      	ldr	r2, [sp, #200]	; 0xc8
    2e0c:	9c30      	ldr	r4, [sp, #192]	; 0xc0
    2e0e:	553a      	strb	r2, [r7, r4]
    2e10:	4ac7      	ldr	r2, [pc, #796]	; (3130 <_ZN14blink_nrf518224main17h5d64dfdd3a94922fE+0x23a0>)
    2e12:	9e31      	ldr	r6, [sp, #196]	; 0xc4
    2e14:	54be      	strb	r6, [r7, r2]
    2e16:	912d      	str	r1, [sp, #180]	; 0xb4
    2e18:	1a5c      	subs	r4, r3, r1
    2e1a:	4622      	mov	r2, r4
    2e1c:	4002      	ands	r2, r0
    2e1e:	0112      	lsls	r2, r2, #4
    2e20:	4313      	orrs	r3, r2
    2e22:	9d2f      	ldr	r5, [sp, #188]	; 0xbc
    2e24:	42ab      	cmp	r3, r5
    2e26:	d300      	bcc.n	2e2a <_ZN14blink_nrf518224main17h5d64dfdd3a94922fE+0x209a>
    2e28:	e14e      	b.n	30c8 <_ZN14blink_nrf518224main17h5d64dfdd3a94922fE+0x2338>
    2e2a:	5cfd      	ldrb	r5, [r7, r3]
    2e2c:	4034      	ands	r4, r6
    2e2e:	4631      	mov	r1, r6
    2e30:	9e2b      	ldr	r6, [sp, #172]	; 0xac
    2e32:	40a6      	lsls	r6, r4
    2e34:	4335      	orrs	r5, r6
    2e36:	54fd      	strb	r5, [r7, r3]
    2e38:	9b32      	ldr	r3, [sp, #200]	; 0xc8
    2e3a:	9c30      	ldr	r4, [sp, #192]	; 0xc0
    2e3c:	553b      	strb	r3, [r7, r4]
    2e3e:	4bbc      	ldr	r3, [pc, #752]	; (3130 <_ZN14blink_nrf518224main17h5d64dfdd3a94922fE+0x23a0>)
    2e40:	54f9      	strb	r1, [r7, r3]
    2e42:	992d      	ldr	r1, [sp, #180]	; 0xb4
    2e44:	9d29      	ldr	r5, [sp, #164]	; 0xa4
    2e46:	1a6c      	subs	r4, r5, r1
    2e48:	4623      	mov	r3, r4
    2e4a:	4003      	ands	r3, r0
    2e4c:	011b      	lsls	r3, r3, #4
    2e4e:	432b      	orrs	r3, r5
    2e50:	9d2f      	ldr	r5, [sp, #188]	; 0xbc
    2e52:	42ab      	cmp	r3, r5
    2e54:	d300      	bcc.n	2e58 <_ZN14blink_nrf518224main17h5d64dfdd3a94922fE+0x20c8>
    2e56:	e137      	b.n	30c8 <_ZN14blink_nrf518224main17h5d64dfdd3a94922fE+0x2338>
    2e58:	5cf8      	ldrb	r0, [r7, r3]
    2e5a:	9d31      	ldr	r5, [sp, #196]	; 0xc4
    2e5c:	402c      	ands	r4, r5
    2e5e:	992b      	ldr	r1, [sp, #172]	; 0xac
    2e60:	40a1      	lsls	r1, r4
    2e62:	4301      	orrs	r1, r0
    2e64:	54f9      	strb	r1, [r7, r3]
    2e66:	9832      	ldr	r0, [sp, #200]	; 0xc8
    2e68:	9930      	ldr	r1, [sp, #192]	; 0xc0
    2e6a:	5478      	strb	r0, [r7, r1]
    2e6c:	48b0      	ldr	r0, [pc, #704]	; (3130 <_ZN14blink_nrf518224main17h5d64dfdd3a94922fE+0x23a0>)
    2e6e:	543d      	strb	r5, [r7, r0]
    2e70:	204e      	movs	r0, #78	; 0x4e
    2e72:	992a      	ldr	r1, [sp, #168]	; 0xa8
    2e74:	4301      	orrs	r1, r0
    2e76:	9b2f      	ldr	r3, [sp, #188]	; 0xbc
    2e78:	4299      	cmp	r1, r3
    2e7a:	461c      	mov	r4, r3
    2e7c:	d300      	bcc.n	2e80 <_ZN14blink_nrf518224main17h5d64dfdd3a94922fE+0x20f0>
    2e7e:	e144      	b.n	310a <_ZN14blink_nrf518224main17h5d64dfdd3a94922fE+0x237a>
    2e80:	5c7b      	ldrb	r3, [r7, r1]
    2e82:	9d28      	ldr	r5, [sp, #160]	; 0xa0
    2e84:	432b      	orrs	r3, r5
    2e86:	547b      	strb	r3, [r7, r1]
    2e88:	9932      	ldr	r1, [sp, #200]	; 0xc8
    2e8a:	9b30      	ldr	r3, [sp, #192]	; 0xc0
    2e8c:	54f9      	strb	r1, [r7, r3]
    2e8e:	49a8      	ldr	r1, [pc, #672]	; (3130 <_ZN14blink_nrf518224main17h5d64dfdd3a94922fE+0x23a0>)
    2e90:	9b31      	ldr	r3, [sp, #196]	; 0xc4
    2e92:	547b      	strb	r3, [r7, r1]
    2e94:	4302      	orrs	r2, r0
    2e96:	42a2      	cmp	r2, r4
    2e98:	d300      	bcc.n	2e9c <_ZN14blink_nrf518224main17h5d64dfdd3a94922fE+0x210c>
    2e9a:	e13a      	b.n	3112 <_ZN14blink_nrf518224main17h5d64dfdd3a94922fE+0x2382>
    2e9c:	5cb8      	ldrb	r0, [r7, r2]
    2e9e:	4330      	orrs	r0, r6
    2ea0:	54b8      	strb	r0, [r7, r2]
    2ea2:	9e32      	ldr	r6, [sp, #200]	; 0xc8
    2ea4:	9830      	ldr	r0, [sp, #192]	; 0xc0
    2ea6:	543e      	strb	r6, [r7, r0]
    2ea8:	48a1      	ldr	r0, [pc, #644]	; (3130 <_ZN14blink_nrf518224main17h5d64dfdd3a94922fE+0x23a0>)
    2eaa:	9d31      	ldr	r5, [sp, #196]	; 0xc4
    2eac:	543d      	strb	r5, [r7, r0]
    2eae:	f7fd f9eb 	bl	288 <_ZN14blink_nrf518227display14update_display17h4431b73682dcb2eaE>
    2eb2:	2064      	movs	r0, #100	; 0x64
    2eb4:	4631      	mov	r1, r6
    2eb6:	f000 fbc9 	bl	364c <_ZN4zinc3hal8nrf518228sleep_us17h401a33623f589258E>
    2eba:	9a27      	ldr	r2, [sp, #156]	; 0x9c
    2ebc:	b2d0      	uxtb	r0, r2
    2ebe:	1c51      	adds	r1, r2, #1
    2ec0:	2806      	cmp	r0, #6
    2ec2:	462e      	mov	r6, r5
    2ec4:	9b2e      	ldr	r3, [sp, #184]	; 0xb8
    2ec6:	d300      	bcc.n	2eca <_ZN14blink_nrf518224main17h5d64dfdd3a94922fE+0x213a>
    2ec8:	4611      	mov	r1, r2
    2eca:	2806      	cmp	r0, #6
    2ecc:	922d      	str	r2, [sp, #180]	; 0xb4
    2ece:	d200      	bcs.n	2ed2 <_ZN14blink_nrf518224main17h5d64dfdd3a94922fE+0x2142>
    2ed0:	e769      	b.n	2da6 <_ZN14blink_nrf518224main17h5d64dfdd3a94922fE+0x2016>
    2ed2:	489d      	ldr	r0, [pc, #628]	; (3148 <_ZN14blink_nrf518224main17h5d64dfdd3a94922fE+0x23b8>)
    2ed4:	2100      	movs	r1, #0
    2ed6:	460d      	mov	r5, r1
    2ed8:	9530      	str	r5, [sp, #192]	; 0xc0
    2eda:	f000 fbb7 	bl	364c <_ZN4zinc3hal8nrf518228sleep_us17h401a33623f589258E>
    2ede:	489b      	ldr	r0, [pc, #620]	; (314c <_ZN14blink_nrf518224main17h5d64dfdd3a94922fE+0x23bc>)
    2ee0:	6881      	ldr	r1, [r0, #8]
    2ee2:	913b      	str	r1, [sp, #236]	; 0xec
    2ee4:	460e      	mov	r6, r1
    2ee6:	6841      	ldr	r1, [r0, #4]
    2ee8:	9131      	str	r1, [sp, #196]	; 0xc4
    2eea:	913a      	str	r1, [sp, #232]	; 0xe8
    2eec:	6800      	ldr	r0, [r0, #0]
    2eee:	902f      	str	r0, [sp, #188]	; 0xbc
    2ef0:	9039      	str	r0, [sp, #228]	; 0xe4
    2ef2:	a839      	add	r0, sp, #228	; 0xe4
    2ef4:	2404      	movs	r4, #4
    2ef6:	2240      	movs	r2, #64	; 0x40
    2ef8:	4607      	mov	r7, r0
    2efa:	972e      	str	r7, [sp, #184]	; 0xb8
    2efc:	4621      	mov	r1, r4
    2efe:	f7fd fb6f 	bl	5e0 <_ZN14blink_nrf518227display4draw17haa5976ca818aacebE>
    2f02:	f7fd f9c1 	bl	288 <_ZN14blink_nrf518227display14update_display17h4431b73682dcb2eaE>
    2f06:	9816      	ldr	r0, [sp, #88]	; 0x58
    2f08:	4629      	mov	r1, r5
    2f0a:	f000 fb9f 	bl	364c <_ZN4zinc3hal8nrf518228sleep_us17h401a33623f589258E>
    2f0e:	4635      	mov	r5, r6
    2f10:	9532      	str	r5, [sp, #200]	; 0xc8
    2f12:	953b      	str	r5, [sp, #236]	; 0xec
    2f14:	9e31      	ldr	r6, [sp, #196]	; 0xc4
    2f16:	963a      	str	r6, [sp, #232]	; 0xe8
    2f18:	982f      	ldr	r0, [sp, #188]	; 0xbc
    2f1a:	9039      	str	r0, [sp, #228]	; 0xe4
    2f1c:	223f      	movs	r2, #63	; 0x3f
    2f1e:	4638      	mov	r0, r7
    2f20:	4621      	mov	r1, r4
    2f22:	f7fd fb5d 	bl	5e0 <_ZN14blink_nrf518227display4draw17haa5976ca818aacebE>
    2f26:	f7fd f9af 	bl	288 <_ZN14blink_nrf518227display14update_display17h4431b73682dcb2eaE>
    2f2a:	9f16      	ldr	r7, [sp, #88]	; 0x58
    2f2c:	4638      	mov	r0, r7
    2f2e:	9930      	ldr	r1, [sp, #192]	; 0xc0
    2f30:	f000 fb8c 	bl	364c <_ZN4zinc3hal8nrf518228sleep_us17h401a33623f589258E>
    2f34:	953b      	str	r5, [sp, #236]	; 0xec
    2f36:	963a      	str	r6, [sp, #232]	; 0xe8
    2f38:	4635      	mov	r5, r6
    2f3a:	982f      	ldr	r0, [sp, #188]	; 0xbc
    2f3c:	9039      	str	r0, [sp, #228]	; 0xe4
    2f3e:	223e      	movs	r2, #62	; 0x3e
    2f40:	9e2e      	ldr	r6, [sp, #184]	; 0xb8
    2f42:	4630      	mov	r0, r6
    2f44:	4621      	mov	r1, r4
    2f46:	f7fd fb4b 	bl	5e0 <_ZN14blink_nrf518227display4draw17haa5976ca818aacebE>
    2f4a:	f7fd f99d 	bl	288 <_ZN14blink_nrf518227display14update_display17h4431b73682dcb2eaE>
    2f4e:	4638      	mov	r0, r7
    2f50:	9f30      	ldr	r7, [sp, #192]	; 0xc0
    2f52:	4639      	mov	r1, r7
    2f54:	f000 fb7a 	bl	364c <_ZN4zinc3hal8nrf518228sleep_us17h401a33623f589258E>
    2f58:	9832      	ldr	r0, [sp, #200]	; 0xc8
    2f5a:	903b      	str	r0, [sp, #236]	; 0xec
    2f5c:	953a      	str	r5, [sp, #232]	; 0xe8
    2f5e:	9d2f      	ldr	r5, [sp, #188]	; 0xbc
    2f60:	9539      	str	r5, [sp, #228]	; 0xe4
    2f62:	223d      	movs	r2, #61	; 0x3d
    2f64:	4630      	mov	r0, r6
    2f66:	4621      	mov	r1, r4
    2f68:	f7fd fb3a 	bl	5e0 <_ZN14blink_nrf518227display4draw17haa5976ca818aacebE>
    2f6c:	f7fd f98c 	bl	288 <_ZN14blink_nrf518227display14update_display17h4431b73682dcb2eaE>
    2f70:	9816      	ldr	r0, [sp, #88]	; 0x58
    2f72:	4639      	mov	r1, r7
    2f74:	463e      	mov	r6, r7
    2f76:	f000 fb69 	bl	364c <_ZN4zinc3hal8nrf518228sleep_us17h401a33623f589258E>
    2f7a:	9f32      	ldr	r7, [sp, #200]	; 0xc8
    2f7c:	973b      	str	r7, [sp, #236]	; 0xec
    2f7e:	9831      	ldr	r0, [sp, #196]	; 0xc4
    2f80:	903a      	str	r0, [sp, #232]	; 0xe8
    2f82:	9539      	str	r5, [sp, #228]	; 0xe4
    2f84:	223c      	movs	r2, #60	; 0x3c
    2f86:	9d2e      	ldr	r5, [sp, #184]	; 0xb8
    2f88:	4628      	mov	r0, r5
    2f8a:	4621      	mov	r1, r4
    2f8c:	f7fd fb28 	bl	5e0 <_ZN14blink_nrf518227display4draw17haa5976ca818aacebE>
    2f90:	f7fd f97a 	bl	288 <_ZN14blink_nrf518227display14update_display17h4431b73682dcb2eaE>
    2f94:	9816      	ldr	r0, [sp, #88]	; 0x58
    2f96:	4631      	mov	r1, r6
    2f98:	f000 fb58 	bl	364c <_ZN4zinc3hal8nrf518228sleep_us17h401a33623f589258E>
    2f9c:	973b      	str	r7, [sp, #236]	; 0xec
    2f9e:	9831      	ldr	r0, [sp, #196]	; 0xc4
    2fa0:	903a      	str	r0, [sp, #232]	; 0xe8
    2fa2:	9e2f      	ldr	r6, [sp, #188]	; 0xbc
    2fa4:	9639      	str	r6, [sp, #228]	; 0xe4
    2fa6:	223b      	movs	r2, #59	; 0x3b
    2fa8:	4628      	mov	r0, r5
    2faa:	4621      	mov	r1, r4
    2fac:	f7fd fb18 	bl	5e0 <_ZN14blink_nrf518227display4draw17haa5976ca818aacebE>
    2fb0:	f7fd f96a 	bl	288 <_ZN14blink_nrf518227display14update_display17h4431b73682dcb2eaE>
    2fb4:	9f16      	ldr	r7, [sp, #88]	; 0x58
    2fb6:	4638      	mov	r0, r7
    2fb8:	9930      	ldr	r1, [sp, #192]	; 0xc0
    2fba:	f000 fb47 	bl	364c <_ZN4zinc3hal8nrf518228sleep_us17h401a33623f589258E>
    2fbe:	9832      	ldr	r0, [sp, #200]	; 0xc8
    2fc0:	903b      	str	r0, [sp, #236]	; 0xec
    2fc2:	9831      	ldr	r0, [sp, #196]	; 0xc4
    2fc4:	903a      	str	r0, [sp, #232]	; 0xe8
    2fc6:	9639      	str	r6, [sp, #228]	; 0xe4
    2fc8:	223a      	movs	r2, #58	; 0x3a
    2fca:	4628      	mov	r0, r5
    2fcc:	4621      	mov	r1, r4
    2fce:	f7fd fb07 	bl	5e0 <_ZN14blink_nrf518227display4draw17haa5976ca818aacebE>
    2fd2:	f7fd f959 	bl	288 <_ZN14blink_nrf518227display14update_display17h4431b73682dcb2eaE>
    2fd6:	4638      	mov	r0, r7
    2fd8:	9f30      	ldr	r7, [sp, #192]	; 0xc0
    2fda:	4639      	mov	r1, r7
    2fdc:	f000 fb36 	bl	364c <_ZN4zinc3hal8nrf518228sleep_us17h401a33623f589258E>
    2fe0:	9832      	ldr	r0, [sp, #200]	; 0xc8
    2fe2:	903b      	str	r0, [sp, #236]	; 0xec
    2fe4:	9e31      	ldr	r6, [sp, #196]	; 0xc4
    2fe6:	963a      	str	r6, [sp, #232]	; 0xe8
    2fe8:	9d2f      	ldr	r5, [sp, #188]	; 0xbc
    2fea:	9539      	str	r5, [sp, #228]	; 0xe4
    2fec:	2239      	movs	r2, #57	; 0x39
    2fee:	982e      	ldr	r0, [sp, #184]	; 0xb8
    2ff0:	4621      	mov	r1, r4
    2ff2:	f7fd faf5 	bl	5e0 <_ZN14blink_nrf518227display4draw17haa5976ca818aacebE>
    2ff6:	f7fd f947 	bl	288 <_ZN14blink_nrf518227display14update_display17h4431b73682dcb2eaE>
    2ffa:	9816      	ldr	r0, [sp, #88]	; 0x58
    2ffc:	4639      	mov	r1, r7
    2ffe:	f000 fb25 	bl	364c <_ZN4zinc3hal8nrf518228sleep_us17h401a33623f589258E>
    3002:	9832      	ldr	r0, [sp, #200]	; 0xc8
    3004:	903b      	str	r0, [sp, #236]	; 0xec
    3006:	4630      	mov	r0, r6
    3008:	4607      	mov	r7, r0
    300a:	903a      	str	r0, [sp, #232]	; 0xe8
    300c:	4628      	mov	r0, r5
    300e:	4606      	mov	r6, r0
    3010:	9039      	str	r0, [sp, #228]	; 0xe4
    3012:	2238      	movs	r2, #56	; 0x38
    3014:	982e      	ldr	r0, [sp, #184]	; 0xb8
    3016:	4621      	mov	r1, r4
    3018:	f7fd fae2 	bl	5e0 <_ZN14blink_nrf518227display4draw17haa5976ca818aacebE>
    301c:	f7fd f934 	bl	288 <_ZN14blink_nrf518227display14update_display17h4431b73682dcb2eaE>
    3020:	9816      	ldr	r0, [sp, #88]	; 0x58
    3022:	9930      	ldr	r1, [sp, #192]	; 0xc0
    3024:	e018      	b.n	3058 <_ZN14blink_nrf518224main17h5d64dfdd3a94922fE+0x22c8>
    3026:	46c0      	nop			; (mov r8, r8)
    3028:	00000401 	.word	0x00000401
    302c:	2000001c 	.word	0x2000001c
    3030:	a839      	add	r0, sp, #228	; 0xe4
    3032:	2538      	movs	r5, #56	; 0x38
    3034:	4621      	mov	r1, r4
    3036:	462a      	mov	r2, r5
    3038:	f7fd fad2 	bl	5e0 <_ZN14blink_nrf518227display4draw17haa5976ca818aacebE>
    303c:	9832      	ldr	r0, [sp, #200]	; 0xc8
    303e:	903b      	str	r0, [sp, #236]	; 0xec
    3040:	973a      	str	r7, [sp, #232]	; 0xe8
    3042:	9639      	str	r6, [sp, #228]	; 0xe4
    3044:	4621      	mov	r1, r4
    3046:	318c      	adds	r1, #140	; 0x8c
    3048:	a839      	add	r0, sp, #228	; 0xe4
    304a:	462a      	mov	r2, r5
    304c:	f7fd fac8 	bl	5e0 <_ZN14blink_nrf518227display4draw17haa5976ca818aacebE>
    3050:	f7fd f91a 	bl	288 <_ZN14blink_nrf518227display14update_display17h4431b73682dcb2eaE>
    3054:	2100      	movs	r1, #0
    3056:	9817      	ldr	r0, [sp, #92]	; 0x5c
    3058:	f000 faf8 	bl	364c <_ZN4zinc3hal8nrf518228sleep_us17h401a33623f589258E>
    305c:	a839      	add	r0, sp, #228	; 0xe4
    305e:	991d      	ldr	r1, [sp, #116]	; 0x74
    3060:	7001      	strb	r1, [r0, #0]
    3062:	f000 f9d3 	bl	340c <_ZN70_$LT$zinc..hal..nrf51822..pin..Pin$u20$as$u20$zinc..hal..pin..Gpio$GT$5level17hd366ba0616e528fcE>
    3066:	9d23      	ldr	r5, [sp, #140]	; 0x8c
    3068:	4228      	tst	r0, r5
    306a:	d013      	beq.n	3094 <_ZN14blink_nrf518224main17h5d64dfdd3a94922fE+0x2304>
    306c:	a855      	add	r0, sp, #340	; 0x154
    306e:	991c      	ldr	r1, [sp, #112]	; 0x70
    3070:	7001      	strb	r1, [r0, #0]
    3072:	f000 f9cb 	bl	340c <_ZN70_$LT$zinc..hal..nrf51822..pin..Pin$u20$as$u20$zinc..hal..pin..Gpio$GT$5level17hd366ba0616e528fcE>
    3076:	4228      	tst	r0, r5
    3078:	d00c      	beq.n	3094 <_ZN14blink_nrf518224main17h5d64dfdd3a94922fE+0x2304>
    307a:	9832      	ldr	r0, [sp, #200]	; 0xc8
    307c:	903b      	str	r0, [sp, #236]	; 0xec
    307e:	973a      	str	r7, [sp, #232]	; 0xe8
    3080:	9639      	str	r6, [sp, #228]	; 0xe4
    3082:	982c      	ldr	r0, [sp, #176]	; 0xb0
    3084:	1820      	adds	r0, r4, r0
    3086:	b2a1      	uxth	r1, r4
    3088:	348b      	adds	r4, #139	; 0x8b
    308a:	4a31      	ldr	r2, [pc, #196]	; (3150 <_ZN14blink_nrf518224main17h5d64dfdd3a94922fE+0x23c0>)
    308c:	4291      	cmp	r1, r2
    308e:	d0cf      	beq.n	3030 <_ZN14blink_nrf518224main17h5d64dfdd3a94922fE+0x22a0>
    3090:	4604      	mov	r4, r0
    3092:	e7cd      	b.n	3030 <_ZN14blink_nrf518224main17h5d64dfdd3a94922fE+0x22a0>
    3094:	b05b      	add	sp, #364	; 0x16c
    3096:	bdf0      	pop	{r4, r5, r6, r7, pc}
    3098:	4828      	ldr	r0, [pc, #160]	; (313c <_ZN14blink_nrf518224main17h5d64dfdd3a94922fE+0x23ac>)
    309a:	f000 fb3f 	bl	371c <_ZN4core9panicking5panic17hf227f8d5d60b7e39E>
    309e:	4826      	ldr	r0, [pc, #152]	; (3138 <_ZN14blink_nrf518224main17h5d64dfdd3a94922fE+0x23a8>)
    30a0:	f000 fb3c 	bl	371c <_ZN4core9panicking5panic17hf227f8d5d60b7e39E>
    30a4:	4823      	ldr	r0, [pc, #140]	; (3134 <_ZN14blink_nrf518224main17h5d64dfdd3a94922fE+0x23a4>)
    30a6:	220a      	movs	r2, #10
    30a8:	4631      	mov	r1, r6
    30aa:	f000 fb4f 	bl	374c <_ZN4core9panicking18panic_bounds_check17h613d9849b01f883fE>
    30ae:	4824      	ldr	r0, [pc, #144]	; (3140 <_ZN14blink_nrf518224main17h5d64dfdd3a94922fE+0x23b0>)
    30b0:	220a      	movs	r2, #10
    30b2:	f000 fb4b 	bl	374c <_ZN4core9panicking18panic_bounds_check17h613d9849b01f883fE>
    30b6:	4823      	ldr	r0, [pc, #140]	; (3144 <_ZN14blink_nrf518224main17h5d64dfdd3a94922fE+0x23b4>)
    30b8:	4611      	mov	r1, r2
    30ba:	9a2f      	ldr	r2, [sp, #188]	; 0xbc
    30bc:	f000 fb46 	bl	374c <_ZN4core9panicking18panic_bounds_check17h613d9849b01f883fE>
    30c0:	4820      	ldr	r0, [pc, #128]	; (3144 <_ZN14blink_nrf518224main17h5d64dfdd3a94922fE+0x23b4>)
    30c2:	9a2f      	ldr	r2, [sp, #188]	; 0xbc
    30c4:	f000 fb42 	bl	374c <_ZN4core9panicking18panic_bounds_check17h613d9849b01f883fE>
    30c8:	481e      	ldr	r0, [pc, #120]	; (3144 <_ZN14blink_nrf518224main17h5d64dfdd3a94922fE+0x23b4>)
    30ca:	4619      	mov	r1, r3
    30cc:	9a2f      	ldr	r2, [sp, #188]	; 0xbc
    30ce:	f000 fb3d 	bl	374c <_ZN4core9panicking18panic_bounds_check17h613d9849b01f883fE>
    30d2:	4823      	ldr	r0, [pc, #140]	; (3160 <_ZN14blink_nrf518224main17h5d64dfdd3a94922fE+0x23d0>)
    30d4:	f000 fb22 	bl	371c <_ZN4core9panicking5panic17hf227f8d5d60b7e39E>
    30d8:	4820      	ldr	r0, [pc, #128]	; (315c <_ZN14blink_nrf518224main17h5d64dfdd3a94922fE+0x23cc>)
    30da:	f000 fb1f 	bl	371c <_ZN4core9panicking5panic17hf227f8d5d60b7e39E>
    30de:	481e      	ldr	r0, [pc, #120]	; (3158 <_ZN14blink_nrf518224main17h5d64dfdd3a94922fE+0x23c8>)
    30e0:	f000 fb1c 	bl	371c <_ZN4core9panicking5panic17hf227f8d5d60b7e39E>
    30e4:	481b      	ldr	r0, [pc, #108]	; (3154 <_ZN14blink_nrf518224main17h5d64dfdd3a94922fE+0x23c4>)
    30e6:	220a      	movs	r2, #10
    30e8:	f000 fb30 	bl	374c <_ZN4core9panicking18panic_bounds_check17h613d9849b01f883fE>
    30ec:	4815      	ldr	r0, [pc, #84]	; (3144 <_ZN14blink_nrf518224main17h5d64dfdd3a94922fE+0x23b4>)
    30ee:	4631      	mov	r1, r6
    30f0:	9a2f      	ldr	r2, [sp, #188]	; 0xbc
    30f2:	f000 fb2b 	bl	374c <_ZN4core9panicking18panic_bounds_check17h613d9849b01f883fE>
    30f6:	4813      	ldr	r0, [pc, #76]	; (3144 <_ZN14blink_nrf518224main17h5d64dfdd3a94922fE+0x23b4>)
    30f8:	4611      	mov	r1, r2
    30fa:	462a      	mov	r2, r5
    30fc:	f000 fb26 	bl	374c <_ZN4core9panicking18panic_bounds_check17h613d9849b01f883fE>
    3100:	4810      	ldr	r0, [pc, #64]	; (3144 <_ZN14blink_nrf518224main17h5d64dfdd3a94922fE+0x23b4>)
    3102:	4621      	mov	r1, r4
    3104:	9a2f      	ldr	r2, [sp, #188]	; 0xbc
    3106:	f000 fb21 	bl	374c <_ZN4core9panicking18panic_bounds_check17h613d9849b01f883fE>
    310a:	480e      	ldr	r0, [pc, #56]	; (3144 <_ZN14blink_nrf518224main17h5d64dfdd3a94922fE+0x23b4>)
    310c:	4622      	mov	r2, r4
    310e:	f000 fb1d 	bl	374c <_ZN4core9panicking18panic_bounds_check17h613d9849b01f883fE>
    3112:	480c      	ldr	r0, [pc, #48]	; (3144 <_ZN14blink_nrf518224main17h5d64dfdd3a94922fE+0x23b4>)
    3114:	4611      	mov	r1, r2
    3116:	4622      	mov	r2, r4
    3118:	f000 fb18 	bl	374c <_ZN4core9panicking18panic_bounds_check17h613d9849b01f883fE>
    311c:	4611      	mov	r1, r2
    311e:	f000 fb69 	bl	37f4 <_ZN4core5slice22slice_index_order_fail17h645d2e1a34e44416E>
    3122:	4610      	mov	r0, r2
    3124:	992f      	ldr	r1, [sp, #188]	; 0xbc
    3126:	f000 fb47 	bl	37b8 <_ZN4core5slice20slice_index_len_fail17hd87e5524007fa8c3E>
    312a:	4618      	mov	r0, r3
    312c:	f000 fb44 	bl	37b8 <_ZN4core5slice20slice_index_len_fail17hd87e5524007fa8c3E>
    3130:	00000401 	.word	0x00000401
    3134:	00006624 	.word	0x00006624
    3138:	00006610 	.word	0x00006610
    313c:	000065fc 	.word	0x000065fc
    3140:	000065f0 	.word	0x000065f0
    3144:	00006480 	.word	0x00006480
    3148:	000f4240 	.word	0x000f4240
    314c:	0000c8b4 	.word	0x0000c8b4
    3150:	0000ff75 	.word	0x0000ff75
    3154:	000065e4 	.word	0x000065e4
    3158:	000064e0 	.word	0x000064e0
    315c:	000064cc 	.word	0x000064cc
    3160:	00008fcc 	.word	0x00008fcc

00003164 <main>:
    3164:	b580      	push	{r7, lr}
    3166:	f7fd fe13 	bl	d90 <_ZN14blink_nrf518224main17h5d64dfdd3a94922fE>
    316a:	2000      	movs	r0, #0
    316c:	bd80      	pop	{r7, pc}
    316e:	Address 0x000000000000316e is out of bounds.


00003170 <_ZN80_$LT$zinc..hal..nrf51822..uart..UartConfig$u20$as$u20$core..default..Default$GT$7default17hd7d2f48eca35a8cbE>:
    3170:	2118      	movs	r1, #24
    3172:	7001      	strb	r1, [r0, #0]
    3174:	2119      	movs	r1, #25
    3176:	7041      	strb	r1, [r0, #1]
    3178:	211a      	movs	r1, #26
    317a:	7081      	strb	r1, [r0, #2]
    317c:	211b      	movs	r1, #27
    317e:	70c1      	strb	r1, [r0, #3]
    3180:	4902      	ldr	r1, [pc, #8]	; (318c <_ZN80_$LT$zinc..hal..nrf51822..uart..UartConfig$u20$as$u20$core..default..Default$GT$7default17hd7d2f48eca35a8cbE+0x1c>)
    3182:	6041      	str	r1, [r0, #4]
    3184:	2100      	movs	r1, #0
    3186:	8101      	strh	r1, [r0, #8]
    3188:	4770      	bx	lr
    318a:	46c0      	nop			; (mov r8, r8)
    318c:	00275000 	.word	0x00275000

00003190 <_ZN4zinc3hal8nrf518224uart4Uart9configure17h17493f121eb501fbE>:
    3190:	b5f0      	push	{r4, r5, r6, r7, lr}
    3192:	b085      	sub	sp, #20
    3194:	20ff      	movs	r0, #255	; 0xff
    3196:	0200      	lsls	r0, r0, #8
    3198:	680a      	ldr	r2, [r1, #0]
    319a:	4010      	ands	r0, r2
    319c:	0a04      	lsrs	r4, r0, #8
    319e:	0e10      	lsrs	r0, r2, #24
    31a0:	9004      	str	r0, [sp, #16]
    31a2:	0c10      	lsrs	r0, r2, #16
    31a4:	9003      	str	r0, [sp, #12]
    31a6:	b2d2      	uxtb	r2, r2
    31a8:	2a20      	cmp	r2, #32
    31aa:	d25b      	bcs.n	3264 <_ZN4zinc3hal8nrf518224uart4Uart9configure17h17493f121eb501fbE+0xd4>
    31ac:	6848      	ldr	r0, [r1, #4]
    31ae:	9002      	str	r0, [sp, #8]
    31b0:	0091      	lsls	r1, r2, #2
    31b2:	4d2e      	ldr	r5, [pc, #184]	; (326c <_ZN4zinc3hal8nrf518224uart4Uart9configure17h17493f121eb501fbE+0xdc>)
    31b4:	594e      	ldr	r6, [r1, r5]
    31b6:	4f2e      	ldr	r7, [pc, #184]	; (3270 <_ZN4zinc3hal8nrf518224uart4Uart9configure17h17493f121eb501fbE+0xe0>)
    31b8:	403e      	ands	r6, r7
    31ba:	482e      	ldr	r0, [pc, #184]	; (3274 <_ZN4zinc3hal8nrf518224uart4Uart9configure17h17493f121eb501fbE+0xe4>)
    31bc:	4603      	mov	r3, r0
    31be:	3309      	adds	r3, #9
    31c0:	4333      	orrs	r3, r6
    31c2:	514b      	str	r3, [r1, r5]
    31c4:	2c20      	cmp	r4, #32
    31c6:	d24d      	bcs.n	3264 <_ZN4zinc3hal8nrf518224uart4Uart9configure17h17493f121eb501fbE+0xd4>
    31c8:	9401      	str	r4, [sp, #4]
    31ca:	00a1      	lsls	r1, r4, #2
    31cc:	586b      	ldr	r3, [r5, r1]
    31ce:	403b      	ands	r3, r7
    31d0:	4606      	mov	r6, r0
    31d2:	3608      	adds	r6, #8
    31d4:	431e      	orrs	r6, r3
    31d6:	506e      	str	r6, [r5, r1]
    31d8:	9904      	ldr	r1, [sp, #16]
    31da:	291f      	cmp	r1, #31
    31dc:	d806      	bhi.n	31ec <_ZN4zinc3hal8nrf518224uart4Uart9configure17h17493f121eb501fbE+0x5c>
    31de:	9904      	ldr	r1, [sp, #16]
    31e0:	0089      	lsls	r1, r1, #2
    31e2:	586b      	ldr	r3, [r5, r1]
    31e4:	403b      	ands	r3, r7
    31e6:	1c46      	adds	r6, r0, #1
    31e8:	431e      	orrs	r6, r3
    31ea:	506e      	str	r6, [r5, r1]
    31ec:	9c03      	ldr	r4, [sp, #12]
    31ee:	b2e1      	uxtb	r1, r4
    31f0:	291f      	cmp	r1, #31
    31f2:	d804      	bhi.n	31fe <_ZN4zinc3hal8nrf518224uart4Uart9configure17h17493f121eb501fbE+0x6e>
    31f4:	008b      	lsls	r3, r1, #2
    31f6:	58ee      	ldr	r6, [r5, r3]
    31f8:	403e      	ands	r6, r7
    31fa:	4306      	orrs	r6, r0
    31fc:	50ee      	str	r6, [r5, r3]
    31fe:	4d1e      	ldr	r5, [pc, #120]	; (3278 <_ZN4zinc3hal8nrf518224uart4Uart9configure17h17493f121eb501fbE+0xe8>)
    3200:	6a68      	ldr	r0, [r5, #36]	; 0x24
    3202:	9802      	ldr	r0, [sp, #8]
    3204:	6268      	str	r0, [r5, #36]	; 0x24
    3206:	2000      	movs	r0, #0
    3208:	43c6      	mvns	r6, r0
    320a:	1ef0      	subs	r0, r6, #3
    320c:	6eeb      	ldr	r3, [r5, #108]	; 0x6c
    320e:	4003      	ands	r3, r0
    3210:	66eb      	str	r3, [r5, #108]	; 0x6c
    3212:	6828      	ldr	r0, [r5, #0]
    3214:	2304      	movs	r3, #4
    3216:	4303      	orrs	r3, r0
    3218:	602b      	str	r3, [r5, #0]
    321a:	4818      	ldr	r0, [pc, #96]	; (327c <_ZN4zinc3hal8nrf518224uart4Uart9configure17h17493f121eb501fbE+0xec>)
    321c:	6803      	ldr	r3, [r0, #0]
    321e:	2701      	movs	r7, #1
    3220:	433b      	orrs	r3, r7
    3222:	6003      	str	r3, [r0, #0]
    3224:	6883      	ldr	r3, [r0, #8]
    3226:	433b      	orrs	r3, r7
    3228:	6083      	str	r3, [r0, #8]
    322a:	1e70      	subs	r0, r6, #1
    322c:	4b14      	ldr	r3, [pc, #80]	; (3280 <_ZN4zinc3hal8nrf518224uart4Uart9configure17h17493f121eb501fbE+0xf0>)
    322e:	681f      	ldr	r7, [r3, #0]
    3230:	4007      	ands	r7, r0
    3232:	601f      	str	r7, [r3, #0]
    3234:	4630      	mov	r0, r6
    3236:	38ff      	subs	r0, #255	; 0xff
    3238:	69eb      	ldr	r3, [r5, #28]
    323a:	4003      	ands	r3, r0
    323c:	61eb      	str	r3, [r5, #28]
    323e:	68a8      	ldr	r0, [r5, #8]
    3240:	9804      	ldr	r0, [sp, #16]
    3242:	2820      	cmp	r0, #32
    3244:	d300      	bcc.n	3248 <_ZN4zinc3hal8nrf518224uart4Uart9configure17h17493f121eb501fbE+0xb8>
    3246:	4630      	mov	r0, r6
    3248:	60a8      	str	r0, [r5, #8]
    324a:	6928      	ldr	r0, [r5, #16]
    324c:	b2e0      	uxtb	r0, r4
    324e:	2820      	cmp	r0, #32
    3250:	d300      	bcc.n	3254 <_ZN4zinc3hal8nrf518224uart4Uart9configure17h17493f121eb501fbE+0xc4>
    3252:	4631      	mov	r1, r6
    3254:	6129      	str	r1, [r5, #16]
    3256:	6968      	ldr	r0, [r5, #20]
    3258:	9801      	ldr	r0, [sp, #4]
    325a:	6168      	str	r0, [r5, #20]
    325c:	68e8      	ldr	r0, [r5, #12]
    325e:	60ea      	str	r2, [r5, #12]
    3260:	b005      	add	sp, #20
    3262:	bdf0      	pop	{r4, r5, r6, r7, pc}
    3264:	4807      	ldr	r0, [pc, #28]	; (3284 <_ZN4zinc3hal8nrf518224uart4Uart9configure17h17493f121eb501fbE+0xf4>)
    3266:	f000 fa59 	bl	371c <_ZN4core9panicking5panic17hf227f8d5d60b7e39E>
    326a:	46c0      	nop			; (mov r8, r8)
    326c:	50000700 	.word	0x50000700
    3270:	fffcf8f0 	.word	0xfffcf8f0
    3274:	00010002 	.word	0x00010002
    3278:	40002500 	.word	0x40002500
    327c:	40002000 	.word	0x40002000
    3280:	40002108 	.word	0x40002108
    3284:	0000c938 	.word	0x0000c938

00003288 <_ZN4zinc3hal8nrf518224uart4Uart7writeln17h3374573b82f4d38aE>:
    3288:	b5f0      	push	{r4, r5, r6, r7, lr}
    328a:	188d      	adds	r5, r1, r2
    328c:	20ff      	movs	r0, #255	; 0xff
    328e:	43c4      	mvns	r4, r0
    3290:	4817      	ldr	r0, [pc, #92]	; (32f0 <_ZN4zinc3hal8nrf518224uart4Uart7writeln17h3374573b82f4d38aE+0x68>)
    3292:	4b18      	ldr	r3, [pc, #96]	; (32f4 <_ZN4zinc3hal8nrf518224uart4Uart7writeln17h3374573b82f4d38aE+0x6c>)
    3294:	2a00      	cmp	r2, #0
    3296:	d010      	beq.n	32ba <_ZN4zinc3hal8nrf518224uart4Uart7writeln17h3374573b82f4d38aE+0x32>
    3298:	780a      	ldrb	r2, [r1, #0]
    329a:	4626      	mov	r6, r4
    329c:	36fe      	adds	r6, #254	; 0xfe
    329e:	6807      	ldr	r7, [r0, #0]
    32a0:	4037      	ands	r7, r6
    32a2:	6007      	str	r7, [r0, #0]
    32a4:	681e      	ldr	r6, [r3, #0]
    32a6:	4026      	ands	r6, r4
    32a8:	4316      	orrs	r6, r2
    32aa:	601e      	str	r6, [r3, #0]
    32ac:	6802      	ldr	r2, [r0, #0]
    32ae:	2601      	movs	r6, #1
    32b0:	4232      	tst	r2, r6
    32b2:	d0fb      	beq.n	32ac <_ZN4zinc3hal8nrf518224uart4Uart7writeln17h3374573b82f4d38aE+0x24>
    32b4:	1c49      	adds	r1, r1, #1
    32b6:	42a9      	cmp	r1, r5
    32b8:	d1ee      	bne.n	3298 <_ZN4zinc3hal8nrf518224uart4Uart7writeln17h3374573b82f4d38aE+0x10>
    32ba:	4621      	mov	r1, r4
    32bc:	31fe      	adds	r1, #254	; 0xfe
    32be:	6802      	ldr	r2, [r0, #0]
    32c0:	400a      	ands	r2, r1
    32c2:	6002      	str	r2, [r0, #0]
    32c4:	681a      	ldr	r2, [r3, #0]
    32c6:	4022      	ands	r2, r4
    32c8:	250d      	movs	r5, #13
    32ca:	4315      	orrs	r5, r2
    32cc:	601d      	str	r5, [r3, #0]
    32ce:	6805      	ldr	r5, [r0, #0]
    32d0:	2201      	movs	r2, #1
    32d2:	4215      	tst	r5, r2
    32d4:	d0fb      	beq.n	32ce <_ZN4zinc3hal8nrf518224uart4Uart7writeln17h3374573b82f4d38aE+0x46>
    32d6:	6805      	ldr	r5, [r0, #0]
    32d8:	400d      	ands	r5, r1
    32da:	6005      	str	r5, [r0, #0]
    32dc:	6819      	ldr	r1, [r3, #0]
    32de:	4021      	ands	r1, r4
    32e0:	240a      	movs	r4, #10
    32e2:	430c      	orrs	r4, r1
    32e4:	601c      	str	r4, [r3, #0]
    32e6:	6801      	ldr	r1, [r0, #0]
    32e8:	4211      	tst	r1, r2
    32ea:	d0fc      	beq.n	32e6 <_ZN4zinc3hal8nrf518224uart4Uart7writeln17h3374573b82f4d38aE+0x5e>
    32ec:	bdf0      	pop	{r4, r5, r6, r7, pc}
    32ee:	46c0      	nop			; (mov r8, r8)
    32f0:	4000211c 	.word	0x4000211c
    32f4:	4000251c 	.word	0x4000251c

000032f8 <_ZN68_$LT$zinc..hal..nrf51822..uart..Uart$u20$as$u20$core..fmt..Write$GT$9write_str17h3e998e6dc459d9e1E>:
    32f8:	b5f0      	push	{r4, r5, r6, r7, lr}
    32fa:	1888      	adds	r0, r1, r2
    32fc:	2a00      	cmp	r2, #0
    32fe:	d014      	beq.n	332a <_ZN68_$LT$zinc..hal..nrf51822..uart..Uart$u20$as$u20$core..fmt..Write$GT$9write_str17h3e998e6dc459d9e1E+0x32>
    3300:	22ff      	movs	r2, #255	; 0xff
    3302:	43d2      	mvns	r2, r2
    3304:	4b0a      	ldr	r3, [pc, #40]	; (3330 <_ZN68_$LT$zinc..hal..nrf51822..uart..Uart$u20$as$u20$core..fmt..Write$GT$9write_str17h3e998e6dc459d9e1E+0x38>)
    3306:	4c0b      	ldr	r4, [pc, #44]	; (3334 <_ZN68_$LT$zinc..hal..nrf51822..uart..Uart$u20$as$u20$core..fmt..Write$GT$9write_str17h3e998e6dc459d9e1E+0x3c>)
    3308:	780d      	ldrb	r5, [r1, #0]
    330a:	4616      	mov	r6, r2
    330c:	36fe      	adds	r6, #254	; 0xfe
    330e:	6827      	ldr	r7, [r4, #0]
    3310:	4037      	ands	r7, r6
    3312:	6027      	str	r7, [r4, #0]
    3314:	681e      	ldr	r6, [r3, #0]
    3316:	4016      	ands	r6, r2
    3318:	432e      	orrs	r6, r5
    331a:	601e      	str	r6, [r3, #0]
    331c:	6825      	ldr	r5, [r4, #0]
    331e:	2601      	movs	r6, #1
    3320:	4235      	tst	r5, r6
    3322:	d0fb      	beq.n	331c <_ZN68_$LT$zinc..hal..nrf51822..uart..Uart$u20$as$u20$core..fmt..Write$GT$9write_str17h3e998e6dc459d9e1E+0x24>
    3324:	1c49      	adds	r1, r1, #1
    3326:	4281      	cmp	r1, r0
    3328:	d1ee      	bne.n	3308 <_ZN68_$LT$zinc..hal..nrf51822..uart..Uart$u20$as$u20$core..fmt..Write$GT$9write_str17h3e998e6dc459d9e1E+0x10>
    332a:	2000      	movs	r0, #0
    332c:	bdf0      	pop	{r4, r5, r6, r7, pc}
    332e:	46c0      	nop			; (mov r8, r8)
    3330:	4000251c 	.word	0x4000251c
    3334:	4000211c 	.word	0x4000211c

00003338 <_ZN78_$LT$zinc..hal..nrf51822..pin..PinConfig$u20$as$u20$core..default..Default$GT$7default17h113fa65e110f834cE>:
    3338:	2101      	movs	r1, #1
    333a:	7001      	strb	r1, [r0, #0]
    333c:	2200      	movs	r2, #0
    333e:	7042      	strb	r2, [r0, #1]
    3340:	7082      	strb	r2, [r0, #2]
    3342:	70c1      	strb	r1, [r0, #3]
    3344:	7102      	strb	r2, [r0, #4]
    3346:	7142      	strb	r2, [r0, #5]
    3348:	4770      	bx	lr
    334a:	Address 0x000000000000334a is out of bounds.


0000334c <_ZN4zinc3hal8nrf518223pin3Pin9configure17h2f1a50f67e0d9b41E>:
    334c:	b5f0      	push	{r4, r5, r6, r7, lr}
    334e:	b081      	sub	sp, #4
    3350:	2205      	movs	r2, #5
    3352:	568c      	ldrsb	r4, [r1, r2]
    3354:	790f      	ldrb	r7, [r1, #4]
    3356:	78ca      	ldrb	r2, [r1, #3]
    3358:	788b      	ldrb	r3, [r1, #2]
    335a:	784d      	ldrb	r5, [r1, #1]
    335c:	780e      	ldrb	r6, [r1, #0]
    335e:	00a1      	lsls	r1, r4, #2
    3360:	2f01      	cmp	r7, #1
    3362:	d003      	beq.n	336c <_ZN4zinc3hal8nrf518223pin3Pin9configure17h2f1a50f67e0d9b41E+0x20>
    3364:	2f02      	cmp	r7, #2
    3366:	d103      	bne.n	3370 <_ZN4zinc3hal8nrf518223pin3Pin9configure17h2f1a50f67e0d9b41E+0x24>
    3368:	4c16      	ldr	r4, [pc, #88]	; (33c4 <_ZN4zinc3hal8nrf518223pin3Pin9configure17h2f1a50f67e0d9b41E+0x78>)
    336a:	e002      	b.n	3372 <_ZN4zinc3hal8nrf518223pin3Pin9configure17h2f1a50f67e0d9b41E+0x26>
    336c:	4c16      	ldr	r4, [pc, #88]	; (33c8 <_ZN4zinc3hal8nrf518223pin3Pin9configure17h2f1a50f67e0d9b41E+0x7c>)
    336e:	e000      	b.n	3372 <_ZN4zinc3hal8nrf518223pin3Pin9configure17h2f1a50f67e0d9b41E+0x26>
    3370:	4c16      	ldr	r4, [pc, #88]	; (33cc <_ZN4zinc3hal8nrf518223pin3Pin9configure17h2f1a50f67e0d9b41E+0x80>)
    3372:	1864      	adds	r4, r4, r1
    3374:	7801      	ldrb	r1, [r0, #0]
    3376:	291f      	cmp	r1, #31
    3378:	d81f      	bhi.n	33ba <_ZN4zinc3hal8nrf518223pin3Pin9configure17h2f1a50f67e0d9b41E+0x6e>
    337a:	2001      	movs	r0, #1
    337c:	2e00      	cmp	r6, #0
    337e:	4607      	mov	r7, r0
    3380:	d100      	bne.n	3384 <_ZN4zinc3hal8nrf518223pin3Pin9configure17h2f1a50f67e0d9b41E+0x38>
    3382:	4637      	mov	r7, r6
    3384:	00ad      	lsls	r5, r5, #2
    3386:	260c      	movs	r6, #12
    3388:	402e      	ands	r6, r5
    338a:	433e      	orrs	r6, r7
    338c:	4398      	bics	r0, r3
    338e:	0040      	lsls	r0, r0, #1
    3390:	4330      	orrs	r0, r6
    3392:	2303      	movs	r3, #3
    3394:	041b      	lsls	r3, r3, #16
    3396:	0412      	lsls	r2, r2, #16
    3398:	401a      	ands	r2, r3
    339a:	4302      	orrs	r2, r0
    339c:	2007      	movs	r0, #7
    339e:	0200      	lsls	r0, r0, #8
    33a0:	6823      	ldr	r3, [r4, #0]
    33a2:	021b      	lsls	r3, r3, #8
    33a4:	4003      	ands	r3, r0
    33a6:	4313      	orrs	r3, r2
    33a8:	0088      	lsls	r0, r1, #2
    33aa:	490a      	ldr	r1, [pc, #40]	; (33d4 <_ZN4zinc3hal8nrf518223pin3Pin9configure17h2f1a50f67e0d9b41E+0x88>)
    33ac:	5842      	ldr	r2, [r0, r1]
    33ae:	4c0a      	ldr	r4, [pc, #40]	; (33d8 <_ZN4zinc3hal8nrf518223pin3Pin9configure17h2f1a50f67e0d9b41E+0x8c>)
    33b0:	4014      	ands	r4, r2
    33b2:	431c      	orrs	r4, r3
    33b4:	5044      	str	r4, [r0, r1]
    33b6:	b001      	add	sp, #4
    33b8:	bdf0      	pop	{r4, r5, r6, r7, pc}
    33ba:	4805      	ldr	r0, [pc, #20]	; (33d0 <_ZN4zinc3hal8nrf518223pin3Pin9configure17h2f1a50f67e0d9b41E+0x84>)
    33bc:	2220      	movs	r2, #32
    33be:	f000 f9c5 	bl	374c <_ZN4core9panicking18panic_bounds_check17h613d9849b01f883fE>
    33c2:	46c0      	nop			; (mov r8, r8)
    33c4:	0000ca48 	.word	0x0000ca48
    33c8:	0000ca3c 	.word	0x0000ca3c
    33cc:	0000ca30 	.word	0x0000ca30
    33d0:	0000ca00 	.word	0x0000ca00
    33d4:	50000700 	.word	0x50000700
    33d8:	fffcf8f0 	.word	0xfffcf8f0

000033dc <_ZN70_$LT$zinc..hal..nrf51822..pin..Pin$u20$as$u20$zinc..hal..pin..Gpio$GT$8set_high17h09ae503968379acdE>:
    33dc:	7800      	ldrb	r0, [r0, #0]
    33de:	4904      	ldr	r1, [pc, #16]	; (33f0 <_ZN70_$LT$zinc..hal..nrf51822..pin..Pin$u20$as$u20$zinc..hal..pin..Gpio$GT$8set_high17h09ae503968379acdE+0x14>)
    33e0:	680a      	ldr	r2, [r1, #0]
    33e2:	221f      	movs	r2, #31
    33e4:	4002      	ands	r2, r0
    33e6:	2001      	movs	r0, #1
    33e8:	4090      	lsls	r0, r2
    33ea:	6008      	str	r0, [r1, #0]
    33ec:	4770      	bx	lr
    33ee:	46c0      	nop			; (mov r8, r8)
    33f0:	50000508 	.word	0x50000508

000033f4 <_ZN70_$LT$zinc..hal..nrf51822..pin..Pin$u20$as$u20$zinc..hal..pin..Gpio$GT$7set_low17h6578afa11d7abdf5E>:
    33f4:	7800      	ldrb	r0, [r0, #0]
    33f6:	4904      	ldr	r1, [pc, #16]	; (3408 <_ZN70_$LT$zinc..hal..nrf51822..pin..Pin$u20$as$u20$zinc..hal..pin..Gpio$GT$7set_low17h6578afa11d7abdf5E+0x14>)
    33f8:	680a      	ldr	r2, [r1, #0]
    33fa:	221f      	movs	r2, #31
    33fc:	4002      	ands	r2, r0
    33fe:	2001      	movs	r0, #1
    3400:	4090      	lsls	r0, r2
    3402:	6008      	str	r0, [r1, #0]
    3404:	4770      	bx	lr
    3406:	46c0      	nop			; (mov r8, r8)
    3408:	5000050c 	.word	0x5000050c

0000340c <_ZN70_$LT$zinc..hal..nrf51822..pin..Pin$u20$as$u20$zinc..hal..pin..Gpio$GT$5level17hd366ba0616e528fcE>:
    340c:	7800      	ldrb	r0, [r0, #0]
    340e:	211f      	movs	r1, #31
    3410:	4001      	ands	r1, r0
    3412:	2001      	movs	r0, #1
    3414:	4602      	mov	r2, r0
    3416:	408a      	lsls	r2, r1
    3418:	4903      	ldr	r1, [pc, #12]	; (3428 <_ZN70_$LT$zinc..hal..nrf51822..pin..Pin$u20$as$u20$zinc..hal..pin..Gpio$GT$5level17hd366ba0616e528fcE+0x1c>)
    341a:	6809      	ldr	r1, [r1, #0]
    341c:	4011      	ands	r1, r2
    341e:	2900      	cmp	r1, #0
    3420:	d100      	bne.n	3424 <_ZN70_$LT$zinc..hal..nrf51822..pin..Pin$u20$as$u20$zinc..hal..pin..Gpio$GT$5level17hd366ba0616e528fcE+0x18>
    3422:	4608      	mov	r0, r1
    3424:	4770      	bx	lr
    3426:	46c0      	nop			; (mov r8, r8)
    3428:	50000510 	.word	0x50000510

0000342c <_ZN4zinc3hal8nrf518223rtc3Rtc13set_prescaler17hae06191e6aca63cbE>:
    342c:	b5b0      	push	{r4, r5, r7, lr}
    342e:	4807      	ldr	r0, [pc, #28]	; (344c <_ZN4zinc3hal8nrf518223rtc3Rtc13set_prescaler17hae06191e6aca63cbE+0x20>)
    3430:	460b      	mov	r3, r1
    3432:	4003      	ands	r3, r0
    3434:	4a06      	ldr	r2, [pc, #24]	; (3450 <_ZN4zinc3hal8nrf518223rtc3Rtc13set_prescaler17hae06191e6aca63cbE+0x24>)
    3436:	6814      	ldr	r4, [r2, #0]
    3438:	4d06      	ldr	r5, [pc, #24]	; (3454 <_ZN4zinc3hal8nrf518223rtc3Rtc13set_prescaler17hae06191e6aca63cbE+0x28>)
    343a:	4025      	ands	r5, r4
    343c:	431d      	orrs	r5, r3
    343e:	6015      	str	r5, [r2, #0]
    3440:	6813      	ldr	r3, [r2, #0]
    3442:	4003      	ands	r3, r0
    3444:	428b      	cmp	r3, r1
    3446:	d1fb      	bne.n	3440 <_ZN4zinc3hal8nrf518223rtc3Rtc13set_prescaler17hae06191e6aca63cbE+0x14>
    3448:	bdb0      	pop	{r4, r5, r7, pc}
    344a:	46c0      	nop			; (mov r8, r8)
    344c:	00000fff 	.word	0x00000fff
    3450:	4000b508 	.word	0x4000b508
    3454:	fffff000 	.word	0xfffff000

00003458 <_ZN4zinc3hal8nrf518223rtc3Rtc20enable_tick_iterrupt17hbc541056795a1989E>:
    3458:	4804      	ldr	r0, [pc, #16]	; (346c <_ZN4zinc3hal8nrf518223rtc3Rtc20enable_tick_iterrupt17hbc541056795a1989E+0x14>)
    345a:	6c01      	ldr	r1, [r0, #64]	; 0x40
    345c:	2201      	movs	r2, #1
    345e:	4311      	orrs	r1, r2
    3460:	6401      	str	r1, [r0, #64]	; 0x40
    3462:	6801      	ldr	r1, [r0, #0]
    3464:	4311      	orrs	r1, r2
    3466:	6001      	str	r1, [r0, #0]
    3468:	4770      	bx	lr
    346a:	46c0      	nop			; (mov r8, r8)
    346c:	4000b304 	.word	0x4000b304

00003470 <_ZN4zinc3hal8nrf518223rtc3Rtc5start17h02e603d0233048aeE>:
    3470:	4906      	ldr	r1, [pc, #24]	; (348c <_ZN4zinc3hal8nrf518223rtc3Rtc5start17h02e603d0233048aeE+0x1c>)
    3472:	680a      	ldr	r2, [r1, #0]
    3474:	2001      	movs	r0, #1
    3476:	4302      	orrs	r2, r0
    3478:	600a      	str	r2, [r1, #0]
    347a:	4905      	ldr	r1, [pc, #20]	; (3490 <_ZN4zinc3hal8nrf518223rtc3Rtc5start17h02e603d0233048aeE+0x20>)
    347c:	6809      	ldr	r1, [r1, #0]
    347e:	4201      	tst	r1, r0
    3480:	d0fb      	beq.n	347a <_ZN4zinc3hal8nrf518223rtc3Rtc5start17h02e603d0233048aeE+0xa>
    3482:	4904      	ldr	r1, [pc, #16]	; (3494 <_ZN4zinc3hal8nrf518223rtc3Rtc5start17h02e603d0233048aeE+0x24>)
    3484:	680a      	ldr	r2, [r1, #0]
    3486:	4302      	orrs	r2, r0
    3488:	600a      	str	r2, [r1, #0]
    348a:	4770      	bx	lr
    348c:	40000008 	.word	0x40000008
    3490:	40000414 	.word	0x40000414
    3494:	4000b000 	.word	0x4000b000

00003498 <_ZN4zinc3hal8nrf518223twi3Twi9configure17h108966bd400b5c3aE>:
    3498:	b5f0      	push	{r4, r5, r6, r7, lr}
    349a:	b083      	sub	sp, #12
    349c:	6848      	ldr	r0, [r1, #4]
    349e:	9001      	str	r0, [sp, #4]
    34a0:	880a      	ldrh	r2, [r1, #0]
    34a2:	2007      	movs	r0, #7
    34a4:	43c0      	mvns	r0, r0
    34a6:	1d81      	adds	r1, r0, #6
    34a8:	4b1e      	ldr	r3, [pc, #120]	; (3524 <_ZN4zinc3hal8nrf518223twi3Twi9configure17h108966bd400b5c3aE+0x8c>)
    34aa:	681d      	ldr	r5, [r3, #0]
    34ac:	400d      	ands	r5, r1
    34ae:	601d      	str	r5, [r3, #0]
    34b0:	9202      	str	r2, [sp, #8]
    34b2:	0a11      	lsrs	r1, r2, #8
    34b4:	681e      	ldr	r6, [r3, #0]
    34b6:	2501      	movs	r5, #1
    34b8:	422e      	tst	r6, r5
    34ba:	d1fb      	bne.n	34b4 <_ZN4zinc3hal8nrf518223twi3Twi9configure17h108966bd400b5c3aE+0x1c>
    34bc:	681e      	ldr	r6, [r3, #0]
    34be:	432e      	orrs	r6, r5
    34c0:	601e      	str	r6, [r3, #0]
    34c2:	4b19      	ldr	r3, [pc, #100]	; (3528 <_ZN4zinc3hal8nrf518223twi3Twi9configure17h108966bd400b5c3aE+0x90>)
    34c4:	681d      	ldr	r5, [r3, #0]
    34c6:	4005      	ands	r5, r0
    34c8:	601d      	str	r5, [r3, #0]
    34ca:	2920      	cmp	r1, #32
    34cc:	d226      	bcs.n	351c <_ZN4zinc3hal8nrf518223twi3Twi9configure17h108966bd400b5c3aE+0x84>
    34ce:	008a      	lsls	r2, r1, #2
    34d0:	4d16      	ldr	r5, [pc, #88]	; (352c <_ZN4zinc3hal8nrf518223twi3Twi9configure17h108966bd400b5c3aE+0x94>)
    34d2:	5954      	ldr	r4, [r2, r5]
    34d4:	4e16      	ldr	r6, [pc, #88]	; (3530 <_ZN4zinc3hal8nrf518223twi3Twi9configure17h108966bd400b5c3aE+0x98>)
    34d6:	4034      	ands	r4, r6
    34d8:	2703      	movs	r7, #3
    34da:	027f      	lsls	r7, r7, #9
    34dc:	433c      	orrs	r4, r7
    34de:	5154      	str	r4, [r2, r5]
    34e0:	9a02      	ldr	r2, [sp, #8]
    34e2:	b2d4      	uxtb	r4, r2
    34e4:	2c20      	cmp	r4, #32
    34e6:	9102      	str	r1, [sp, #8]
    34e8:	d218      	bcs.n	351c <_ZN4zinc3hal8nrf518223twi3Twi9configure17h108966bd400b5c3aE+0x84>
    34ea:	00a2      	lsls	r2, r4, #2
    34ec:	58a9      	ldr	r1, [r5, r2]
    34ee:	4031      	ands	r1, r6
    34f0:	4339      	orrs	r1, r7
    34f2:	50a9      	str	r1, [r5, r2]
    34f4:	68d9      	ldr	r1, [r3, #12]
    34f6:	60dc      	str	r4, [r3, #12]
    34f8:	6899      	ldr	r1, [r3, #8]
    34fa:	9902      	ldr	r1, [sp, #8]
    34fc:	6099      	str	r1, [r3, #8]
    34fe:	6a59      	ldr	r1, [r3, #36]	; 0x24
    3500:	9901      	ldr	r1, [sp, #4]
    3502:	6259      	str	r1, [r3, #36]	; 0x24
    3504:	6819      	ldr	r1, [r3, #0]
    3506:	4001      	ands	r1, r0
    3508:	2205      	movs	r2, #5
    350a:	430a      	orrs	r2, r1
    350c:	601a      	str	r2, [r3, #0]
    350e:	1d00      	adds	r0, r0, #4
    3510:	4908      	ldr	r1, [pc, #32]	; (3534 <_ZN4zinc3hal8nrf518223twi3Twi9configure17h108966bd400b5c3aE+0x9c>)
    3512:	680a      	ldr	r2, [r1, #0]
    3514:	4002      	ands	r2, r0
    3516:	600a      	str	r2, [r1, #0]
    3518:	b003      	add	sp, #12
    351a:	bdf0      	pop	{r4, r5, r6, r7, pc}
    351c:	4806      	ldr	r0, [pc, #24]	; (3538 <_ZN4zinc3hal8nrf518223twi3Twi9configure17h108966bd400b5c3aE+0xa0>)
    351e:	f000 f8fd 	bl	371c <_ZN4core9panicking5panic17hf227f8d5d60b7e39E>
    3522:	46c0      	nop			; (mov r8, r8)
    3524:	40003ffc 	.word	0x40003ffc
    3528:	40003500 	.word	0x40003500
    352c:	50000700 	.word	0x50000700
    3530:	fffcf8f0 	.word	0xfffcf8f0
    3534:	40003200 	.word	0x40003200
    3538:	0000c938 	.word	0x0000c938

0000353c <_ZN4zinc3hal8nrf518223twi3Twi11set_address17ha6077a6f118ede50E>:
    353c:	207f      	movs	r0, #127	; 0x7f
    353e:	4001      	ands	r1, r0
    3540:	4a02      	ldr	r2, [pc, #8]	; (354c <_ZN4zinc3hal8nrf518223twi3Twi11set_address17ha6077a6f118ede50E+0x10>)
    3542:	6813      	ldr	r3, [r2, #0]
    3544:	4383      	bics	r3, r0
    3546:	430b      	orrs	r3, r1
    3548:	6013      	str	r3, [r2, #0]
    354a:	4770      	bx	lr
    354c:	40003588 	.word	0x40003588

00003550 <_ZN4zinc3hal8nrf518223twi3Twi11write_bytes17h0e15bed708b2e767E>:
    3550:	b5f0      	push	{r4, r5, r6, r7, lr}
    3552:	b081      	sub	sp, #4
    3554:	4811      	ldr	r0, [pc, #68]	; (359c <_ZN4zinc3hal8nrf518223twi3Twi11write_bytes17h0e15bed708b2e767E+0x4c>)
    3556:	6804      	ldr	r4, [r0, #0]
    3558:	2301      	movs	r3, #1
    355a:	431c      	orrs	r4, r3
    355c:	9000      	str	r0, [sp, #0]
    355e:	6004      	str	r4, [r0, #0]
    3560:	188c      	adds	r4, r1, r2
    3562:	2a00      	cmp	r2, #0
    3564:	d013      	beq.n	358e <_ZN4zinc3hal8nrf518223twi3Twi11write_bytes17h0e15bed708b2e767E+0x3e>
    3566:	22ff      	movs	r2, #255	; 0xff
    3568:	43d2      	mvns	r2, r2
    356a:	4d0d      	ldr	r5, [pc, #52]	; (35a0 <_ZN4zinc3hal8nrf518223twi3Twi11write_bytes17h0e15bed708b2e767E+0x50>)
    356c:	780e      	ldrb	r6, [r1, #0]
    356e:	682f      	ldr	r7, [r5, #0]
    3570:	4017      	ands	r7, r2
    3572:	4337      	orrs	r7, r6
    3574:	602f      	str	r7, [r5, #0]
    3576:	4e0b      	ldr	r6, [pc, #44]	; (35a4 <_ZN4zinc3hal8nrf518223twi3Twi11write_bytes17h0e15bed708b2e767E+0x54>)
    3578:	6837      	ldr	r7, [r6, #0]
    357a:	421f      	tst	r7, r3
    357c:	d0fb      	beq.n	3576 <_ZN4zinc3hal8nrf518223twi3Twi11write_bytes17h0e15bed708b2e767E+0x26>
    357e:	4617      	mov	r7, r2
    3580:	37fe      	adds	r7, #254	; 0xfe
    3582:	6830      	ldr	r0, [r6, #0]
    3584:	4038      	ands	r0, r7
    3586:	6030      	str	r0, [r6, #0]
    3588:	1c49      	adds	r1, r1, #1
    358a:	42a1      	cmp	r1, r4
    358c:	d1ee      	bne.n	356c <_ZN4zinc3hal8nrf518223twi3Twi11write_bytes17h0e15bed708b2e767E+0x1c>
    358e:	9800      	ldr	r0, [sp, #0]
    3590:	68c1      	ldr	r1, [r0, #12]
    3592:	4319      	orrs	r1, r3
    3594:	60c1      	str	r1, [r0, #12]
    3596:	b001      	add	sp, #4
    3598:	bdf0      	pop	{r4, r5, r6, r7, pc}
    359a:	46c0      	nop			; (mov r8, r8)
    359c:	40003008 	.word	0x40003008
    35a0:	4000351c 	.word	0x4000351c
    35a4:	4000311c 	.word	0x4000311c

000035a8 <_ZN4zinc3hal8nrf518223twi3Twi18write_bytes_prefix17h233b4f10bdb546a6E>:
    35a8:	b5f0      	push	{r4, r5, r6, r7, lr}
    35aa:	b083      	sub	sp, #12
    35ac:	4d18      	ldr	r5, [pc, #96]	; (3610 <_ZN4zinc3hal8nrf518223twi3Twi18write_bytes_prefix17h233b4f10bdb546a6E+0x68>)
    35ae:	6828      	ldr	r0, [r5, #0]
    35b0:	2401      	movs	r4, #1
    35b2:	4320      	orrs	r0, r4
    35b4:	9500      	str	r5, [sp, #0]
    35b6:	6028      	str	r0, [r5, #0]
    35b8:	20ff      	movs	r0, #255	; 0xff
    35ba:	43c5      	mvns	r5, r0
    35bc:	4e15      	ldr	r6, [pc, #84]	; (3614 <_ZN4zinc3hal8nrf518223twi3Twi18write_bytes_prefix17h233b4f10bdb546a6E+0x6c>)
    35be:	6830      	ldr	r0, [r6, #0]
    35c0:	9502      	str	r5, [sp, #8]
    35c2:	4028      	ands	r0, r5
    35c4:	b2c9      	uxtb	r1, r1
    35c6:	4301      	orrs	r1, r0
    35c8:	6031      	str	r1, [r6, #0]
    35ca:	4913      	ldr	r1, [pc, #76]	; (3618 <_ZN4zinc3hal8nrf518223twi3Twi18write_bytes_prefix17h233b4f10bdb546a6E+0x70>)
    35cc:	6808      	ldr	r0, [r1, #0]
    35ce:	4220      	tst	r0, r4
    35d0:	d0fb      	beq.n	35ca <_ZN4zinc3hal8nrf518223twi3Twi18write_bytes_prefix17h233b4f10bdb546a6E+0x22>
    35d2:	9f02      	ldr	r7, [sp, #8]
    35d4:	37fe      	adds	r7, #254	; 0xfe
    35d6:	6808      	ldr	r0, [r1, #0]
    35d8:	4038      	ands	r0, r7
    35da:	6008      	str	r0, [r1, #0]
    35dc:	18d0      	adds	r0, r2, r3
    35de:	9001      	str	r0, [sp, #4]
    35e0:	2b00      	cmp	r3, #0
    35e2:	d00f      	beq.n	3604 <_ZN4zinc3hal8nrf518223twi3Twi18write_bytes_prefix17h233b4f10bdb546a6E+0x5c>
    35e4:	7813      	ldrb	r3, [r2, #0]
    35e6:	6835      	ldr	r5, [r6, #0]
    35e8:	9802      	ldr	r0, [sp, #8]
    35ea:	4005      	ands	r5, r0
    35ec:	431d      	orrs	r5, r3
    35ee:	6035      	str	r5, [r6, #0]
    35f0:	680b      	ldr	r3, [r1, #0]
    35f2:	4223      	tst	r3, r4
    35f4:	d0fc      	beq.n	35f0 <_ZN4zinc3hal8nrf518223twi3Twi18write_bytes_prefix17h233b4f10bdb546a6E+0x48>
    35f6:	680b      	ldr	r3, [r1, #0]
    35f8:	403b      	ands	r3, r7
    35fa:	600b      	str	r3, [r1, #0]
    35fc:	1c52      	adds	r2, r2, #1
    35fe:	9801      	ldr	r0, [sp, #4]
    3600:	4282      	cmp	r2, r0
    3602:	d1ef      	bne.n	35e4 <_ZN4zinc3hal8nrf518223twi3Twi18write_bytes_prefix17h233b4f10bdb546a6E+0x3c>
    3604:	9900      	ldr	r1, [sp, #0]
    3606:	68c8      	ldr	r0, [r1, #12]
    3608:	4320      	orrs	r0, r4
    360a:	60c8      	str	r0, [r1, #12]
    360c:	b003      	add	sp, #12
    360e:	bdf0      	pop	{r4, r5, r6, r7, pc}
    3610:	40003008 	.word	0x40003008
    3614:	4000351c 	.word	0x4000351c
    3618:	4000311c 	.word	0x4000311c

0000361c <_ZN4zinc3hal8nrf518224rand9fill_rand17h7dfab05370fe1cccE>:
    361c:	b5b0      	push	{r4, r5, r7, lr}
    361e:	1842      	adds	r2, r0, r1
    3620:	2900      	cmp	r1, #0
    3622:	d00d      	beq.n	3640 <_ZN4zinc3hal8nrf518224rand9fill_rand17h7dfab05370fe1cccE+0x24>
    3624:	4907      	ldr	r1, [pc, #28]	; (3644 <_ZN4zinc3hal8nrf518224rand9fill_rand17h7dfab05370fe1cccE+0x28>)
    3626:	680c      	ldr	r4, [r1, #0]
    3628:	2301      	movs	r3, #1
    362a:	421c      	tst	r4, r3
    362c:	d0fa      	beq.n	3624 <_ZN4zinc3hal8nrf518224rand9fill_rand17h7dfab05370fe1cccE+0x8>
    362e:	4c06      	ldr	r4, [pc, #24]	; (3648 <_ZN4zinc3hal8nrf518224rand9fill_rand17h7dfab05370fe1cccE+0x2c>)
    3630:	6824      	ldr	r4, [r4, #0]
    3632:	680d      	ldr	r5, [r1, #0]
    3634:	439d      	bics	r5, r3
    3636:	600d      	str	r5, [r1, #0]
    3638:	7004      	strb	r4, [r0, #0]
    363a:	1c40      	adds	r0, r0, #1
    363c:	4290      	cmp	r0, r2
    363e:	d1f1      	bne.n	3624 <_ZN4zinc3hal8nrf518224rand9fill_rand17h7dfab05370fe1cccE+0x8>
    3640:	bdb0      	pop	{r4, r5, r7, pc}
    3642:	46c0      	nop			; (mov r8, r8)
    3644:	4000d100 	.word	0x4000d100
    3648:	4000d508 	.word	0x4000d508

0000364c <_ZN4zinc3hal8nrf518228sleep_us17h401a33623f589258E>:
    364c:	2200      	movs	r2, #0
    364e:	43d2      	mvns	r2, r2
    3650:	1e40      	subs	r0, r0, #1
    3652:	4151      	adcs	r1, r2
    3654:	4602      	mov	r2, r0
    3656:	430a      	orrs	r2, r1
    3658:	bf00      	nop
    365a:	bf00      	nop
    365c:	bf00      	nop
    365e:	bf00      	nop
    3660:	bf00      	nop
    3662:	bf00      	nop
    3664:	bf00      	nop
    3666:	bf00      	nop
    3668:	2a00      	cmp	r2, #0
    366a:	d1ef      	bne.n	364c <_ZN4zinc3hal8nrf518228sleep_us17h401a33623f589258E>
    366c:	4770      	bx	lr
    366e:	Address 0x000000000000366e is out of bounds.


00003670 <_ZN4zinc3hal8nrf518224init17h51562d4111ef066aE>:
    3670:	490a      	ldr	r1, [pc, #40]	; (369c <_ZN4zinc3hal8nrf518224init17h51562d4111ef066aE+0x2c>)
    3672:	680a      	ldr	r2, [r1, #0]
    3674:	2001      	movs	r0, #1
    3676:	4302      	orrs	r2, r0
    3678:	600a      	str	r2, [r1, #0]
    367a:	4a09      	ldr	r2, [pc, #36]	; (36a0 <_ZN4zinc3hal8nrf518224init17h51562d4111ef066aE+0x30>)
    367c:	6812      	ldr	r2, [r2, #0]
    367e:	4202      	tst	r2, r0
    3680:	d0fb      	beq.n	367a <_ZN4zinc3hal8nrf518224init17h51562d4111ef066aE+0xa>
    3682:	68ca      	ldr	r2, [r1, #12]
    3684:	4302      	orrs	r2, r0
    3686:	60ca      	str	r2, [r1, #12]
    3688:	4906      	ldr	r1, [pc, #24]	; (36a4 <_ZN4zinc3hal8nrf518224init17h51562d4111ef066aE+0x34>)
    368a:	680a      	ldr	r2, [r1, #0]
    368c:	4382      	bics	r2, r0
    368e:	600a      	str	r2, [r1, #0]
    3690:	4905      	ldr	r1, [pc, #20]	; (36a8 <_ZN4zinc3hal8nrf518224init17h51562d4111ef066aE+0x38>)
    3692:	680a      	ldr	r2, [r1, #0]
    3694:	4302      	orrs	r2, r0
    3696:	600a      	str	r2, [r1, #0]
    3698:	4770      	bx	lr
    369a:	46c0      	nop			; (mov r8, r8)
    369c:	40000008 	.word	0x40000008
    36a0:	40000414 	.word	0x40000414
    36a4:	4000d504 	.word	0x4000d504
    36a8:	4000d000 	.word	0x4000d000

000036ac <_ZN4zinc3hal13cortex_common4nvic10enable_irq17he32362ef70d245d5E>:
    36ac:	b510      	push	{r4, lr}
    36ae:	0941      	lsrs	r1, r0, #5
    36b0:	0a02      	lsrs	r2, r0, #8
    36b2:	2a00      	cmp	r2, #0
    36b4:	d10c      	bne.n	36d0 <_ZN4zinc3hal13cortex_common4nvic10enable_irq17he32362ef70d245d5E+0x24>
    36b6:	221f      	movs	r2, #31
    36b8:	4010      	ands	r0, r2
    36ba:	2201      	movs	r2, #1
    36bc:	07d3      	lsls	r3, r2, #31
    36be:	4082      	lsls	r2, r0
    36c0:	0088      	lsls	r0, r1, #2
    36c2:	4906      	ldr	r1, [pc, #24]	; (36dc <_ZN4zinc3hal13cortex_common4nvic10enable_irq17he32362ef70d245d5E+0x30>)
    36c4:	5844      	ldr	r4, [r0, r1]
    36c6:	4394      	bics	r4, r2
    36c8:	439c      	bics	r4, r3
    36ca:	4314      	orrs	r4, r2
    36cc:	5044      	str	r4, [r0, r1]
    36ce:	bd10      	pop	{r4, pc}
    36d0:	4801      	ldr	r0, [pc, #4]	; (36d8 <_ZN4zinc3hal13cortex_common4nvic10enable_irq17he32362ef70d245d5E+0x2c>)
    36d2:	2208      	movs	r2, #8
    36d4:	f000 f83a 	bl	374c <_ZN4core9panicking18panic_bounds_check17h613d9849b01f883fE>
    36d8:	0000c9c4 	.word	0x0000c9c4
    36dc:	e000e100 	.word	0xe000e100

000036e0 <_ZN4zinc3hal5stack15set_stack_limit17ha51ab4f6d9220120E>:
    36e0:	4901      	ldr	r1, [pc, #4]	; (36e8 <_ZN4zinc3hal5stack15set_stack_limit17ha51ab4f6d9220120E+0x8>)
    36e2:	6008      	str	r0, [r1, #0]
    36e4:	4770      	bx	lr
    36e6:	46c0      	nop			; (mov r8, r8)
    36e8:	20000444 	.word	0x20000444

000036ec <isr_handler_wrapper>:
    36ec:	e7ff      	b.n	36ee <isr_default_fault>

000036ee <isr_default_fault>:
    36ee:	f3ef 8009 	mrs	r0, PSP
    36f2:	f3ef 8108 	mrs	r1, MSP
    36f6:	6982      	ldr	r2, [r0, #24]
    36f8:	698b      	ldr	r3, [r1, #24]
    36fa:	be00      	bkpt	0x0000
    36fc:	4770      	bx	lr

000036fe <__aeabi_unwind_cpp_pr0>:
    36fe:	defe      	udf	#254	; 0xfe
    3700:	e7fe      	b.n	3700 <__aeabi_unwind_cpp_pr0+0x2>

00003702 <_ZN4core4char10EncodeUtf88as_slice17h2d6d8978003edb2dE>:
    3702:	b580      	push	{r7, lr}
    3704:	4601      	mov	r1, r0
    3706:	6848      	ldr	r0, [r1, #4]
    3708:	2805      	cmp	r0, #5
    370a:	d204      	bcs.n	3716 <_ZN4core4char10EncodeUtf88as_slice17h2d6d8978003edb2dE+0x14>
    370c:	180a      	adds	r2, r1, r0
    370e:	2104      	movs	r1, #4
    3710:	1a09      	subs	r1, r1, r0
    3712:	4610      	mov	r0, r2
    3714:	bd80      	pop	{r7, pc}
    3716:	2104      	movs	r1, #4
    3718:	f000 f86c 	bl	37f4 <_ZN4core5slice22slice_index_order_fail17h645d2e1a34e44416E>

0000371c <_ZN4core9panicking5panic17hf227f8d5d60b7e39E>:
    371c:	b510      	push	{r4, lr}
    371e:	b08c      	sub	sp, #48	; 0x30
    3720:	c81e      	ldmia	r0!, {r1, r2, r3, r4}
    3722:	6800      	ldr	r0, [r0, #0]
    3724:	9104      	str	r1, [sp, #16]
    3726:	9205      	str	r2, [sp, #20]
    3728:	a904      	add	r1, sp, #16
    372a:	9106      	str	r1, [sp, #24]
    372c:	2101      	movs	r1, #1
    372e:	9107      	str	r1, [sp, #28]
    3730:	2100      	movs	r1, #0
    3732:	9108      	str	r1, [sp, #32]
    3734:	4a04      	ldr	r2, [pc, #16]	; (3748 <_ZN4core9panicking5panic17hf227f8d5d60b7e39E+0x2c>)
    3736:	920a      	str	r2, [sp, #40]	; 0x28
    3738:	910b      	str	r1, [sp, #44]	; 0x2c
    373a:	9301      	str	r3, [sp, #4]
    373c:	9402      	str	r4, [sp, #8]
    373e:	9003      	str	r0, [sp, #12]
    3740:	a806      	add	r0, sp, #24
    3742:	a901      	add	r1, sp, #4
    3744:	f000 f820 	bl	3788 <_ZN4core9panicking9panic_fmt17h91e1529369fc5cb7E>
    3748:	0000ca98 	.word	0x0000ca98

0000374c <_ZN4core9panicking18panic_bounds_check17h613d9849b01f883fE>:
    374c:	b580      	push	{r7, lr}
    374e:	b08c      	sub	sp, #48	; 0x30
    3750:	4603      	mov	r3, r0
    3752:	910b      	str	r1, [sp, #44]	; 0x2c
    3754:	920a      	str	r2, [sp, #40]	; 0x28
    3756:	a80a      	add	r0, sp, #40	; 0x28
    3758:	9000      	str	r0, [sp, #0]
    375a:	4809      	ldr	r0, [pc, #36]	; (3780 <_ZN4core9panicking18panic_bounds_check17h613d9849b01f883fE+0x34>)
    375c:	9001      	str	r0, [sp, #4]
    375e:	a90b      	add	r1, sp, #44	; 0x2c
    3760:	9102      	str	r1, [sp, #8]
    3762:	9003      	str	r0, [sp, #12]
    3764:	4807      	ldr	r0, [pc, #28]	; (3784 <_ZN4core9panicking18panic_bounds_check17h613d9849b01f883fE+0x38>)
    3766:	9004      	str	r0, [sp, #16]
    3768:	2002      	movs	r0, #2
    376a:	9005      	str	r0, [sp, #20]
    376c:	2100      	movs	r1, #0
    376e:	9106      	str	r1, [sp, #24]
    3770:	4669      	mov	r1, sp
    3772:	9108      	str	r1, [sp, #32]
    3774:	9009      	str	r0, [sp, #36]	; 0x24
    3776:	a804      	add	r0, sp, #16
    3778:	4619      	mov	r1, r3
    377a:	f000 f805 	bl	3788 <_ZN4core9panicking9panic_fmt17h91e1529369fc5cb7E>
    377e:	46c0      	nop			; (mov r8, r8)
    3780:	00004325 	.word	0x00004325
    3784:	0000cc64 	.word	0x0000cc64

00003788 <_ZN4core9panicking9panic_fmt17h91e1529369fc5cb7E>:
    3788:	b5f0      	push	{r4, r5, r6, r7, lr}
    378a:	b087      	sub	sp, #28
    378c:	c830      	ldmia	r0!, {r4, r5}
    378e:	6802      	ldr	r2, [r0, #0]
    3790:	9205      	str	r2, [sp, #20]
    3792:	6842      	ldr	r2, [r0, #4]
    3794:	9206      	str	r2, [sp, #24]
    3796:	6886      	ldr	r6, [r0, #8]
    3798:	68c3      	ldr	r3, [r0, #12]
    379a:	680f      	ldr	r7, [r1, #0]
    379c:	684a      	ldr	r2, [r1, #4]
    379e:	6889      	ldr	r1, [r1, #8]
    37a0:	4668      	mov	r0, sp
    37a2:	6006      	str	r6, [r0, #0]
    37a4:	6043      	str	r3, [r0, #4]
    37a6:	6087      	str	r7, [r0, #8]
    37a8:	60c2      	str	r2, [r0, #12]
    37aa:	6101      	str	r1, [r0, #16]
    37ac:	4620      	mov	r0, r4
    37ae:	4629      	mov	r1, r5
    37b0:	9a05      	ldr	r2, [sp, #20]
    37b2:	9b06      	ldr	r3, [sp, #24]
    37b4:	f7fd f9ea 	bl	b8c <rust_begin_unwind>

000037b8 <_ZN4core5slice20slice_index_len_fail17hd87e5524007fa8c3E>:
    37b8:	b580      	push	{r7, lr}
    37ba:	b08c      	sub	sp, #48	; 0x30
    37bc:	900b      	str	r0, [sp, #44]	; 0x2c
    37be:	910a      	str	r1, [sp, #40]	; 0x28
    37c0:	a80b      	add	r0, sp, #44	; 0x2c
    37c2:	9000      	str	r0, [sp, #0]
    37c4:	4808      	ldr	r0, [pc, #32]	; (37e8 <_ZN4core5slice20slice_index_len_fail17hd87e5524007fa8c3E+0x30>)
    37c6:	9001      	str	r0, [sp, #4]
    37c8:	a90a      	add	r1, sp, #40	; 0x28
    37ca:	9102      	str	r1, [sp, #8]
    37cc:	9003      	str	r0, [sp, #12]
    37ce:	4807      	ldr	r0, [pc, #28]	; (37ec <_ZN4core5slice20slice_index_len_fail17hd87e5524007fa8c3E+0x34>)
    37d0:	9004      	str	r0, [sp, #16]
    37d2:	2002      	movs	r0, #2
    37d4:	9005      	str	r0, [sp, #20]
    37d6:	2100      	movs	r1, #0
    37d8:	9106      	str	r1, [sp, #24]
    37da:	4669      	mov	r1, sp
    37dc:	9108      	str	r1, [sp, #32]
    37de:	9009      	str	r0, [sp, #36]	; 0x24
    37e0:	a804      	add	r0, sp, #16
    37e2:	4903      	ldr	r1, [pc, #12]	; (37f0 <_ZN4core5slice20slice_index_len_fail17hd87e5524007fa8c3E+0x38>)
    37e4:	f7ff ffd0 	bl	3788 <_ZN4core9panicking9panic_fmt17h91e1529369fc5cb7E>
    37e8:	00004325 	.word	0x00004325
    37ec:	0000cd54 	.word	0x0000cd54
    37f0:	0000ca68 	.word	0x0000ca68

000037f4 <_ZN4core5slice22slice_index_order_fail17h645d2e1a34e44416E>:
    37f4:	b580      	push	{r7, lr}
    37f6:	b08c      	sub	sp, #48	; 0x30
    37f8:	900b      	str	r0, [sp, #44]	; 0x2c
    37fa:	910a      	str	r1, [sp, #40]	; 0x28
    37fc:	a80b      	add	r0, sp, #44	; 0x2c
    37fe:	9000      	str	r0, [sp, #0]
    3800:	4808      	ldr	r0, [pc, #32]	; (3824 <_ZN4core5slice22slice_index_order_fail17h645d2e1a34e44416E+0x30>)
    3802:	9001      	str	r0, [sp, #4]
    3804:	a90a      	add	r1, sp, #40	; 0x28
    3806:	9102      	str	r1, [sp, #8]
    3808:	9003      	str	r0, [sp, #12]
    380a:	4807      	ldr	r0, [pc, #28]	; (3828 <_ZN4core5slice22slice_index_order_fail17h645d2e1a34e44416E+0x34>)
    380c:	9004      	str	r0, [sp, #16]
    380e:	2002      	movs	r0, #2
    3810:	9005      	str	r0, [sp, #20]
    3812:	2100      	movs	r1, #0
    3814:	9106      	str	r1, [sp, #24]
    3816:	4669      	mov	r1, sp
    3818:	9108      	str	r1, [sp, #32]
    381a:	9009      	str	r0, [sp, #36]	; 0x24
    381c:	a804      	add	r0, sp, #16
    381e:	4903      	ldr	r1, [pc, #12]	; (382c <_ZN4core5slice22slice_index_order_fail17h645d2e1a34e44416E+0x38>)
    3820:	f7ff ffb2 	bl	3788 <_ZN4core9panicking9panic_fmt17h91e1529369fc5cb7E>
    3824:	00004325 	.word	0x00004325
    3828:	0000cd94 	.word	0x0000cd94
    382c:	0000ca74 	.word	0x0000ca74

00003830 <_ZN4core3str16slice_error_fail17hd13f4c2b5291c732E>:
    3830:	b5f0      	push	{r4, r5, r6, r7, lr}
    3832:	b095      	sub	sp, #84	; 0x54
    3834:	9214      	str	r2, [sp, #80]	; 0x50
    3836:	9313      	str	r3, [sp, #76]	; 0x4c
    3838:	25ff      	movs	r5, #255	; 0xff
    383a:	462e      	mov	r6, r5
    383c:	3602      	adds	r6, #2
    383e:	2401      	movs	r4, #1
    3840:	42b1      	cmp	r1, r6
    3842:	d358      	bcc.n	38f6 <_ZN4core3str16slice_error_fail17hd13f4c2b5291c732E+0xc6>
    3844:	1c6e      	adds	r6, r5, #1
    3846:	428e      	cmp	r6, r1
    3848:	d206      	bcs.n	3858 <_ZN4core3str16slice_error_fail17hd13f4c2b5291c732E+0x28>
    384a:	1944      	adds	r4, r0, r5
    384c:	2701      	movs	r7, #1
    384e:	57e4      	ldrsb	r4, [r4, r7]
    3850:	2740      	movs	r7, #64	; 0x40
    3852:	43ff      	mvns	r7, r7
    3854:	42bc      	cmp	r4, r7
    3856:	dc06      	bgt.n	3866 <_ZN4core3str16slice_error_fail17hd13f4c2b5291c732E+0x36>
    3858:	1e6c      	subs	r4, r5, #1
    385a:	2d00      	cmp	r5, #0
    385c:	d002      	beq.n	3864 <_ZN4core3str16slice_error_fail17hd13f4c2b5291c732E+0x34>
    385e:	42a9      	cmp	r1, r5
    3860:	4625      	mov	r5, r4
    3862:	d1ef      	bne.n	3844 <_ZN4core3str16slice_error_fail17hd13f4c2b5291c732E+0x14>
    3864:	1c66      	adds	r6, r4, #1
    3866:	2400      	movs	r4, #0
    3868:	9011      	str	r0, [sp, #68]	; 0x44
    386a:	9612      	str	r6, [sp, #72]	; 0x48
    386c:	2c00      	cmp	r4, #0
    386e:	d101      	bne.n	3874 <_ZN4core3str16slice_error_fail17hd13f4c2b5291c732E+0x44>
    3870:	4823      	ldr	r0, [pc, #140]	; (3900 <_ZN4core3str16slice_error_fail17hd13f4c2b5291c732E+0xd0>)
    3872:	e000      	b.n	3876 <_ZN4core3str16slice_error_fail17hd13f4c2b5291c732E+0x46>
    3874:	4821      	ldr	r0, [pc, #132]	; (38fc <_ZN4core3str16slice_error_fail17hd13f4c2b5291c732E+0xcc>)
    3876:	900f      	str	r0, [sp, #60]	; 0x3c
    3878:	2000      	movs	r0, #0
    387a:	2105      	movs	r1, #5
    387c:	2c00      	cmp	r4, #0
    387e:	d100      	bne.n	3882 <_ZN4core3str16slice_error_fail17hd13f4c2b5291c732E+0x52>
    3880:	4608      	mov	r0, r1
    3882:	9010      	str	r0, [sp, #64]	; 0x40
    3884:	429a      	cmp	r2, r3
    3886:	d91a      	bls.n	38be <_ZN4core3str16slice_error_fail17hd13f4c2b5291c732E+0x8e>
    3888:	a814      	add	r0, sp, #80	; 0x50
    388a:	9001      	str	r0, [sp, #4]
    388c:	481d      	ldr	r0, [pc, #116]	; (3904 <_ZN4core3str16slice_error_fail17hd13f4c2b5291c732E+0xd4>)
    388e:	9002      	str	r0, [sp, #8]
    3890:	a913      	add	r1, sp, #76	; 0x4c
    3892:	9103      	str	r1, [sp, #12]
    3894:	9004      	str	r0, [sp, #16]
    3896:	a811      	add	r0, sp, #68	; 0x44
    3898:	9005      	str	r0, [sp, #20]
    389a:	481b      	ldr	r0, [pc, #108]	; (3908 <_ZN4core3str16slice_error_fail17hd13f4c2b5291c732E+0xd8>)
    389c:	9006      	str	r0, [sp, #24]
    389e:	a90f      	add	r1, sp, #60	; 0x3c
    38a0:	9107      	str	r1, [sp, #28]
    38a2:	9008      	str	r0, [sp, #32]
    38a4:	481b      	ldr	r0, [pc, #108]	; (3914 <_ZN4core3str16slice_error_fail17hd13f4c2b5291c732E+0xe4>)
    38a6:	9009      	str	r0, [sp, #36]	; 0x24
    38a8:	2004      	movs	r0, #4
    38aa:	900a      	str	r0, [sp, #40]	; 0x28
    38ac:	2100      	movs	r1, #0
    38ae:	910b      	str	r1, [sp, #44]	; 0x2c
    38b0:	a901      	add	r1, sp, #4
    38b2:	910d      	str	r1, [sp, #52]	; 0x34
    38b4:	900e      	str	r0, [sp, #56]	; 0x38
    38b6:	a809      	add	r0, sp, #36	; 0x24
    38b8:	4917      	ldr	r1, [pc, #92]	; (3918 <_ZN4core3str16slice_error_fail17hd13f4c2b5291c732E+0xe8>)
    38ba:	f7ff ff65 	bl	3788 <_ZN4core9panicking9panic_fmt17h91e1529369fc5cb7E>
    38be:	a814      	add	r0, sp, #80	; 0x50
    38c0:	9001      	str	r0, [sp, #4]
    38c2:	4810      	ldr	r0, [pc, #64]	; (3904 <_ZN4core3str16slice_error_fail17hd13f4c2b5291c732E+0xd4>)
    38c4:	9002      	str	r0, [sp, #8]
    38c6:	a913      	add	r1, sp, #76	; 0x4c
    38c8:	9103      	str	r1, [sp, #12]
    38ca:	9004      	str	r0, [sp, #16]
    38cc:	a811      	add	r0, sp, #68	; 0x44
    38ce:	9005      	str	r0, [sp, #20]
    38d0:	480d      	ldr	r0, [pc, #52]	; (3908 <_ZN4core3str16slice_error_fail17hd13f4c2b5291c732E+0xd8>)
    38d2:	9006      	str	r0, [sp, #24]
    38d4:	a90f      	add	r1, sp, #60	; 0x3c
    38d6:	9107      	str	r1, [sp, #28]
    38d8:	9008      	str	r0, [sp, #32]
    38da:	480c      	ldr	r0, [pc, #48]	; (390c <_ZN4core3str16slice_error_fail17hd13f4c2b5291c732E+0xdc>)
    38dc:	9009      	str	r0, [sp, #36]	; 0x24
    38de:	2005      	movs	r0, #5
    38e0:	900a      	str	r0, [sp, #40]	; 0x28
    38e2:	2000      	movs	r0, #0
    38e4:	900b      	str	r0, [sp, #44]	; 0x2c
    38e6:	a801      	add	r0, sp, #4
    38e8:	900d      	str	r0, [sp, #52]	; 0x34
    38ea:	2004      	movs	r0, #4
    38ec:	900e      	str	r0, [sp, #56]	; 0x38
    38ee:	a809      	add	r0, sp, #36	; 0x24
    38f0:	4907      	ldr	r1, [pc, #28]	; (3910 <_ZN4core3str16slice_error_fail17hd13f4c2b5291c732E+0xe0>)
    38f2:	f7ff ff49 	bl	3788 <_ZN4core9panicking9panic_fmt17h91e1529369fc5cb7E>
    38f6:	460e      	mov	r6, r1
    38f8:	e7b6      	b.n	3868 <_ZN4core3str16slice_error_fail17hd13f4c2b5291c732E+0x38>
    38fa:	46c0      	nop			; (mov r8, r8)
    38fc:	0000ca98 	.word	0x0000ca98
    3900:	0000cb93 	.word	0x0000cb93
    3904:	00004325 	.word	0x00004325
    3908:	000043fd 	.word	0x000043fd
    390c:	0000ce24 	.word	0x0000ce24
    3910:	0000ca8c 	.word	0x0000ca8c
    3914:	0000cdc8 	.word	0x0000cdc8
    3918:	0000ca80 	.word	0x0000ca80

0000391c <_ZN4core3fmt10ArgumentV110show_usize17h728b70647d4687acE>:
    391c:	b580      	push	{r7, lr}
    391e:	f000 fd01 	bl	4324 <_ZN4core3fmt3num54_$LT$impl$u20$core..fmt..Display$u20$for$u20$usize$GT$3fmt17h1c040bb55b3b1573E>
    3922:	bd80      	pop	{r7, pc}

00003924 <_ZN73_$LT$core..fmt..Arguments$LT$$u27$a$GT$$u20$as$u20$core..fmt..Display$GT$3fmt17h11ae6fe11509f108E>:
    3924:	b5f0      	push	{r4, r5, r6, r7, lr}
    3926:	b087      	sub	sp, #28
    3928:	69cb      	ldr	r3, [r1, #28]
    392a:	6a09      	ldr	r1, [r1, #32]
    392c:	aa01      	add	r2, sp, #4
    392e:	4614      	mov	r4, r2
    3930:	c8e0      	ldmia	r0!, {r5, r6, r7}
    3932:	c4e0      	stmia	r4!, {r5, r6, r7}
    3934:	c8e0      	ldmia	r0!, {r5, r6, r7}
    3936:	c4e0      	stmia	r4!, {r5, r6, r7}
    3938:	4618      	mov	r0, r3
    393a:	f000 f803 	bl	3944 <_ZN4core3fmt5write17h56e3d15cb4a744eaE>
    393e:	b007      	add	sp, #28
    3940:	bdf0      	pop	{r4, r5, r6, r7, pc}
    3942:	Address 0x0000000000003942 is out of bounds.


00003944 <_ZN4core3fmt5write17h56e3d15cb4a744eaE>:
    3944:	b5f0      	push	{r4, r5, r6, r7, lr}
    3946:	b099      	sub	sp, #100	; 0x64
    3948:	910b      	str	r1, [sp, #44]	; 0x2c
    394a:	9009      	str	r0, [sp, #36]	; 0x24
    394c:	ca32      	ldmia	r2!, {r1, r4, r5}
    394e:	6810      	ldr	r0, [r2, #0]
    3950:	9008      	str	r0, [sp, #32]
    3952:	6857      	ldr	r7, [r2, #4]
    3954:	6892      	ldr	r2, [r2, #8]
    3956:	2300      	movs	r3, #0
    3958:	930c      	str	r3, [sp, #48]	; 0x30
    395a:	2620      	movs	r6, #32
    395c:	960d      	str	r6, [sp, #52]	; 0x34
    395e:	ae0c      	add	r6, sp, #48	; 0x30
    3960:	2003      	movs	r0, #3
    3962:	900a      	str	r0, [sp, #40]	; 0x28
    3964:	7230      	strb	r0, [r6, #8]
    3966:	930f      	str	r3, [sp, #60]	; 0x3c
    3968:	9302      	str	r3, [sp, #8]
    396a:	9311      	str	r3, [sp, #68]	; 0x44
    396c:	9809      	ldr	r0, [sp, #36]	; 0x24
    396e:	9013      	str	r0, [sp, #76]	; 0x4c
    3970:	980b      	ldr	r0, [sp, #44]	; 0x2c
    3972:	9014      	str	r0, [sp, #80]	; 0x50
    3974:	9715      	str	r7, [sp, #84]	; 0x54
    3976:	00d0      	lsls	r0, r2, #3
    3978:	183b      	adds	r3, r7, r0
    397a:	9316      	str	r3, [sp, #88]	; 0x58
    397c:	9717      	str	r7, [sp, #92]	; 0x5c
    397e:	9218      	str	r2, [sp, #96]	; 0x60
    3980:	00e0      	lsls	r0, r4, #3
    3982:	460a      	mov	r2, r1
    3984:	900b      	str	r0, [sp, #44]	; 0x2c
    3986:	1808      	adds	r0, r1, r0
    3988:	9000      	str	r0, [sp, #0]
    398a:	2007      	movs	r0, #7
    398c:	43c0      	mvns	r0, r0
    398e:	9006      	str	r0, [sp, #24]
    3990:	2d00      	cmp	r5, #0
    3992:	d100      	bne.n	3996 <_ZN4core3fmt5write17h56e3d15cb4a744eaE+0x52>
    3994:	e0c6      	b.n	3b24 <_ZN4core3fmt5write17h56e3d15cb4a744eaE+0x1e0>
    3996:	2624      	movs	r6, #36	; 0x24
    3998:	9808      	ldr	r0, [sp, #32]
    399a:	4346      	muls	r6, r0
    399c:	1d28      	adds	r0, r5, #4
    399e:	9009      	str	r0, [sp, #36]	; 0x24
    39a0:	a80c      	add	r0, sp, #48	; 0x30
    39a2:	4601      	mov	r1, r0
    39a4:	3114      	adds	r1, #20
    39a6:	9104      	str	r1, [sp, #16]
    39a8:	300c      	adds	r0, #12
    39aa:	9005      	str	r0, [sp, #20]
    39ac:	4614      	mov	r4, r2
    39ae:	2e00      	cmp	r6, #0
    39b0:	d100      	bne.n	39b4 <_ZN4core3fmt5write17h56e3d15cb4a744eaE+0x70>
    39b2:	e0dc      	b.n	3b6e <_ZN4core3fmt5write17h56e3d15cb4a744eaE+0x22a>
    39b4:	462f      	mov	r7, r5
    39b6:	3724      	adds	r7, #36	; 0x24
    39b8:	980b      	ldr	r0, [sp, #44]	; 0x2c
    39ba:	2800      	cmp	r0, #0
    39bc:	d100      	bne.n	39c0 <_ZN4core3fmt5write17h56e3d15cb4a744eaE+0x7c>
    39be:	e0e6      	b.n	3b8e <_ZN4core3fmt5write17h56e3d15cb4a744eaE+0x24a>
    39c0:	9814      	ldr	r0, [sp, #80]	; 0x50
    39c2:	68c3      	ldr	r3, [r0, #12]
    39c4:	cc06      	ldmia	r4!, {r1, r2}
    39c6:	9813      	ldr	r0, [sp, #76]	; 0x4c
    39c8:	3c08      	subs	r4, #8
    39ca:	4798      	blx	r3
    39cc:	3408      	adds	r4, #8
    39ce:	21ff      	movs	r1, #255	; 0xff
    39d0:	4208      	tst	r0, r1
    39d2:	d000      	beq.n	39d6 <_ZN4core3fmt5write17h56e3d15cb4a744eaE+0x92>
    39d4:	e0d8      	b.n	3b88 <_ZN4core3fmt5write17h56e3d15cb4a744eaE+0x244>
    39d6:	9107      	str	r1, [sp, #28]
    39d8:	68a8      	ldr	r0, [r5, #8]
    39da:	900d      	str	r0, [sp, #52]	; 0x34
    39dc:	7b28      	ldrb	r0, [r5, #12]
    39de:	a90c      	add	r1, sp, #48	; 0x30
    39e0:	7208      	strb	r0, [r1, #8]
    39e2:	6928      	ldr	r0, [r5, #16]
    39e4:	900c      	str	r0, [sp, #48]	; 0x30
    39e6:	69ea      	ldr	r2, [r5, #28]
    39e8:	980a      	ldr	r0, [sp, #40]	; 0x28
    39ea:	4002      	ands	r2, r0
    39ec:	2001      	movs	r0, #1
    39ee:	2a03      	cmp	r2, #3
    39f0:	9408      	str	r4, [sp, #32]
    39f2:	d013      	beq.n	3a1c <_ZN4core3fmt5write17h56e3d15cb4a744eaE+0xd8>
    39f4:	2a02      	cmp	r2, #2
    39f6:	d014      	beq.n	3a22 <_ZN4core3fmt5write17h56e3d15cb4a744eaE+0xde>
    39f8:	6a29      	ldr	r1, [r5, #32]
    39fa:	2a01      	cmp	r2, #1
    39fc:	d125      	bne.n	3a4a <_ZN4core3fmt5write17h56e3d15cb4a744eaE+0x106>
    39fe:	9003      	str	r0, [sp, #12]
    3a00:	9a18      	ldr	r2, [sp, #96]	; 0x60
    3a02:	428a      	cmp	r2, r1
    3a04:	d800      	bhi.n	3a08 <_ZN4core3fmt5write17h56e3d15cb4a744eaE+0xc4>
    3a06:	e0cb      	b.n	3ba0 <_ZN4core3fmt5write17h56e3d15cb4a744eaE+0x25c>
    3a08:	00c9      	lsls	r1, r1, #3
    3a0a:	9b17      	ldr	r3, [sp, #92]	; 0x5c
    3a0c:	185a      	adds	r2, r3, r1
    3a0e:	6854      	ldr	r4, [r2, #4]
    3a10:	2200      	movs	r2, #0
    3a12:	4866      	ldr	r0, [pc, #408]	; (3bac <_ZN4core3fmt5write17h56e3d15cb4a744eaE+0x268>)
    3a14:	4284      	cmp	r4, r0
    3a16:	d11b      	bne.n	3a50 <_ZN4core3fmt5write17h56e3d15cb4a744eaE+0x10c>
    3a18:	5859      	ldr	r1, [r3, r1]
    3a1a:	e012      	b.n	3a42 <_ZN4core3fmt5write17h56e3d15cb4a744eaE+0xfe>
    3a1c:	2300      	movs	r3, #0
    3a1e:	461a      	mov	r2, r3
    3a20:	e018      	b.n	3a54 <_ZN4core3fmt5write17h56e3d15cb4a744eaE+0x110>
    3a22:	2300      	movs	r3, #0
    3a24:	9c15      	ldr	r4, [sp, #84]	; 0x54
    3a26:	9916      	ldr	r1, [sp, #88]	; 0x58
    3a28:	428c      	cmp	r4, r1
    3a2a:	461a      	mov	r2, r3
    3a2c:	d012      	beq.n	3a54 <_ZN4core3fmt5write17h56e3d15cb4a744eaE+0x110>
    3a2e:	9003      	str	r0, [sp, #12]
    3a30:	4621      	mov	r1, r4
    3a32:	3108      	adds	r1, #8
    3a34:	9115      	str	r1, [sp, #84]	; 0x54
    3a36:	6861      	ldr	r1, [r4, #4]
    3a38:	2200      	movs	r2, #0
    3a3a:	485c      	ldr	r0, [pc, #368]	; (3bac <_ZN4core3fmt5write17h56e3d15cb4a744eaE+0x268>)
    3a3c:	4281      	cmp	r1, r0
    3a3e:	d107      	bne.n	3a50 <_ZN4core3fmt5write17h56e3d15cb4a744eaE+0x10c>
    3a40:	6821      	ldr	r1, [r4, #0]
    3a42:	6809      	ldr	r1, [r1, #0]
    3a44:	9803      	ldr	r0, [sp, #12]
    3a46:	4603      	mov	r3, r0
    3a48:	e004      	b.n	3a54 <_ZN4core3fmt5write17h56e3d15cb4a744eaE+0x110>
    3a4a:	4603      	mov	r3, r0
    3a4c:	9a02      	ldr	r2, [sp, #8]
    3a4e:	e001      	b.n	3a54 <_ZN4core3fmt5write17h56e3d15cb4a744eaE+0x110>
    3a50:	4613      	mov	r3, r2
    3a52:	9803      	ldr	r0, [sp, #12]
    3a54:	4311      	orrs	r1, r2
    3a56:	9a05      	ldr	r2, [sp, #20]
    3a58:	6013      	str	r3, [r2, #0]
    3a5a:	6051      	str	r1, [r2, #4]
    3a5c:	696a      	ldr	r2, [r5, #20]
    3a5e:	990a      	ldr	r1, [sp, #40]	; 0x28
    3a60:	400a      	ands	r2, r1
    3a62:	2a03      	cmp	r2, #3
    3a64:	d019      	beq.n	3a9a <_ZN4core3fmt5write17h56e3d15cb4a744eaE+0x156>
    3a66:	2a02      	cmp	r2, #2
    3a68:	d01a      	beq.n	3aa0 <_ZN4core3fmt5write17h56e3d15cb4a744eaE+0x15c>
    3a6a:	69a9      	ldr	r1, [r5, #24]
    3a6c:	2a01      	cmp	r2, #1
    3a6e:	d129      	bne.n	3ac4 <_ZN4core3fmt5write17h56e3d15cb4a744eaE+0x180>
    3a70:	4604      	mov	r4, r0
    3a72:	9a18      	ldr	r2, [sp, #96]	; 0x60
    3a74:	428a      	cmp	r2, r1
    3a76:	d800      	bhi.n	3a7a <_ZN4core3fmt5write17h56e3d15cb4a744eaE+0x136>
    3a78:	e095      	b.n	3ba6 <_ZN4core3fmt5write17h56e3d15cb4a744eaE+0x262>
    3a7a:	00c8      	lsls	r0, r1, #3
    3a7c:	9b17      	ldr	r3, [sp, #92]	; 0x5c
    3a7e:	9001      	str	r0, [sp, #4]
    3a80:	181a      	adds	r2, r3, r0
    3a82:	6850      	ldr	r0, [r2, #4]
    3a84:	9003      	str	r0, [sp, #12]
    3a86:	2200      	movs	r2, #0
    3a88:	4848      	ldr	r0, [pc, #288]	; (3bac <_ZN4core3fmt5write17h56e3d15cb4a744eaE+0x268>)
    3a8a:	9903      	ldr	r1, [sp, #12]
    3a8c:	4281      	cmp	r1, r0
    3a8e:	d11c      	bne.n	3aca <_ZN4core3fmt5write17h56e3d15cb4a744eaE+0x186>
    3a90:	9801      	ldr	r0, [sp, #4]
    3a92:	5819      	ldr	r1, [r3, r0]
    3a94:	6809      	ldr	r1, [r1, #0]
    3a96:	4623      	mov	r3, r4
    3a98:	e018      	b.n	3acc <_ZN4core3fmt5write17h56e3d15cb4a744eaE+0x188>
    3a9a:	2300      	movs	r3, #0
    3a9c:	461a      	mov	r2, r3
    3a9e:	e015      	b.n	3acc <_ZN4core3fmt5write17h56e3d15cb4a744eaE+0x188>
    3aa0:	2300      	movs	r3, #0
    3aa2:	9c15      	ldr	r4, [sp, #84]	; 0x54
    3aa4:	9916      	ldr	r1, [sp, #88]	; 0x58
    3aa6:	428c      	cmp	r4, r1
    3aa8:	461a      	mov	r2, r3
    3aaa:	d00f      	beq.n	3acc <_ZN4core3fmt5write17h56e3d15cb4a744eaE+0x188>
    3aac:	4621      	mov	r1, r4
    3aae:	3108      	adds	r1, #8
    3ab0:	9115      	str	r1, [sp, #84]	; 0x54
    3ab2:	6861      	ldr	r1, [r4, #4]
    3ab4:	2200      	movs	r2, #0
    3ab6:	4b3d      	ldr	r3, [pc, #244]	; (3bac <_ZN4core3fmt5write17h56e3d15cb4a744eaE+0x268>)
    3ab8:	4299      	cmp	r1, r3
    3aba:	d106      	bne.n	3aca <_ZN4core3fmt5write17h56e3d15cb4a744eaE+0x186>
    3abc:	6821      	ldr	r1, [r4, #0]
    3abe:	6809      	ldr	r1, [r1, #0]
    3ac0:	4603      	mov	r3, r0
    3ac2:	e003      	b.n	3acc <_ZN4core3fmt5write17h56e3d15cb4a744eaE+0x188>
    3ac4:	4603      	mov	r3, r0
    3ac6:	9a02      	ldr	r2, [sp, #8]
    3ac8:	e000      	b.n	3acc <_ZN4core3fmt5write17h56e3d15cb4a744eaE+0x188>
    3aca:	4613      	mov	r3, r2
    3acc:	4311      	orrs	r1, r2
    3ace:	9804      	ldr	r0, [sp, #16]
    3ad0:	6003      	str	r3, [r0, #0]
    3ad2:	6041      	str	r1, [r0, #4]
    3ad4:	6828      	ldr	r0, [r5, #0]
    3ad6:	2801      	cmp	r0, #1
    3ad8:	d109      	bne.n	3aee <_ZN4core3fmt5write17h56e3d15cb4a744eaE+0x1aa>
    3ada:	9d09      	ldr	r5, [sp, #36]	; 0x24
    3adc:	6829      	ldr	r1, [r5, #0]
    3ade:	9a18      	ldr	r2, [sp, #96]	; 0x60
    3ae0:	4291      	cmp	r1, r2
    3ae2:	9c08      	ldr	r4, [sp, #32]
    3ae4:	d256      	bcs.n	3b94 <_ZN4core3fmt5write17h56e3d15cb4a744eaE+0x250>
    3ae6:	00c8      	lsls	r0, r1, #3
    3ae8:	9917      	ldr	r1, [sp, #92]	; 0x5c
    3aea:	1808      	adds	r0, r1, r0
    3aec:	e008      	b.n	3b00 <_ZN4core3fmt5write17h56e3d15cb4a744eaE+0x1bc>
    3aee:	9815      	ldr	r0, [sp, #84]	; 0x54
    3af0:	9916      	ldr	r1, [sp, #88]	; 0x58
    3af2:	4288      	cmp	r0, r1
    3af4:	9c08      	ldr	r4, [sp, #32]
    3af6:	9d09      	ldr	r5, [sp, #36]	; 0x24
    3af8:	d04f      	beq.n	3b9a <_ZN4core3fmt5write17h56e3d15cb4a744eaE+0x256>
    3afa:	4601      	mov	r1, r0
    3afc:	3108      	adds	r1, #8
    3afe:	9115      	str	r1, [sp, #84]	; 0x54
    3b00:	1d01      	adds	r1, r0, #4
    3b02:	6800      	ldr	r0, [r0, #0]
    3b04:	680a      	ldr	r2, [r1, #0]
    3b06:	a90c      	add	r1, sp, #48	; 0x30
    3b08:	4790      	blx	r2
    3b0a:	9906      	ldr	r1, [sp, #24]
    3b0c:	9a0b      	ldr	r2, [sp, #44]	; 0x2c
    3b0e:	1852      	adds	r2, r2, r1
    3b10:	920b      	str	r2, [sp, #44]	; 0x2c
    3b12:	1876      	adds	r6, r6, r1
    3b14:	3e1c      	subs	r6, #28
    3b16:	3524      	adds	r5, #36	; 0x24
    3b18:	9509      	str	r5, [sp, #36]	; 0x24
    3b1a:	9907      	ldr	r1, [sp, #28]
    3b1c:	4208      	tst	r0, r1
    3b1e:	463d      	mov	r5, r7
    3b20:	d132      	bne.n	3b88 <_ZN4core3fmt5write17h56e3d15cb4a744eaE+0x244>
    3b22:	e744      	b.n	39ae <_ZN4core3fmt5write17h56e3d15cb4a744eaE+0x6a>
    3b24:	930a      	str	r3, [sp, #40]	; 0x28
    3b26:	00e0      	lsls	r0, r4, #3
    3b28:	900b      	str	r0, [sp, #44]	; 0x2c
    3b2a:	4614      	mov	r4, r2
    3b2c:	980a      	ldr	r0, [sp, #40]	; 0x28
    3b2e:	4287      	cmp	r7, r0
    3b30:	d01d      	beq.n	3b6e <_ZN4core3fmt5write17h56e3d15cb4a744eaE+0x22a>
    3b32:	463e      	mov	r6, r7
    3b34:	3608      	adds	r6, #8
    3b36:	980b      	ldr	r0, [sp, #44]	; 0x2c
    3b38:	2800      	cmp	r0, #0
    3b3a:	d028      	beq.n	3b8e <_ZN4core3fmt5write17h56e3d15cb4a744eaE+0x24a>
    3b3c:	4622      	mov	r2, r4
    3b3e:	3408      	adds	r4, #8
    3b40:	2f00      	cmp	r7, #0
    3b42:	d012      	beq.n	3b6a <_ZN4core3fmt5write17h56e3d15cb4a744eaE+0x226>
    3b44:	9814      	ldr	r0, [sp, #80]	; 0x50
    3b46:	68c3      	ldr	r3, [r0, #12]
    3b48:	ca06      	ldmia	r2, {r1, r2}
    3b4a:	9813      	ldr	r0, [sp, #76]	; 0x4c
    3b4c:	4798      	blx	r3
    3b4e:	25ff      	movs	r5, #255	; 0xff
    3b50:	4228      	tst	r0, r5
    3b52:	d119      	bne.n	3b88 <_ZN4core3fmt5write17h56e3d15cb4a744eaE+0x244>
    3b54:	cf05      	ldmia	r7!, {r0, r2}
    3b56:	a90c      	add	r1, sp, #48	; 0x30
    3b58:	4790      	blx	r2
    3b5a:	9906      	ldr	r1, [sp, #24]
    3b5c:	9a0b      	ldr	r2, [sp, #44]	; 0x2c
    3b5e:	1852      	adds	r2, r2, r1
    3b60:	920b      	str	r2, [sp, #44]	; 0x2c
    3b62:	4228      	tst	r0, r5
    3b64:	4637      	mov	r7, r6
    3b66:	d0e1      	beq.n	3b2c <_ZN4core3fmt5write17h56e3d15cb4a744eaE+0x1e8>
    3b68:	e00e      	b.n	3b88 <_ZN4core3fmt5write17h56e3d15cb4a744eaE+0x244>
    3b6a:	3208      	adds	r2, #8
    3b6c:	4614      	mov	r4, r2
    3b6e:	9800      	ldr	r0, [sp, #0]
    3b70:	4284      	cmp	r4, r0
    3b72:	d00c      	beq.n	3b8e <_ZN4core3fmt5write17h56e3d15cb4a744eaE+0x24a>
    3b74:	2c00      	cmp	r4, #0
    3b76:	d00a      	beq.n	3b8e <_ZN4core3fmt5write17h56e3d15cb4a744eaE+0x24a>
    3b78:	9814      	ldr	r0, [sp, #80]	; 0x50
    3b7a:	68c3      	ldr	r3, [r0, #12]
    3b7c:	cc06      	ldmia	r4!, {r1, r2}
    3b7e:	9813      	ldr	r0, [sp, #76]	; 0x4c
    3b80:	4798      	blx	r3
    3b82:	21ff      	movs	r1, #255	; 0xff
    3b84:	4208      	tst	r0, r1
    3b86:	d002      	beq.n	3b8e <_ZN4core3fmt5write17h56e3d15cb4a744eaE+0x24a>
    3b88:	2001      	movs	r0, #1
    3b8a:	b019      	add	sp, #100	; 0x64
    3b8c:	bdf0      	pop	{r4, r5, r6, r7, pc}
    3b8e:	2000      	movs	r0, #0
    3b90:	b019      	add	sp, #100	; 0x64
    3b92:	bdf0      	pop	{r4, r5, r6, r7, pc}
    3b94:	4808      	ldr	r0, [pc, #32]	; (3bb8 <_ZN4core3fmt5write17h56e3d15cb4a744eaE+0x274>)
    3b96:	f7ff fdd9 	bl	374c <_ZN4core9panicking18panic_bounds_check17h613d9849b01f883fE>
    3b9a:	4806      	ldr	r0, [pc, #24]	; (3bb4 <_ZN4core3fmt5write17h56e3d15cb4a744eaE+0x270>)
    3b9c:	f7ff fdbe 	bl	371c <_ZN4core9panicking5panic17hf227f8d5d60b7e39E>
    3ba0:	4803      	ldr	r0, [pc, #12]	; (3bb0 <_ZN4core3fmt5write17h56e3d15cb4a744eaE+0x26c>)
    3ba2:	f7ff fdd3 	bl	374c <_ZN4core9panicking18panic_bounds_check17h613d9849b01f883fE>
    3ba6:	4802      	ldr	r0, [pc, #8]	; (3bb0 <_ZN4core3fmt5write17h56e3d15cb4a744eaE+0x26c>)
    3ba8:	f7ff fdd0 	bl	374c <_ZN4core9panicking18panic_bounds_check17h613d9849b01f883fE>
    3bac:	0000391d 	.word	0x0000391d
    3bb0:	0000cc20 	.word	0x0000cc20
    3bb4:	0000ca54 	.word	0x0000ca54
    3bb8:	0000cc14 	.word	0x0000cc14

00003bbc <_ZN4core3fmt9Formatter12pad_integral17h659d112ebaa6d17eE>:
    3bbc:	b5f0      	push	{r4, r5, r6, r7, lr}
    3bbe:	b095      	sub	sp, #84	; 0x54
    3bc0:	9211      	str	r2, [sp, #68]	; 0x44
    3bc2:	9312      	str	r3, [sp, #72]	; 0x48
    3bc4:	2500      	movs	r5, #0
    3bc6:	950f      	str	r5, [sp, #60]	; 0x3c
    3bc8:	2680      	movs	r6, #128	; 0x80
    3bca:	9f1b      	ldr	r7, [sp, #108]	; 0x6c
    3bcc:	2900      	cmp	r1, #0
    3bce:	d007      	beq.n	3be0 <_ZN4core3fmt9Formatter12pad_integral17h659d112ebaa6d17eE+0x24>
    3bd0:	6801      	ldr	r1, [r0, #0]
    3bd2:	2401      	movs	r4, #1
    3bd4:	9108      	str	r1, [sp, #32]
    3bd6:	4221      	tst	r1, r4
    3bd8:	4601      	mov	r1, r0
    3bda:	d10a      	bne.n	3bf2 <_ZN4core3fmt9Formatter12pad_integral17h659d112ebaa6d17eE+0x36>
    3bdc:	9709      	str	r7, [sp, #36]	; 0x24
    3bde:	e00d      	b.n	3bfc <_ZN4core3fmt9Formatter12pad_integral17h659d112ebaa6d17eE+0x40>
    3be0:	2101      	movs	r1, #1
    3be2:	910f      	str	r1, [sp, #60]	; 0x3c
    3be4:	212d      	movs	r1, #45	; 0x2d
    3be6:	9110      	str	r1, [sp, #64]	; 0x40
    3be8:	1c79      	adds	r1, r7, #1
    3bea:	9109      	str	r1, [sp, #36]	; 0x24
    3bec:	6804      	ldr	r4, [r0, #0]
    3bee:	4601      	mov	r1, r0
    3bf0:	e005      	b.n	3bfe <_ZN4core3fmt9Formatter12pad_integral17h659d112ebaa6d17eE+0x42>
    3bf2:	940f      	str	r4, [sp, #60]	; 0x3c
    3bf4:	202b      	movs	r0, #43	; 0x2b
    3bf6:	9010      	str	r0, [sp, #64]	; 0x40
    3bf8:	1c78      	adds	r0, r7, #1
    3bfa:	9009      	str	r0, [sp, #36]	; 0x24
    3bfc:	9c08      	ldr	r4, [sp, #32]
    3bfe:	9408      	str	r4, [sp, #32]
    3c00:	a80e      	add	r0, sp, #56	; 0x38
    3c02:	7005      	strb	r5, [r0, #0]
    3c04:	2004      	movs	r0, #4
    3c06:	9006      	str	r0, [sp, #24]
    3c08:	4204      	tst	r4, r0
    3c0a:	910a      	str	r1, [sp, #40]	; 0x28
    3c0c:	9707      	str	r7, [sp, #28]
    3c0e:	d101      	bne.n	3c14 <_ZN4core3fmt9Formatter12pad_integral17h659d112ebaa6d17eE+0x58>
    3c10:	9a09      	ldr	r2, [sp, #36]	; 0x24
    3c12:	e033      	b.n	3c7c <_ZN4core3fmt9Formatter12pad_integral17h659d112ebaa6d17eE+0xc0>
    3c14:	a80e      	add	r0, sp, #56	; 0x38
    3c16:	2101      	movs	r1, #1
    3c18:	7001      	strb	r1, [r0, #0]
    3c1a:	18d1      	adds	r1, r2, r3
    3c1c:	2b00      	cmp	r3, #0
    3c1e:	d02a      	beq.n	3c76 <_ZN4core3fmt9Formatter12pad_integral17h659d112ebaa6d17eE+0xba>
    3c20:	2500      	movs	r5, #0
    3c22:	1c53      	adds	r3, r2, #1
    3c24:	7810      	ldrb	r0, [r2, #0]
    3c26:	b240      	sxtb	r0, r0
    3c28:	4634      	mov	r4, r6
    3c2a:	347f      	adds	r4, #127	; 0x7f
    3c2c:	b264      	sxtb	r4, r4
    3c2e:	42a0      	cmp	r0, r4
    3c30:	dc1d      	bgt.n	3c6e <_ZN4core3fmt9Formatter12pad_integral17h659d112ebaa6d17eE+0xb2>
    3c32:	1c97      	adds	r7, r2, #2
    3c34:	428b      	cmp	r3, r1
    3c36:	463c      	mov	r4, r7
    3c38:	d100      	bne.n	3c3c <_ZN4core3fmt9Formatter12pad_integral17h659d112ebaa6d17eE+0x80>
    3c3a:	461c      	mov	r4, r3
    3c3c:	b2c2      	uxtb	r2, r0
    3c3e:	428b      	cmp	r3, r1
    3c40:	d000      	beq.n	3c44 <_ZN4core3fmt9Formatter12pad_integral17h659d112ebaa6d17eE+0x88>
    3c42:	463b      	mov	r3, r7
    3c44:	4630      	mov	r0, r6
    3c46:	305f      	adds	r0, #95	; 0x5f
    3c48:	b2c0      	uxtb	r0, r0
    3c4a:	4282      	cmp	r2, r0
    3c4c:	d90f      	bls.n	3c6e <_ZN4core3fmt9Formatter12pad_integral17h659d112ebaa6d17eE+0xb2>
    3c4e:	1c60      	adds	r0, r4, #1
    3c50:	428c      	cmp	r4, r1
    3c52:	d000      	beq.n	3c56 <_ZN4core3fmt9Formatter12pad_integral17h659d112ebaa6d17eE+0x9a>
    3c54:	4603      	mov	r3, r0
    3c56:	428c      	cmp	r4, r1
    3c58:	d100      	bne.n	3c5c <_ZN4core3fmt9Formatter12pad_integral17h659d112ebaa6d17eE+0xa0>
    3c5a:	4620      	mov	r0, r4
    3c5c:	4634      	mov	r4, r6
    3c5e:	346f      	adds	r4, #111	; 0x6f
    3c60:	b2e4      	uxtb	r4, r4
    3c62:	42a2      	cmp	r2, r4
    3c64:	d903      	bls.n	3c6e <_ZN4core3fmt9Formatter12pad_integral17h659d112ebaa6d17eE+0xb2>
    3c66:	1c42      	adds	r2, r0, #1
    3c68:	4288      	cmp	r0, r1
    3c6a:	d000      	beq.n	3c6e <_ZN4core3fmt9Formatter12pad_integral17h659d112ebaa6d17eE+0xb2>
    3c6c:	4613      	mov	r3, r2
    3c6e:	461a      	mov	r2, r3
    3c70:	1c6d      	adds	r5, r5, #1
    3c72:	428a      	cmp	r2, r1
    3c74:	d1d5      	bne.n	3c22 <_ZN4core3fmt9Formatter12pad_integral17h659d112ebaa6d17eE+0x66>
    3c76:	9a09      	ldr	r2, [sp, #36]	; 0x24
    3c78:	18aa      	adds	r2, r5, r2
    3c7a:	990a      	ldr	r1, [sp, #40]	; 0x28
    3c7c:	9c1a      	ldr	r4, [sp, #104]	; 0x68
    3c7e:	a80f      	add	r0, sp, #60	; 0x3c
    3c80:	900b      	str	r0, [sp, #44]	; 0x2c
    3c82:	a80e      	add	r0, sp, #56	; 0x38
    3c84:	900c      	str	r0, [sp, #48]	; 0x30
    3c86:	a811      	add	r0, sp, #68	; 0x44
    3c88:	900d      	str	r0, [sp, #52]	; 0x34
    3c8a:	68c8      	ldr	r0, [r1, #12]
    3c8c:	2801      	cmp	r0, #1
    3c8e:	d122      	bne.n	3cd6 <_ZN4core3fmt9Formatter12pad_integral17h659d112ebaa6d17eE+0x11a>
    3c90:	690f      	ldr	r7, [r1, #16]
    3c92:	4297      	cmp	r7, r2
    3c94:	d91f      	bls.n	3cd6 <_ZN4core3fmt9Formatter12pad_integral17h659d112ebaa6d17eE+0x11a>
    3c96:	9209      	str	r2, [sp, #36]	; 0x24
    3c98:	2501      	movs	r5, #1
    3c9a:	02e8      	lsls	r0, r5, #11
    3c9c:	9004      	str	r0, [sp, #16]
    3c9e:	0428      	lsls	r0, r5, #16
    3ca0:	9002      	str	r0, [sp, #8]
    3ca2:	2200      	movs	r2, #0
    3ca4:	43d0      	mvns	r0, r2
    3ca6:	9005      	str	r0, [sp, #20]
    3ca8:	2008      	movs	r0, #8
    3caa:	9b08      	ldr	r3, [sp, #32]
    3cac:	4203      	tst	r3, r0
    3cae:	9403      	str	r4, [sp, #12]
    3cb0:	d122      	bne.n	3cf8 <_ZN4core3fmt9Formatter12pad_integral17h659d112ebaa6d17eE+0x13c>
    3cb2:	9809      	ldr	r0, [sp, #36]	; 0x24
    3cb4:	1a38      	subs	r0, r7, r0
    3cb6:	7a09      	ldrb	r1, [r1, #8]
    3cb8:	2201      	movs	r2, #1
    3cba:	2903      	cmp	r1, #3
    3cbc:	d000      	beq.n	3cc0 <_ZN4core3fmt9Formatter12pad_integral17h659d112ebaa6d17eE+0x104>
    3cbe:	460a      	mov	r2, r1
    3cc0:	2103      	movs	r1, #3
    3cc2:	400a      	ands	r2, r1
    3cc4:	2700      	movs	r7, #0
    3cc6:	2a00      	cmp	r2, #0
    3cc8:	d037      	beq.n	3d3a <_ZN4core3fmt9Formatter12pad_integral17h659d112ebaa6d17eE+0x17e>
    3cca:	2a02      	cmp	r2, #2
    3ccc:	d032      	beq.n	3d34 <_ZN4core3fmt9Formatter12pad_integral17h659d112ebaa6d17eE+0x178>
    3cce:	2200      	movs	r2, #0
    3cd0:	9208      	str	r2, [sp, #32]
    3cd2:	4607      	mov	r7, r0
    3cd4:	e032      	b.n	3d3c <_ZN4core3fmt9Formatter12pad_integral17h659d112ebaa6d17eE+0x180>
    3cd6:	4625      	mov	r5, r4
    3cd8:	a80b      	add	r0, sp, #44	; 0x2c
    3cda:	460c      	mov	r4, r1
    3cdc:	f000 fb96 	bl	440c <_ZN4core3fmt9Formatter12pad_integral28_$u7b$$u7b$closure$u7d$$u7d$17he503c3eb3ba3a1d4E>
    3ce0:	21ff      	movs	r1, #255	; 0xff
    3ce2:	4208      	tst	r0, r1
    3ce4:	d000      	beq.n	3ce8 <_ZN4core3fmt9Formatter12pad_integral17h659d112ebaa6d17eE+0x12c>
    3ce6:	e113      	b.n	3f10 <_ZN4core3fmt9Formatter12pad_integral17h659d112ebaa6d17eE+0x354>
    3ce8:	69e0      	ldr	r0, [r4, #28]
    3cea:	6a21      	ldr	r1, [r4, #32]
    3cec:	68cb      	ldr	r3, [r1, #12]
    3cee:	4629      	mov	r1, r5
    3cf0:	9a07      	ldr	r2, [sp, #28]
    3cf2:	4798      	blx	r3
    3cf4:	b015      	add	sp, #84	; 0x54
    3cf6:	bdf0      	pop	{r4, r5, r6, r7, pc}
    3cf8:	9500      	str	r5, [sp, #0]
    3cfa:	9201      	str	r2, [sp, #4]
    3cfc:	2030      	movs	r0, #48	; 0x30
    3cfe:	6048      	str	r0, [r1, #4]
    3d00:	a80b      	add	r0, sp, #44	; 0x2c
    3d02:	460c      	mov	r4, r1
    3d04:	f000 fb82 	bl	440c <_ZN4core3fmt9Formatter12pad_integral28_$u7b$$u7b$closure$u7d$$u7d$17he503c3eb3ba3a1d4E>
    3d08:	21ff      	movs	r1, #255	; 0xff
    3d0a:	4208      	tst	r0, r1
    3d0c:	d000      	beq.n	3d10 <_ZN4core3fmt9Formatter12pad_integral17h659d112ebaa6d17eE+0x154>
    3d0e:	e0ff      	b.n	3f10 <_ZN4core3fmt9Formatter12pad_integral17h659d112ebaa6d17eE+0x354>
    3d10:	9108      	str	r1, [sp, #32]
    3d12:	9809      	ldr	r0, [sp, #36]	; 0x24
    3d14:	1a38      	subs	r0, r7, r0
    3d16:	7a21      	ldrb	r1, [r4, #8]
    3d18:	2903      	cmp	r1, #3
    3d1a:	9b00      	ldr	r3, [sp, #0]
    3d1c:	d000      	beq.n	3d20 <_ZN4core3fmt9Formatter12pad_integral17h659d112ebaa6d17eE+0x164>
    3d1e:	460b      	mov	r3, r1
    3d20:	2103      	movs	r1, #3
    3d22:	400b      	ands	r3, r1
    3d24:	2b00      	cmp	r3, #0
    3d26:	9f01      	ldr	r7, [sp, #4]
    3d28:	d07f      	beq.n	3e2a <_ZN4core3fmt9Formatter12pad_integral17h659d112ebaa6d17eE+0x26e>
    3d2a:	2b02      	cmp	r3, #2
    3d2c:	d07f      	beq.n	3e2e <_ZN4core3fmt9Formatter12pad_integral17h659d112ebaa6d17eE+0x272>
    3d2e:	2300      	movs	r3, #0
    3d30:	4607      	mov	r7, r0
    3d32:	e07f      	b.n	3e34 <_ZN4core3fmt9Formatter12pad_integral17h659d112ebaa6d17eE+0x278>
    3d34:	0847      	lsrs	r7, r0, #1
    3d36:	1c40      	adds	r0, r0, #1
    3d38:	0840      	lsrs	r0, r0, #1
    3d3a:	9008      	str	r0, [sp, #32]
    3d3c:	980a      	ldr	r0, [sp, #40]	; 0x28
    3d3e:	6840      	ldr	r0, [r0, #4]
    3d40:	2880      	cmp	r0, #128	; 0x80
    3d42:	d203      	bcs.n	3d4c <_ZN4core3fmt9Formatter12pad_integral17h659d112ebaa6d17eE+0x190>
    3d44:	2600      	movs	r6, #0
    3d46:	4632      	mov	r2, r6
    3d48:	4633      	mov	r3, r6
    3d4a:	e033      	b.n	3db4 <_ZN4core3fmt9Formatter12pad_integral17h659d112ebaa6d17eE+0x1f8>
    3d4c:	9904      	ldr	r1, [sp, #16]
    3d4e:	4288      	cmp	r0, r1
    3d50:	d20c      	bcs.n	3d6c <_ZN4core3fmt9Formatter12pad_integral17h659d112ebaa6d17eE+0x1b0>
    3d52:	233f      	movs	r3, #63	; 0x3f
    3d54:	4003      	ands	r3, r0
    3d56:	4333      	orrs	r3, r6
    3d58:	0980      	lsrs	r0, r0, #6
    3d5a:	211f      	movs	r1, #31
    3d5c:	4001      	ands	r1, r0
    3d5e:	3640      	adds	r6, #64	; 0x40
    3d60:	430e      	orrs	r6, r1
    3d62:	2102      	movs	r1, #2
    3d64:	2200      	movs	r2, #0
    3d66:	4618      	mov	r0, r3
    3d68:	4613      	mov	r3, r2
    3d6a:	e023      	b.n	3db4 <_ZN4core3fmt9Formatter12pad_integral17h659d112ebaa6d17eE+0x1f8>
    3d6c:	9902      	ldr	r1, [sp, #8]
    3d6e:	4288      	cmp	r0, r1
    3d70:	d20f      	bcs.n	3d92 <_ZN4core3fmt9Formatter12pad_integral17h659d112ebaa6d17eE+0x1d6>
    3d72:	213f      	movs	r1, #63	; 0x3f
    3d74:	4605      	mov	r5, r0
    3d76:	400d      	ands	r5, r1
    3d78:	4335      	orrs	r5, r6
    3d7a:	0984      	lsrs	r4, r0, #6
    3d7c:	400c      	ands	r4, r1
    3d7e:	4334      	orrs	r4, r6
    3d80:	0b00      	lsrs	r0, r0, #12
    3d82:	210f      	movs	r1, #15
    3d84:	4001      	ands	r1, r0
    3d86:	3660      	adds	r6, #96	; 0x60
    3d88:	4632      	mov	r2, r6
    3d8a:	430a      	orrs	r2, r1
    3d8c:	2101      	movs	r1, #1
    3d8e:	2300      	movs	r3, #0
    3d90:	e00e      	b.n	3db0 <_ZN4core3fmt9Formatter12pad_integral17h659d112ebaa6d17eE+0x1f4>
    3d92:	213f      	movs	r1, #63	; 0x3f
    3d94:	4605      	mov	r5, r0
    3d96:	400d      	ands	r5, r1
    3d98:	4335      	orrs	r5, r6
    3d9a:	4632      	mov	r2, r6
    3d9c:	3270      	adds	r2, #112	; 0x70
    3d9e:	0c83      	lsrs	r3, r0, #18
    3da0:	4313      	orrs	r3, r2
    3da2:	0984      	lsrs	r4, r0, #6
    3da4:	400c      	ands	r4, r1
    3da6:	4334      	orrs	r4, r6
    3da8:	0b02      	lsrs	r2, r0, #12
    3daa:	400a      	ands	r2, r1
    3dac:	4332      	orrs	r2, r6
    3dae:	2100      	movs	r1, #0
    3db0:	4628      	mov	r0, r5
    3db2:	4626      	mov	r6, r4
    3db4:	ac13      	add	r4, sp, #76	; 0x4c
    3db6:	7023      	strb	r3, [r4, #0]
    3db8:	7062      	strb	r2, [r4, #1]
    3dba:	70a6      	strb	r6, [r4, #2]
    3dbc:	70e0      	strb	r0, [r4, #3]
    3dbe:	9114      	str	r1, [sp, #80]	; 0x50
    3dc0:	9806      	ldr	r0, [sp, #24]
    3dc2:	1a40      	subs	r0, r0, r1
    3dc4:	9009      	str	r0, [sp, #36]	; 0x24
    3dc6:	1866      	adds	r6, r4, r1
    3dc8:	9c05      	ldr	r4, [sp, #20]
    3dca:	4625      	mov	r5, r4
    3dcc:	1c6d      	adds	r5, r5, #1
    3dce:	42bd      	cmp	r5, r7
    3dd0:	d20a      	bcs.n	3de8 <_ZN4core3fmt9Formatter12pad_integral17h659d112ebaa6d17eE+0x22c>
    3dd2:	990a      	ldr	r1, [sp, #40]	; 0x28
    3dd4:	69c8      	ldr	r0, [r1, #28]
    3dd6:	6a09      	ldr	r1, [r1, #32]
    3dd8:	68cb      	ldr	r3, [r1, #12]
    3dda:	4631      	mov	r1, r6
    3ddc:	9a09      	ldr	r2, [sp, #36]	; 0x24
    3dde:	4798      	blx	r3
    3de0:	21ff      	movs	r1, #255	; 0xff
    3de2:	4208      	tst	r0, r1
    3de4:	d0f2      	beq.n	3dcc <_ZN4core3fmt9Formatter12pad_integral17h659d112ebaa6d17eE+0x210>
    3de6:	e093      	b.n	3f10 <_ZN4core3fmt9Formatter12pad_integral17h659d112ebaa6d17eE+0x354>
    3de8:	a80b      	add	r0, sp, #44	; 0x2c
    3dea:	9c0a      	ldr	r4, [sp, #40]	; 0x28
    3dec:	4621      	mov	r1, r4
    3dee:	f000 fb0d 	bl	440c <_ZN4core3fmt9Formatter12pad_integral28_$u7b$$u7b$closure$u7d$$u7d$17he503c3eb3ba3a1d4E>
    3df2:	25ff      	movs	r5, #255	; 0xff
    3df4:	4228      	tst	r0, r5
    3df6:	d000      	beq.n	3dfa <_ZN4core3fmt9Formatter12pad_integral17h659d112ebaa6d17eE+0x23e>
    3df8:	e08a      	b.n	3f10 <_ZN4core3fmt9Formatter12pad_integral17h659d112ebaa6d17eE+0x354>
    3dfa:	69e0      	ldr	r0, [r4, #28]
    3dfc:	6a21      	ldr	r1, [r4, #32]
    3dfe:	68cb      	ldr	r3, [r1, #12]
    3e00:	9903      	ldr	r1, [sp, #12]
    3e02:	9a07      	ldr	r2, [sp, #28]
    3e04:	4798      	blx	r3
    3e06:	4228      	tst	r0, r5
    3e08:	d000      	beq.n	3e0c <_ZN4core3fmt9Formatter12pad_integral17h659d112ebaa6d17eE+0x250>
    3e0a:	e081      	b.n	3f10 <_ZN4core3fmt9Formatter12pad_integral17h659d112ebaa6d17eE+0x354>
    3e0c:	9c05      	ldr	r4, [sp, #20]
    3e0e:	1c64      	adds	r4, r4, #1
    3e10:	9808      	ldr	r0, [sp, #32]
    3e12:	4284      	cmp	r4, r0
    3e14:	d27f      	bcs.n	3f16 <_ZN4core3fmt9Formatter12pad_integral17h659d112ebaa6d17eE+0x35a>
    3e16:	990a      	ldr	r1, [sp, #40]	; 0x28
    3e18:	69c8      	ldr	r0, [r1, #28]
    3e1a:	6a09      	ldr	r1, [r1, #32]
    3e1c:	68cb      	ldr	r3, [r1, #12]
    3e1e:	4631      	mov	r1, r6
    3e20:	9a09      	ldr	r2, [sp, #36]	; 0x24
    3e22:	4798      	blx	r3
    3e24:	4228      	tst	r0, r5
    3e26:	d0f2      	beq.n	3e0e <_ZN4core3fmt9Formatter12pad_integral17h659d112ebaa6d17eE+0x252>
    3e28:	e072      	b.n	3f10 <_ZN4core3fmt9Formatter12pad_integral17h659d112ebaa6d17eE+0x354>
    3e2a:	4603      	mov	r3, r0
    3e2c:	e002      	b.n	3e34 <_ZN4core3fmt9Formatter12pad_integral17h659d112ebaa6d17eE+0x278>
    3e2e:	0847      	lsrs	r7, r0, #1
    3e30:	1c40      	adds	r0, r0, #1
    3e32:	0843      	lsrs	r3, r0, #1
    3e34:	980a      	ldr	r0, [sp, #40]	; 0x28
    3e36:	6840      	ldr	r0, [r0, #4]
    3e38:	2880      	cmp	r0, #128	; 0x80
    3e3a:	9301      	str	r3, [sp, #4]
    3e3c:	d203      	bcs.n	3e46 <_ZN4core3fmt9Formatter12pad_integral17h659d112ebaa6d17eE+0x28a>
    3e3e:	2600      	movs	r6, #0
    3e40:	4632      	mov	r2, r6
    3e42:	4633      	mov	r3, r6
    3e44:	e033      	b.n	3eae <_ZN4core3fmt9Formatter12pad_integral17h659d112ebaa6d17eE+0x2f2>
    3e46:	9904      	ldr	r1, [sp, #16]
    3e48:	4288      	cmp	r0, r1
    3e4a:	d20c      	bcs.n	3e66 <_ZN4core3fmt9Formatter12pad_integral17h659d112ebaa6d17eE+0x2aa>
    3e4c:	233f      	movs	r3, #63	; 0x3f
    3e4e:	4003      	ands	r3, r0
    3e50:	4333      	orrs	r3, r6
    3e52:	0980      	lsrs	r0, r0, #6
    3e54:	211f      	movs	r1, #31
    3e56:	4001      	ands	r1, r0
    3e58:	3640      	adds	r6, #64	; 0x40
    3e5a:	430e      	orrs	r6, r1
    3e5c:	2102      	movs	r1, #2
    3e5e:	2200      	movs	r2, #0
    3e60:	4618      	mov	r0, r3
    3e62:	4613      	mov	r3, r2
    3e64:	e023      	b.n	3eae <_ZN4core3fmt9Formatter12pad_integral17h659d112ebaa6d17eE+0x2f2>
    3e66:	9902      	ldr	r1, [sp, #8]
    3e68:	4288      	cmp	r0, r1
    3e6a:	d20f      	bcs.n	3e8c <_ZN4core3fmt9Formatter12pad_integral17h659d112ebaa6d17eE+0x2d0>
    3e6c:	213f      	movs	r1, #63	; 0x3f
    3e6e:	4605      	mov	r5, r0
    3e70:	400d      	ands	r5, r1
    3e72:	4335      	orrs	r5, r6
    3e74:	0984      	lsrs	r4, r0, #6
    3e76:	400c      	ands	r4, r1
    3e78:	4334      	orrs	r4, r6
    3e7a:	0b00      	lsrs	r0, r0, #12
    3e7c:	210f      	movs	r1, #15
    3e7e:	4001      	ands	r1, r0
    3e80:	3660      	adds	r6, #96	; 0x60
    3e82:	4632      	mov	r2, r6
    3e84:	430a      	orrs	r2, r1
    3e86:	2101      	movs	r1, #1
    3e88:	2300      	movs	r3, #0
    3e8a:	e00e      	b.n	3eaa <_ZN4core3fmt9Formatter12pad_integral17h659d112ebaa6d17eE+0x2ee>
    3e8c:	213f      	movs	r1, #63	; 0x3f
    3e8e:	4605      	mov	r5, r0
    3e90:	400d      	ands	r5, r1
    3e92:	4335      	orrs	r5, r6
    3e94:	4632      	mov	r2, r6
    3e96:	3270      	adds	r2, #112	; 0x70
    3e98:	0c83      	lsrs	r3, r0, #18
    3e9a:	4313      	orrs	r3, r2
    3e9c:	0984      	lsrs	r4, r0, #6
    3e9e:	400c      	ands	r4, r1
    3ea0:	4334      	orrs	r4, r6
    3ea2:	0b02      	lsrs	r2, r0, #12
    3ea4:	400a      	ands	r2, r1
    3ea6:	4332      	orrs	r2, r6
    3ea8:	2100      	movs	r1, #0
    3eaa:	4628      	mov	r0, r5
    3eac:	4626      	mov	r6, r4
    3eae:	ac13      	add	r4, sp, #76	; 0x4c
    3eb0:	7023      	strb	r3, [r4, #0]
    3eb2:	7062      	strb	r2, [r4, #1]
    3eb4:	70a6      	strb	r6, [r4, #2]
    3eb6:	70e0      	strb	r0, [r4, #3]
    3eb8:	9114      	str	r1, [sp, #80]	; 0x50
    3eba:	9806      	ldr	r0, [sp, #24]
    3ebc:	1a40      	subs	r0, r0, r1
    3ebe:	9009      	str	r0, [sp, #36]	; 0x24
    3ec0:	1866      	adds	r6, r4, r1
    3ec2:	9c05      	ldr	r4, [sp, #20]
    3ec4:	4625      	mov	r5, r4
    3ec6:	1c6d      	adds	r5, r5, #1
    3ec8:	42bd      	cmp	r5, r7
    3eca:	d20a      	bcs.n	3ee2 <_ZN4core3fmt9Formatter12pad_integral17h659d112ebaa6d17eE+0x326>
    3ecc:	990a      	ldr	r1, [sp, #40]	; 0x28
    3ece:	69c8      	ldr	r0, [r1, #28]
    3ed0:	6a09      	ldr	r1, [r1, #32]
    3ed2:	68cb      	ldr	r3, [r1, #12]
    3ed4:	4631      	mov	r1, r6
    3ed6:	9a09      	ldr	r2, [sp, #36]	; 0x24
    3ed8:	4798      	blx	r3
    3eda:	9908      	ldr	r1, [sp, #32]
    3edc:	4208      	tst	r0, r1
    3ede:	d0f2      	beq.n	3ec6 <_ZN4core3fmt9Formatter12pad_integral17h659d112ebaa6d17eE+0x30a>
    3ee0:	e016      	b.n	3f10 <_ZN4core3fmt9Formatter12pad_integral17h659d112ebaa6d17eE+0x354>
    3ee2:	990a      	ldr	r1, [sp, #40]	; 0x28
    3ee4:	69c8      	ldr	r0, [r1, #28]
    3ee6:	6a09      	ldr	r1, [r1, #32]
    3ee8:	68cb      	ldr	r3, [r1, #12]
    3eea:	9903      	ldr	r1, [sp, #12]
    3eec:	9a07      	ldr	r2, [sp, #28]
    3eee:	4798      	blx	r3
    3ef0:	9d08      	ldr	r5, [sp, #32]
    3ef2:	4228      	tst	r0, r5
    3ef4:	d10c      	bne.n	3f10 <_ZN4core3fmt9Formatter12pad_integral17h659d112ebaa6d17eE+0x354>
    3ef6:	9f01      	ldr	r7, [sp, #4]
    3ef8:	1c64      	adds	r4, r4, #1
    3efa:	42bc      	cmp	r4, r7
    3efc:	d20e      	bcs.n	3f1c <_ZN4core3fmt9Formatter12pad_integral17h659d112ebaa6d17eE+0x360>
    3efe:	990a      	ldr	r1, [sp, #40]	; 0x28
    3f00:	69c8      	ldr	r0, [r1, #28]
    3f02:	6a09      	ldr	r1, [r1, #32]
    3f04:	68cb      	ldr	r3, [r1, #12]
    3f06:	4631      	mov	r1, r6
    3f08:	9a09      	ldr	r2, [sp, #36]	; 0x24
    3f0a:	4798      	blx	r3
    3f0c:	4228      	tst	r0, r5
    3f0e:	d0f3      	beq.n	3ef8 <_ZN4core3fmt9Formatter12pad_integral17h659d112ebaa6d17eE+0x33c>
    3f10:	2001      	movs	r0, #1
    3f12:	b015      	add	sp, #84	; 0x54
    3f14:	bdf0      	pop	{r4, r5, r6, r7, pc}
    3f16:	2000      	movs	r0, #0
    3f18:	b015      	add	sp, #84	; 0x54
    3f1a:	bdf0      	pop	{r4, r5, r6, r7, pc}
    3f1c:	2000      	movs	r0, #0
    3f1e:	b015      	add	sp, #84	; 0x54
    3f20:	bdf0      	pop	{r4, r5, r6, r7, pc}

00003f22 <_ZN4core3fmt9Formatter3pad17h4d00fc72b86d5e35E>:
    3f22:	b5f0      	push	{r4, r5, r6, r7, lr}
    3f24:	b08b      	sub	sp, #44	; 0x2c
    3f26:	9203      	str	r2, [sp, #12]
    3f28:	9104      	str	r1, [sp, #16]
    3f2a:	4602      	mov	r2, r0
    3f2c:	6950      	ldr	r0, [r2, #20]
    3f2e:	68d5      	ldr	r5, [r2, #12]
    3f30:	2100      	movs	r1, #0
    3f32:	43cb      	mvns	r3, r1
    3f34:	9302      	str	r3, [sp, #8]
    3f36:	2380      	movs	r3, #128	; 0x80
    3f38:	9308      	str	r3, [sp, #32]
    3f3a:	2d01      	cmp	r5, #1
    3f3c:	9206      	str	r2, [sp, #24]
    3f3e:	d103      	bne.n	3f48 <_ZN4core3fmt9Formatter3pad17h4d00fc72b86d5e35E+0x26>
    3f40:	2801      	cmp	r0, #1
    3f42:	d003      	beq.n	3f4c <_ZN4core3fmt9Formatter3pad17h4d00fc72b86d5e35E+0x2a>
    3f44:	9a03      	ldr	r2, [sp, #12]
    3f46:	e06c      	b.n	4022 <_ZN4core3fmt9Formatter3pad17h4d00fc72b86d5e35E+0x100>
    3f48:	2801      	cmp	r0, #1
    3f4a:	d14f      	bne.n	3fec <_ZN4core3fmt9Formatter3pad17h4d00fc72b86d5e35E+0xca>
    3f4c:	9804      	ldr	r0, [sp, #16]
    3f4e:	9c03      	ldr	r4, [sp, #12]
    3f50:	1900      	adds	r0, r0, r4
    3f52:	9007      	str	r0, [sp, #28]
    3f54:	6990      	ldr	r0, [r2, #24]
    3f56:	2300      	movs	r3, #0
    3f58:	2800      	cmp	r0, #0
    3f5a:	d05e      	beq.n	401a <_ZN4core3fmt9Formatter3pad17h4d00fc72b86d5e35E+0xf8>
    3f5c:	2c00      	cmp	r4, #0
    3f5e:	d05c      	beq.n	401a <_ZN4core3fmt9Formatter3pad17h4d00fc72b86d5e35E+0xf8>
    3f60:	9500      	str	r5, [sp, #0]
    3f62:	9a02      	ldr	r2, [sp, #8]
    3f64:	1a16      	subs	r6, r2, r0
    3f66:	2300      	movs	r3, #0
    3f68:	9804      	ldr	r0, [sp, #16]
    3f6a:	4602      	mov	r2, r0
    3f6c:	4607      	mov	r7, r0
    3f6e:	1c54      	adds	r4, r2, #1
    3f70:	7810      	ldrb	r0, [r2, #0]
    3f72:	b245      	sxtb	r5, r0
    3f74:	9808      	ldr	r0, [sp, #32]
    3f76:	307f      	adds	r0, #127	; 0x7f
    3f78:	b240      	sxtb	r0, r0
    3f7a:	4285      	cmp	r5, r0
    3f7c:	dc27      	bgt.n	3fce <_ZN4core3fmt9Formatter3pad17h4d00fc72b86d5e35E+0xac>
    3f7e:	9305      	str	r3, [sp, #20]
    3f80:	1c90      	adds	r0, r2, #2
    3f82:	9a07      	ldr	r2, [sp, #28]
    3f84:	4294      	cmp	r4, r2
    3f86:	4602      	mov	r2, r0
    3f88:	d100      	bne.n	3f8c <_ZN4core3fmt9Formatter3pad17h4d00fc72b86d5e35E+0x6a>
    3f8a:	4622      	mov	r2, r4
    3f8c:	b2eb      	uxtb	r3, r5
    3f8e:	9d07      	ldr	r5, [sp, #28]
    3f90:	42ac      	cmp	r4, r5
    3f92:	d000      	beq.n	3f96 <_ZN4core3fmt9Formatter3pad17h4d00fc72b86d5e35E+0x74>
    3f94:	4604      	mov	r4, r0
    3f96:	9808      	ldr	r0, [sp, #32]
    3f98:	305f      	adds	r0, #95	; 0x5f
    3f9a:	b2c0      	uxtb	r0, r0
    3f9c:	461d      	mov	r5, r3
    3f9e:	4285      	cmp	r5, r0
    3fa0:	d917      	bls.n	3fd2 <_ZN4core3fmt9Formatter3pad17h4d00fc72b86d5e35E+0xb0>
    3fa2:	1c50      	adds	r0, r2, #1
    3fa4:	9001      	str	r0, [sp, #4]
    3fa6:	9807      	ldr	r0, [sp, #28]
    3fa8:	4282      	cmp	r2, r0
    3faa:	9b05      	ldr	r3, [sp, #20]
    3fac:	d000      	beq.n	3fb0 <_ZN4core3fmt9Formatter3pad17h4d00fc72b86d5e35E+0x8e>
    3fae:	9c01      	ldr	r4, [sp, #4]
    3fb0:	9807      	ldr	r0, [sp, #28]
    3fb2:	4282      	cmp	r2, r0
    3fb4:	d100      	bne.n	3fb8 <_ZN4core3fmt9Formatter3pad17h4d00fc72b86d5e35E+0x96>
    3fb6:	9201      	str	r2, [sp, #4]
    3fb8:	9808      	ldr	r0, [sp, #32]
    3fba:	306f      	adds	r0, #111	; 0x6f
    3fbc:	b2c0      	uxtb	r0, r0
    3fbe:	4285      	cmp	r5, r0
    3fc0:	d905      	bls.n	3fce <_ZN4core3fmt9Formatter3pad17h4d00fc72b86d5e35E+0xac>
    3fc2:	9d01      	ldr	r5, [sp, #4]
    3fc4:	1c68      	adds	r0, r5, #1
    3fc6:	9a07      	ldr	r2, [sp, #28]
    3fc8:	4295      	cmp	r5, r2
    3fca:	d000      	beq.n	3fce <_ZN4core3fmt9Formatter3pad17h4d00fc72b86d5e35E+0xac>
    3fcc:	4604      	mov	r4, r0
    3fce:	4622      	mov	r2, r4
    3fd0:	e001      	b.n	3fd6 <_ZN4core3fmt9Formatter3pad17h4d00fc72b86d5e35E+0xb4>
    3fd2:	4622      	mov	r2, r4
    3fd4:	9b05      	ldr	r3, [sp, #20]
    3fd6:	1c76      	adds	r6, r6, #1
    3fd8:	2e00      	cmp	r6, #0
    3fda:	d00a      	beq.n	3ff2 <_ZN4core3fmt9Formatter3pad17h4d00fc72b86d5e35E+0xd0>
    3fdc:	1bd8      	subs	r0, r3, r7
    3fde:	1883      	adds	r3, r0, r2
    3fe0:	9807      	ldr	r0, [sp, #28]
    3fe2:	4282      	cmp	r2, r0
    3fe4:	4617      	mov	r7, r2
    3fe6:	d1c2      	bne.n	3f6e <_ZN4core3fmt9Formatter3pad17h4d00fc72b86d5e35E+0x4c>
    3fe8:	9b03      	ldr	r3, [sp, #12]
    3fea:	e015      	b.n	4018 <_ZN4core3fmt9Formatter3pad17h4d00fc72b86d5e35E+0xf6>
    3fec:	69d0      	ldr	r0, [r2, #28]
    3fee:	6a11      	ldr	r1, [r2, #32]
    3ff0:	e09c      	b.n	412c <_ZN4core3fmt9Formatter3pad17h4d00fc72b86d5e35E+0x20a>
    3ff2:	2b00      	cmp	r3, #0
    3ff4:	d010      	beq.n	4018 <_ZN4core3fmt9Formatter3pad17h4d00fc72b86d5e35E+0xf6>
    3ff6:	9803      	ldr	r0, [sp, #12]
    3ff8:	4283      	cmp	r3, r0
    3ffa:	9d00      	ldr	r5, [sp, #0]
    3ffc:	d00d      	beq.n	401a <_ZN4core3fmt9Formatter3pad17h4d00fc72b86d5e35E+0xf8>
    3ffe:	d206      	bcs.n	400e <_ZN4core3fmt9Formatter3pad17h4d00fc72b86d5e35E+0xec>
    4000:	9804      	ldr	r0, [sp, #16]
    4002:	56c0      	ldrsb	r0, [r0, r3]
    4004:	9a08      	ldr	r2, [sp, #32]
    4006:	323f      	adds	r2, #63	; 0x3f
    4008:	b252      	sxtb	r2, r2
    400a:	4290      	cmp	r0, r2
    400c:	dc05      	bgt.n	401a <_ZN4core3fmt9Formatter3pad17h4d00fc72b86d5e35E+0xf8>
    400e:	2200      	movs	r2, #0
    4010:	9804      	ldr	r0, [sp, #16]
    4012:	9903      	ldr	r1, [sp, #12]
    4014:	f7ff fc0c 	bl	3830 <_ZN4core3str16slice_error_fail17hd13f4c2b5291c732E>
    4018:	9d00      	ldr	r5, [sp, #0]
    401a:	2d01      	cmp	r5, #1
    401c:	d000      	beq.n	4020 <_ZN4core3fmt9Formatter3pad17h4d00fc72b86d5e35E+0xfe>
    401e:	e08b      	b.n	4138 <_ZN4core3fmt9Formatter3pad17h4d00fc72b86d5e35E+0x216>
    4020:	461a      	mov	r2, r3
    4022:	9804      	ldr	r0, [sp, #16]
    4024:	1883      	adds	r3, r0, r2
    4026:	9806      	ldr	r0, [sp, #24]
    4028:	6900      	ldr	r0, [r0, #16]
    402a:	9007      	str	r0, [sp, #28]
    402c:	9203      	str	r2, [sp, #12]
    402e:	2a00      	cmp	r2, #0
    4030:	9a08      	ldr	r2, [sp, #32]
    4032:	d02e      	beq.n	4092 <_ZN4core3fmt9Formatter3pad17h4d00fc72b86d5e35E+0x170>
    4034:	2100      	movs	r1, #0
    4036:	9c04      	ldr	r4, [sp, #16]
    4038:	1c65      	adds	r5, r4, #1
    403a:	7820      	ldrb	r0, [r4, #0]
    403c:	b246      	sxtb	r6, r0
    403e:	4610      	mov	r0, r2
    4040:	307f      	adds	r0, #127	; 0x7f
    4042:	b240      	sxtb	r0, r0
    4044:	4286      	cmp	r6, r0
    4046:	dc1d      	bgt.n	4084 <_ZN4core3fmt9Formatter3pad17h4d00fc72b86d5e35E+0x162>
    4048:	1ca7      	adds	r7, r4, #2
    404a:	429d      	cmp	r5, r3
    404c:	4638      	mov	r0, r7
    404e:	d100      	bne.n	4052 <_ZN4core3fmt9Formatter3pad17h4d00fc72b86d5e35E+0x130>
    4050:	4628      	mov	r0, r5
    4052:	b2f4      	uxtb	r4, r6
    4054:	429d      	cmp	r5, r3
    4056:	d000      	beq.n	405a <_ZN4core3fmt9Formatter3pad17h4d00fc72b86d5e35E+0x138>
    4058:	463d      	mov	r5, r7
    405a:	325f      	adds	r2, #95	; 0x5f
    405c:	b2d2      	uxtb	r2, r2
    405e:	4294      	cmp	r4, r2
    4060:	d912      	bls.n	4088 <_ZN4core3fmt9Formatter3pad17h4d00fc72b86d5e35E+0x166>
    4062:	1c46      	adds	r6, r0, #1
    4064:	4298      	cmp	r0, r3
    4066:	d000      	beq.n	406a <_ZN4core3fmt9Formatter3pad17h4d00fc72b86d5e35E+0x148>
    4068:	4635      	mov	r5, r6
    406a:	4298      	cmp	r0, r3
    406c:	9a08      	ldr	r2, [sp, #32]
    406e:	d100      	bne.n	4072 <_ZN4core3fmt9Formatter3pad17h4d00fc72b86d5e35E+0x150>
    4070:	4606      	mov	r6, r0
    4072:	4610      	mov	r0, r2
    4074:	306f      	adds	r0, #111	; 0x6f
    4076:	b2c0      	uxtb	r0, r0
    4078:	4284      	cmp	r4, r0
    407a:	d903      	bls.n	4084 <_ZN4core3fmt9Formatter3pad17h4d00fc72b86d5e35E+0x162>
    407c:	1c70      	adds	r0, r6, #1
    407e:	429e      	cmp	r6, r3
    4080:	d000      	beq.n	4084 <_ZN4core3fmt9Formatter3pad17h4d00fc72b86d5e35E+0x162>
    4082:	4605      	mov	r5, r0
    4084:	462c      	mov	r4, r5
    4086:	e001      	b.n	408c <_ZN4core3fmt9Formatter3pad17h4d00fc72b86d5e35E+0x16a>
    4088:	462c      	mov	r4, r5
    408a:	9a08      	ldr	r2, [sp, #32]
    408c:	1c49      	adds	r1, r1, #1
    408e:	429c      	cmp	r4, r3
    4090:	d1d2      	bne.n	4038 <_ZN4core3fmt9Formatter3pad17h4d00fc72b86d5e35E+0x116>
    4092:	9807      	ldr	r0, [sp, #28]
    4094:	4281      	cmp	r1, r0
    4096:	d246      	bcs.n	4126 <_ZN4core3fmt9Formatter3pad17h4d00fc72b86d5e35E+0x204>
    4098:	2600      	movs	r6, #0
    409a:	9803      	ldr	r0, [sp, #12]
    409c:	2800      	cmp	r0, #0
    409e:	4631      	mov	r1, r6
    40a0:	d02f      	beq.n	4102 <_ZN4core3fmt9Formatter3pad17h4d00fc72b86d5e35E+0x1e0>
    40a2:	2100      	movs	r1, #0
    40a4:	9c04      	ldr	r4, [sp, #16]
    40a6:	1c65      	adds	r5, r4, #1
    40a8:	7820      	ldrb	r0, [r4, #0]
    40aa:	b247      	sxtb	r7, r0
    40ac:	4610      	mov	r0, r2
    40ae:	307f      	adds	r0, #127	; 0x7f
    40b0:	b240      	sxtb	r0, r0
    40b2:	4287      	cmp	r7, r0
    40b4:	dc1e      	bgt.n	40f4 <_ZN4core3fmt9Formatter3pad17h4d00fc72b86d5e35E+0x1d2>
    40b6:	1ca0      	adds	r0, r4, #2
    40b8:	429d      	cmp	r5, r3
    40ba:	4602      	mov	r2, r0
    40bc:	d100      	bne.n	40c0 <_ZN4core3fmt9Formatter3pad17h4d00fc72b86d5e35E+0x19e>
    40be:	462a      	mov	r2, r5
    40c0:	b2fc      	uxtb	r4, r7
    40c2:	429d      	cmp	r5, r3
    40c4:	d000      	beq.n	40c8 <_ZN4core3fmt9Formatter3pad17h4d00fc72b86d5e35E+0x1a6>
    40c6:	4605      	mov	r5, r0
    40c8:	9808      	ldr	r0, [sp, #32]
    40ca:	305f      	adds	r0, #95	; 0x5f
    40cc:	b2c0      	uxtb	r0, r0
    40ce:	4284      	cmp	r4, r0
    40d0:	d912      	bls.n	40f8 <_ZN4core3fmt9Formatter3pad17h4d00fc72b86d5e35E+0x1d6>
    40d2:	1c57      	adds	r7, r2, #1
    40d4:	429a      	cmp	r2, r3
    40d6:	d000      	beq.n	40da <_ZN4core3fmt9Formatter3pad17h4d00fc72b86d5e35E+0x1b8>
    40d8:	463d      	mov	r5, r7
    40da:	429a      	cmp	r2, r3
    40dc:	d100      	bne.n	40e0 <_ZN4core3fmt9Formatter3pad17h4d00fc72b86d5e35E+0x1be>
    40de:	4617      	mov	r7, r2
    40e0:	9a08      	ldr	r2, [sp, #32]
    40e2:	4610      	mov	r0, r2
    40e4:	306f      	adds	r0, #111	; 0x6f
    40e6:	b2c0      	uxtb	r0, r0
    40e8:	4284      	cmp	r4, r0
    40ea:	d903      	bls.n	40f4 <_ZN4core3fmt9Formatter3pad17h4d00fc72b86d5e35E+0x1d2>
    40ec:	1c78      	adds	r0, r7, #1
    40ee:	429f      	cmp	r7, r3
    40f0:	d000      	beq.n	40f4 <_ZN4core3fmt9Formatter3pad17h4d00fc72b86d5e35E+0x1d2>
    40f2:	4605      	mov	r5, r0
    40f4:	462c      	mov	r4, r5
    40f6:	e001      	b.n	40fc <_ZN4core3fmt9Formatter3pad17h4d00fc72b86d5e35E+0x1da>
    40f8:	462c      	mov	r4, r5
    40fa:	9a08      	ldr	r2, [sp, #32]
    40fc:	1c49      	adds	r1, r1, #1
    40fe:	429c      	cmp	r4, r3
    4100:	d1d1      	bne.n	40a6 <_ZN4core3fmt9Formatter3pad17h4d00fc72b86d5e35E+0x184>
    4102:	9807      	ldr	r0, [sp, #28]
    4104:	1a40      	subs	r0, r0, r1
    4106:	9b06      	ldr	r3, [sp, #24]
    4108:	7a1a      	ldrb	r2, [r3, #8]
    410a:	2a03      	cmp	r2, #3
    410c:	4631      	mov	r1, r6
    410e:	d000      	beq.n	4112 <_ZN4core3fmt9Formatter3pad17h4d00fc72b86d5e35E+0x1f0>
    4110:	4611      	mov	r1, r2
    4112:	2203      	movs	r2, #3
    4114:	4011      	ands	r1, r2
    4116:	2900      	cmp	r1, #0
    4118:	d01a      	beq.n	4150 <_ZN4core3fmt9Formatter3pad17h4d00fc72b86d5e35E+0x22e>
    411a:	2902      	cmp	r1, #2
    411c:	d015      	beq.n	414a <_ZN4core3fmt9Formatter3pad17h4d00fc72b86d5e35E+0x228>
    411e:	2100      	movs	r1, #0
    4120:	9107      	str	r1, [sp, #28]
    4122:	4606      	mov	r6, r0
    4124:	e015      	b.n	4152 <_ZN4core3fmt9Formatter3pad17h4d00fc72b86d5e35E+0x230>
    4126:	9906      	ldr	r1, [sp, #24]
    4128:	69c8      	ldr	r0, [r1, #28]
    412a:	6a09      	ldr	r1, [r1, #32]
    412c:	68cb      	ldr	r3, [r1, #12]
    412e:	9904      	ldr	r1, [sp, #16]
    4130:	9a03      	ldr	r2, [sp, #12]
    4132:	4798      	blx	r3
    4134:	b00b      	add	sp, #44	; 0x2c
    4136:	bdf0      	pop	{r4, r5, r6, r7, pc}
    4138:	9906      	ldr	r1, [sp, #24]
    413a:	69c8      	ldr	r0, [r1, #28]
    413c:	6a09      	ldr	r1, [r1, #32]
    413e:	68cc      	ldr	r4, [r1, #12]
    4140:	9904      	ldr	r1, [sp, #16]
    4142:	461a      	mov	r2, r3
    4144:	47a0      	blx	r4
    4146:	b00b      	add	sp, #44	; 0x2c
    4148:	bdf0      	pop	{r4, r5, r6, r7, pc}
    414a:	0846      	lsrs	r6, r0, #1
    414c:	1c40      	adds	r0, r0, #1
    414e:	0840      	lsrs	r0, r0, #1
    4150:	9007      	str	r0, [sp, #28]
    4152:	6859      	ldr	r1, [r3, #4]
    4154:	2980      	cmp	r1, #128	; 0x80
    4156:	d203      	bcs.n	4160 <_ZN4core3fmt9Formatter3pad17h4d00fc72b86d5e35E+0x23e>
    4158:	2500      	movs	r5, #0
    415a:	462b      	mov	r3, r5
    415c:	462c      	mov	r4, r5
    415e:	e033      	b.n	41c8 <_ZN4core3fmt9Formatter3pad17h4d00fc72b86d5e35E+0x2a6>
    4160:	0ac8      	lsrs	r0, r1, #11
    4162:	2800      	cmp	r0, #0
    4164:	d10d      	bne.n	4182 <_ZN4core3fmt9Formatter3pad17h4d00fc72b86d5e35E+0x260>
    4166:	203f      	movs	r0, #63	; 0x3f
    4168:	4008      	ands	r0, r1
    416a:	9d08      	ldr	r5, [sp, #32]
    416c:	4328      	orrs	r0, r5
    416e:	0989      	lsrs	r1, r1, #6
    4170:	221f      	movs	r2, #31
    4172:	400a      	ands	r2, r1
    4174:	3540      	adds	r5, #64	; 0x40
    4176:	4315      	orrs	r5, r2
    4178:	2202      	movs	r2, #2
    417a:	2300      	movs	r3, #0
    417c:	4601      	mov	r1, r0
    417e:	461c      	mov	r4, r3
    4180:	e022      	b.n	41c8 <_ZN4core3fmt9Formatter3pad17h4d00fc72b86d5e35E+0x2a6>
    4182:	0c08      	lsrs	r0, r1, #16
    4184:	223f      	movs	r2, #63	; 0x3f
    4186:	2800      	cmp	r0, #0
    4188:	d10e      	bne.n	41a8 <_ZN4core3fmt9Formatter3pad17h4d00fc72b86d5e35E+0x286>
    418a:	4608      	mov	r0, r1
    418c:	4010      	ands	r0, r2
    418e:	9b08      	ldr	r3, [sp, #32]
    4190:	4318      	orrs	r0, r3
    4192:	098d      	lsrs	r5, r1, #6
    4194:	4015      	ands	r5, r2
    4196:	431d      	orrs	r5, r3
    4198:	0b09      	lsrs	r1, r1, #12
    419a:	220f      	movs	r2, #15
    419c:	400a      	ands	r2, r1
    419e:	3360      	adds	r3, #96	; 0x60
    41a0:	4313      	orrs	r3, r2
    41a2:	2201      	movs	r2, #1
    41a4:	2400      	movs	r4, #0
    41a6:	e00e      	b.n	41c6 <_ZN4core3fmt9Formatter3pad17h4d00fc72b86d5e35E+0x2a4>
    41a8:	4608      	mov	r0, r1
    41aa:	4010      	ands	r0, r2
    41ac:	9f08      	ldr	r7, [sp, #32]
    41ae:	4338      	orrs	r0, r7
    41b0:	463b      	mov	r3, r7
    41b2:	3370      	adds	r3, #112	; 0x70
    41b4:	0c8c      	lsrs	r4, r1, #18
    41b6:	431c      	orrs	r4, r3
    41b8:	098d      	lsrs	r5, r1, #6
    41ba:	4015      	ands	r5, r2
    41bc:	433d      	orrs	r5, r7
    41be:	0b0b      	lsrs	r3, r1, #12
    41c0:	4013      	ands	r3, r2
    41c2:	433b      	orrs	r3, r7
    41c4:	2200      	movs	r2, #0
    41c6:	4601      	mov	r1, r0
    41c8:	a809      	add	r0, sp, #36	; 0x24
    41ca:	7004      	strb	r4, [r0, #0]
    41cc:	7043      	strb	r3, [r0, #1]
    41ce:	7085      	strb	r5, [r0, #2]
    41d0:	70c1      	strb	r1, [r0, #3]
    41d2:	920a      	str	r2, [sp, #40]	; 0x28
    41d4:	2104      	movs	r1, #4
    41d6:	1a8f      	subs	r7, r1, r2
    41d8:	1885      	adds	r5, r0, r2
    41da:	9c02      	ldr	r4, [sp, #8]
    41dc:	1c64      	adds	r4, r4, #1
    41de:	42b4      	cmp	r4, r6
    41e0:	d20a      	bcs.n	41f8 <_ZN4core3fmt9Formatter3pad17h4d00fc72b86d5e35E+0x2d6>
    41e2:	9906      	ldr	r1, [sp, #24]
    41e4:	69c8      	ldr	r0, [r1, #28]
    41e6:	6a09      	ldr	r1, [r1, #32]
    41e8:	68cb      	ldr	r3, [r1, #12]
    41ea:	4629      	mov	r1, r5
    41ec:	463a      	mov	r2, r7
    41ee:	4798      	blx	r3
    41f0:	21ff      	movs	r1, #255	; 0xff
    41f2:	4208      	tst	r0, r1
    41f4:	d0f2      	beq.n	41dc <_ZN4core3fmt9Formatter3pad17h4d00fc72b86d5e35E+0x2ba>
    41f6:	e009      	b.n	420c <_ZN4core3fmt9Formatter3pad17h4d00fc72b86d5e35E+0x2ea>
    41f8:	9906      	ldr	r1, [sp, #24]
    41fa:	69c8      	ldr	r0, [r1, #28]
    41fc:	6a09      	ldr	r1, [r1, #32]
    41fe:	68cb      	ldr	r3, [r1, #12]
    4200:	9904      	ldr	r1, [sp, #16]
    4202:	9a03      	ldr	r2, [sp, #12]
    4204:	4798      	blx	r3
    4206:	24ff      	movs	r4, #255	; 0xff
    4208:	4220      	tst	r0, r4
    420a:	d002      	beq.n	4212 <_ZN4core3fmt9Formatter3pad17h4d00fc72b86d5e35E+0x2f0>
    420c:	2001      	movs	r0, #1
    420e:	b00b      	add	sp, #44	; 0x2c
    4210:	bdf0      	pop	{r4, r5, r6, r7, pc}
    4212:	9e07      	ldr	r6, [sp, #28]
    4214:	9802      	ldr	r0, [sp, #8]
    4216:	1c40      	adds	r0, r0, #1
    4218:	9002      	str	r0, [sp, #8]
    421a:	42b0      	cmp	r0, r6
    421c:	d20b      	bcs.n	4236 <_ZN4core3fmt9Formatter3pad17h4d00fc72b86d5e35E+0x314>
    421e:	9906      	ldr	r1, [sp, #24]
    4220:	69c8      	ldr	r0, [r1, #28]
    4222:	6a09      	ldr	r1, [r1, #32]
    4224:	68cb      	ldr	r3, [r1, #12]
    4226:	4629      	mov	r1, r5
    4228:	463a      	mov	r2, r7
    422a:	4798      	blx	r3
    422c:	4220      	tst	r0, r4
    422e:	d0f1      	beq.n	4214 <_ZN4core3fmt9Formatter3pad17h4d00fc72b86d5e35E+0x2f2>
    4230:	2001      	movs	r0, #1
    4232:	b00b      	add	sp, #44	; 0x2c
    4234:	bdf0      	pop	{r4, r5, r6, r7, pc}
    4236:	2000      	movs	r0, #0
    4238:	b00b      	add	sp, #44	; 0x2c
    423a:	bdf0      	pop	{r4, r5, r6, r7, pc}

0000423c <_ZN42_$LT$str$u20$as$u20$core..fmt..Display$GT$3fmt17h44772e7796928d68E>:
    423c:	b580      	push	{r7, lr}
    423e:	460b      	mov	r3, r1
    4240:	4601      	mov	r1, r0
    4242:	4610      	mov	r0, r2
    4244:	461a      	mov	r2, r3
    4246:	f7ff fe6c 	bl	3f22 <_ZN4core3fmt9Formatter3pad17h4d00fc72b86d5e35E>
    424a:	bd80      	pop	{r7, pc}

0000424c <_ZN4core3fmt3num52_$LT$impl$u20$core..fmt..Display$u20$for$u20$u32$GT$3fmt17hf337a9fe231bc9c3E>:
    424c:	b5f0      	push	{r4, r5, r6, r7, lr}
    424e:	b08b      	sub	sp, #44	; 0x2c
    4250:	9103      	str	r1, [sp, #12]
    4252:	6804      	ldr	r4, [r0, #0]
    4254:	2001      	movs	r0, #1
    4256:	43c7      	mvns	r7, r0
    4258:	2614      	movs	r6, #20
    425a:	482e      	ldr	r0, [pc, #184]	; (4314 <_ZN4core3fmt3num52_$LT$impl$u20$core..fmt..Display$u20$for$u20$u32$GT$3fmt17hf337a9fe231bc9c3E+0xc8>)
    425c:	4284      	cmp	r4, r0
    425e:	d327      	bcc.n	42b0 <_ZN4core3fmt3num52_$LT$impl$u20$core..fmt..Display$u20$for$u20$u32$GT$3fmt17hf337a9fe231bc9c3E+0x64>
    4260:	2614      	movs	r6, #20
    4262:	492c      	ldr	r1, [pc, #176]	; (4314 <_ZN4core3fmt3num52_$LT$impl$u20$core..fmt..Display$u20$for$u20$u32$GT$3fmt17hf337a9fe231bc9c3E+0xc8>)
    4264:	4620      	mov	r0, r4
    4266:	f000 f9c1 	bl	45ec <__aeabi_uidivmod>
    426a:	9604      	str	r6, [sp, #16]
    426c:	9005      	str	r0, [sp, #20]
    426e:	2264      	movs	r2, #100	; 0x64
    4270:	4608      	mov	r0, r1
    4272:	4611      	mov	r1, r2
    4274:	f000 f9ba 	bl	45ec <__aeabi_uidivmod>
    4278:	aa06      	add	r2, sp, #24
    427a:	1992      	adds	r2, r2, r6
    427c:	0040      	lsls	r0, r0, #1
    427e:	4e26      	ldr	r6, [pc, #152]	; (4318 <_ZN4core3fmt3num52_$LT$impl$u20$core..fmt..Display$u20$for$u20$u32$GT$3fmt17hf337a9fe231bc9c3E+0xcc>)
    4280:	5c33      	ldrb	r3, [r6, r0]
    4282:	463d      	mov	r5, r7
    4284:	006f      	lsls	r7, r5, #1
    4286:	55d3      	strb	r3, [r2, r7]
    4288:	19d2      	adds	r2, r2, r7
    428a:	462f      	mov	r7, r5
    428c:	9d05      	ldr	r5, [sp, #20]
    428e:	1830      	adds	r0, r6, r0
    4290:	7840      	ldrb	r0, [r0, #1]
    4292:	7050      	strb	r0, [r2, #1]
    4294:	0048      	lsls	r0, r1, #1
    4296:	1831      	adds	r1, r6, r0
    4298:	7849      	ldrb	r1, [r1, #1]
    429a:	70d1      	strb	r1, [r2, #3]
    429c:	5c30      	ldrb	r0, [r6, r0]
    429e:	7090      	strb	r0, [r2, #2]
    42a0:	9804      	ldr	r0, [sp, #16]
    42a2:	19c0      	adds	r0, r0, r7
    42a4:	1e86      	subs	r6, r0, #2
    42a6:	481d      	ldr	r0, [pc, #116]	; (431c <_ZN4core3fmt3num52_$LT$impl$u20$core..fmt..Display$u20$for$u20$u32$GT$3fmt17hf337a9fe231bc9c3E+0xd0>)
    42a8:	4284      	cmp	r4, r0
    42aa:	462c      	mov	r4, r5
    42ac:	d8d9      	bhi.n	4262 <_ZN4core3fmt3num52_$LT$impl$u20$core..fmt..Display$u20$for$u20$u32$GT$3fmt17hf337a9fe231bc9c3E+0x16>
    42ae:	e000      	b.n	42b2 <_ZN4core3fmt3num52_$LT$impl$u20$core..fmt..Display$u20$for$u20$u32$GT$3fmt17hf337a9fe231bc9c3E+0x66>
    42b0:	4625      	mov	r5, r4
    42b2:	2d64      	cmp	r5, #100	; 0x64
    42b4:	db0e      	blt.n	42d4 <_ZN4core3fmt3num52_$LT$impl$u20$core..fmt..Display$u20$for$u20$u32$GT$3fmt17hf337a9fe231bc9c3E+0x88>
    42b6:	2164      	movs	r1, #100	; 0x64
    42b8:	4628      	mov	r0, r5
    42ba:	f000 f997 	bl	45ec <__aeabi_uidivmod>
    42be:	4605      	mov	r5, r0
    42c0:	19f6      	adds	r6, r6, r7
    42c2:	0048      	lsls	r0, r1, #1
    42c4:	4914      	ldr	r1, [pc, #80]	; (4318 <_ZN4core3fmt3num52_$LT$impl$u20$core..fmt..Display$u20$for$u20$u32$GT$3fmt17hf337a9fe231bc9c3E+0xcc>)
    42c6:	5c0a      	ldrb	r2, [r1, r0]
    42c8:	ab06      	add	r3, sp, #24
    42ca:	559a      	strb	r2, [r3, r6]
    42cc:	199a      	adds	r2, r3, r6
    42ce:	1808      	adds	r0, r1, r0
    42d0:	7840      	ldrb	r0, [r0, #1]
    42d2:	7050      	strb	r0, [r2, #1]
    42d4:	19f0      	adds	r0, r6, r7
    42d6:	2d09      	cmp	r5, #9
    42d8:	dc04      	bgt.n	42e4 <_ZN4core3fmt3num52_$LT$impl$u20$core..fmt..Display$u20$for$u20$u32$GT$3fmt17hf337a9fe231bc9c3E+0x98>
    42da:	1c40      	adds	r0, r0, #1
    42dc:	3530      	adds	r5, #48	; 0x30
    42de:	a906      	add	r1, sp, #24
    42e0:	540d      	strb	r5, [r1, r0]
    42e2:	e008      	b.n	42f6 <_ZN4core3fmt3num52_$LT$impl$u20$core..fmt..Display$u20$for$u20$u32$GT$3fmt17hf337a9fe231bc9c3E+0xaa>
    42e4:	0069      	lsls	r1, r5, #1
    42e6:	4a0c      	ldr	r2, [pc, #48]	; (4318 <_ZN4core3fmt3num52_$LT$impl$u20$core..fmt..Display$u20$for$u20$u32$GT$3fmt17hf337a9fe231bc9c3E+0xcc>)
    42e8:	5c53      	ldrb	r3, [r2, r1]
    42ea:	ac06      	add	r4, sp, #24
    42ec:	5423      	strb	r3, [r4, r0]
    42ee:	1823      	adds	r3, r4, r0
    42f0:	1851      	adds	r1, r2, r1
    42f2:	7849      	ldrb	r1, [r1, #1]
    42f4:	7059      	strb	r1, [r3, #1]
    42f6:	2114      	movs	r1, #20
    42f8:	1a09      	subs	r1, r1, r0
    42fa:	466a      	mov	r2, sp
    42fc:	6051      	str	r1, [r2, #4]
    42fe:	a906      	add	r1, sp, #24
    4300:	1808      	adds	r0, r1, r0
    4302:	6010      	str	r0, [r2, #0]
    4304:	2101      	movs	r1, #1
    4306:	4a06      	ldr	r2, [pc, #24]	; (4320 <_ZN4core3fmt3num52_$LT$impl$u20$core..fmt..Display$u20$for$u20$u32$GT$3fmt17hf337a9fe231bc9c3E+0xd4>)
    4308:	2300      	movs	r3, #0
    430a:	9803      	ldr	r0, [sp, #12]
    430c:	f7ff fc56 	bl	3bbc <_ZN4core3fmt9Formatter12pad_integral17h659d112ebaa6d17eE>
    4310:	b00b      	add	sp, #44	; 0x2c
    4312:	bdf0      	pop	{r4, r5, r6, r7, pc}
    4314:	00002710 	.word	0x00002710
    4318:	0000ce4c 	.word	0x0000ce4c
    431c:	05f5e0ff 	.word	0x05f5e0ff
    4320:	0000ca98 	.word	0x0000ca98

00004324 <_ZN4core3fmt3num54_$LT$impl$u20$core..fmt..Display$u20$for$u20$usize$GT$3fmt17h1c040bb55b3b1573E>:
    4324:	b5f0      	push	{r4, r5, r6, r7, lr}
    4326:	b08b      	sub	sp, #44	; 0x2c
    4328:	9103      	str	r1, [sp, #12]
    432a:	6804      	ldr	r4, [r0, #0]
    432c:	2001      	movs	r0, #1
    432e:	43c7      	mvns	r7, r0
    4330:	2614      	movs	r6, #20
    4332:	482e      	ldr	r0, [pc, #184]	; (43ec <_ZN4core3fmt3num54_$LT$impl$u20$core..fmt..Display$u20$for$u20$usize$GT$3fmt17h1c040bb55b3b1573E+0xc8>)
    4334:	4284      	cmp	r4, r0
    4336:	d327      	bcc.n	4388 <_ZN4core3fmt3num54_$LT$impl$u20$core..fmt..Display$u20$for$u20$usize$GT$3fmt17h1c040bb55b3b1573E+0x64>
    4338:	2614      	movs	r6, #20
    433a:	492c      	ldr	r1, [pc, #176]	; (43ec <_ZN4core3fmt3num54_$LT$impl$u20$core..fmt..Display$u20$for$u20$usize$GT$3fmt17h1c040bb55b3b1573E+0xc8>)
    433c:	4620      	mov	r0, r4
    433e:	f000 f955 	bl	45ec <__aeabi_uidivmod>
    4342:	9604      	str	r6, [sp, #16]
    4344:	9005      	str	r0, [sp, #20]
    4346:	2264      	movs	r2, #100	; 0x64
    4348:	4608      	mov	r0, r1
    434a:	4611      	mov	r1, r2
    434c:	f000 f94e 	bl	45ec <__aeabi_uidivmod>
    4350:	aa06      	add	r2, sp, #24
    4352:	1992      	adds	r2, r2, r6
    4354:	0040      	lsls	r0, r0, #1
    4356:	4e26      	ldr	r6, [pc, #152]	; (43f0 <_ZN4core3fmt3num54_$LT$impl$u20$core..fmt..Display$u20$for$u20$usize$GT$3fmt17h1c040bb55b3b1573E+0xcc>)
    4358:	5c33      	ldrb	r3, [r6, r0]
    435a:	463d      	mov	r5, r7
    435c:	006f      	lsls	r7, r5, #1
    435e:	55d3      	strb	r3, [r2, r7]
    4360:	19d2      	adds	r2, r2, r7
    4362:	462f      	mov	r7, r5
    4364:	9d05      	ldr	r5, [sp, #20]
    4366:	1830      	adds	r0, r6, r0
    4368:	7840      	ldrb	r0, [r0, #1]
    436a:	7050      	strb	r0, [r2, #1]
    436c:	0048      	lsls	r0, r1, #1
    436e:	1831      	adds	r1, r6, r0
    4370:	7849      	ldrb	r1, [r1, #1]
    4372:	70d1      	strb	r1, [r2, #3]
    4374:	5c30      	ldrb	r0, [r6, r0]
    4376:	7090      	strb	r0, [r2, #2]
    4378:	9804      	ldr	r0, [sp, #16]
    437a:	19c0      	adds	r0, r0, r7
    437c:	1e86      	subs	r6, r0, #2
    437e:	481d      	ldr	r0, [pc, #116]	; (43f4 <_ZN4core3fmt3num54_$LT$impl$u20$core..fmt..Display$u20$for$u20$usize$GT$3fmt17h1c040bb55b3b1573E+0xd0>)
    4380:	4284      	cmp	r4, r0
    4382:	462c      	mov	r4, r5
    4384:	d8d9      	bhi.n	433a <_ZN4core3fmt3num54_$LT$impl$u20$core..fmt..Display$u20$for$u20$usize$GT$3fmt17h1c040bb55b3b1573E+0x16>
    4386:	e000      	b.n	438a <_ZN4core3fmt3num54_$LT$impl$u20$core..fmt..Display$u20$for$u20$usize$GT$3fmt17h1c040bb55b3b1573E+0x66>
    4388:	4625      	mov	r5, r4
    438a:	2d64      	cmp	r5, #100	; 0x64
    438c:	db0e      	blt.n	43ac <_ZN4core3fmt3num54_$LT$impl$u20$core..fmt..Display$u20$for$u20$usize$GT$3fmt17h1c040bb55b3b1573E+0x88>
    438e:	2164      	movs	r1, #100	; 0x64
    4390:	4628      	mov	r0, r5
    4392:	f000 f92b 	bl	45ec <__aeabi_uidivmod>
    4396:	4605      	mov	r5, r0
    4398:	19f6      	adds	r6, r6, r7
    439a:	0048      	lsls	r0, r1, #1
    439c:	4914      	ldr	r1, [pc, #80]	; (43f0 <_ZN4core3fmt3num54_$LT$impl$u20$core..fmt..Display$u20$for$u20$usize$GT$3fmt17h1c040bb55b3b1573E+0xcc>)
    439e:	5c0a      	ldrb	r2, [r1, r0]
    43a0:	ab06      	add	r3, sp, #24
    43a2:	559a      	strb	r2, [r3, r6]
    43a4:	199a      	adds	r2, r3, r6
    43a6:	1808      	adds	r0, r1, r0
    43a8:	7840      	ldrb	r0, [r0, #1]
    43aa:	7050      	strb	r0, [r2, #1]
    43ac:	19f0      	adds	r0, r6, r7
    43ae:	2d09      	cmp	r5, #9
    43b0:	dc04      	bgt.n	43bc <_ZN4core3fmt3num54_$LT$impl$u20$core..fmt..Display$u20$for$u20$usize$GT$3fmt17h1c040bb55b3b1573E+0x98>
    43b2:	1c40      	adds	r0, r0, #1
    43b4:	3530      	adds	r5, #48	; 0x30
    43b6:	a906      	add	r1, sp, #24
    43b8:	540d      	strb	r5, [r1, r0]
    43ba:	e008      	b.n	43ce <_ZN4core3fmt3num54_$LT$impl$u20$core..fmt..Display$u20$for$u20$usize$GT$3fmt17h1c040bb55b3b1573E+0xaa>
    43bc:	0069      	lsls	r1, r5, #1
    43be:	4a0c      	ldr	r2, [pc, #48]	; (43f0 <_ZN4core3fmt3num54_$LT$impl$u20$core..fmt..Display$u20$for$u20$usize$GT$3fmt17h1c040bb55b3b1573E+0xcc>)
    43c0:	5c53      	ldrb	r3, [r2, r1]
    43c2:	ac06      	add	r4, sp, #24
    43c4:	5423      	strb	r3, [r4, r0]
    43c6:	1823      	adds	r3, r4, r0
    43c8:	1851      	adds	r1, r2, r1
    43ca:	7849      	ldrb	r1, [r1, #1]
    43cc:	7059      	strb	r1, [r3, #1]
    43ce:	2114      	movs	r1, #20
    43d0:	1a09      	subs	r1, r1, r0
    43d2:	466a      	mov	r2, sp
    43d4:	6051      	str	r1, [r2, #4]
    43d6:	a906      	add	r1, sp, #24
    43d8:	1808      	adds	r0, r1, r0
    43da:	6010      	str	r0, [r2, #0]
    43dc:	2101      	movs	r1, #1
    43de:	4a06      	ldr	r2, [pc, #24]	; (43f8 <_ZN4core3fmt3num54_$LT$impl$u20$core..fmt..Display$u20$for$u20$usize$GT$3fmt17h1c040bb55b3b1573E+0xd4>)
    43e0:	2300      	movs	r3, #0
    43e2:	9803      	ldr	r0, [sp, #12]
    43e4:	f7ff fbea 	bl	3bbc <_ZN4core3fmt9Formatter12pad_integral17h659d112ebaa6d17eE>
    43e8:	b00b      	add	sp, #44	; 0x2c
    43ea:	bdf0      	pop	{r4, r5, r6, r7, pc}
    43ec:	00002710 	.word	0x00002710
    43f0:	0000ce4c 	.word	0x0000ce4c
    43f4:	05f5e0ff 	.word	0x05f5e0ff
    43f8:	0000ca98 	.word	0x0000ca98

000043fc <_ZN55_$LT$$RF$$u27$a$u20$T$u20$as$u20$core..fmt..Display$GT$3fmt17h89c56492ecb0d40cE>:
    43fc:	b580      	push	{r7, lr}
    43fe:	6803      	ldr	r3, [r0, #0]
    4400:	6842      	ldr	r2, [r0, #4]
    4402:	4608      	mov	r0, r1
    4404:	4619      	mov	r1, r3
    4406:	f7ff fd8c 	bl	3f22 <_ZN4core3fmt9Formatter3pad17h4d00fc72b86d5e35E>
    440a:	bd80      	pop	{r7, pc}

0000440c <_ZN4core3fmt9Formatter12pad_integral28_$u7b$$u7b$closure$u7d$$u7d$17he503c3eb3ba3a1d4E>:
    440c:	b5f0      	push	{r4, r5, r6, r7, lr}
    440e:	b085      	sub	sp, #20
    4410:	460d      	mov	r5, r1
    4412:	4604      	mov	r4, r0
    4414:	6820      	ldr	r0, [r4, #0]
    4416:	6801      	ldr	r1, [r0, #0]
    4418:	2901      	cmp	r1, #1
    441a:	d154      	bne.n	44c6 <_ZN4core3fmt9Formatter12pad_integral28_$u7b$$u7b$closure$u7d$$u7d$17he503c3eb3ba3a1d4E+0xba>
    441c:	69e9      	ldr	r1, [r5, #28]
    441e:	9102      	str	r1, [sp, #8]
    4420:	6a29      	ldr	r1, [r5, #32]
    4422:	9101      	str	r1, [sp, #4]
    4424:	6842      	ldr	r2, [r0, #4]
    4426:	2a80      	cmp	r2, #128	; 0x80
    4428:	d204      	bcs.n	4434 <_ZN4core3fmt9Formatter12pad_integral28_$u7b$$u7b$closure$u7d$$u7d$17he503c3eb3ba3a1d4E+0x28>
    442a:	2603      	movs	r6, #3
    442c:	2100      	movs	r1, #0
    442e:	460f      	mov	r7, r1
    4430:	460b      	mov	r3, r1
    4432:	e036      	b.n	44a2 <_ZN4core3fmt9Formatter12pad_integral28_$u7b$$u7b$closure$u7d$$u7d$17he503c3eb3ba3a1d4E+0x96>
    4434:	0ad0      	lsrs	r0, r2, #11
    4436:	2180      	movs	r1, #128	; 0x80
    4438:	2800      	cmp	r0, #0
    443a:	d10c      	bne.n	4456 <_ZN4core3fmt9Formatter12pad_integral28_$u7b$$u7b$closure$u7d$$u7d$17he503c3eb3ba3a1d4E+0x4a>
    443c:	203f      	movs	r0, #63	; 0x3f
    443e:	4010      	ands	r0, r2
    4440:	4308      	orrs	r0, r1
    4442:	0992      	lsrs	r2, r2, #6
    4444:	231f      	movs	r3, #31
    4446:	4013      	ands	r3, r2
    4448:	3140      	adds	r1, #64	; 0x40
    444a:	4319      	orrs	r1, r3
    444c:	2602      	movs	r6, #2
    444e:	2700      	movs	r7, #0
    4450:	4602      	mov	r2, r0
    4452:	463b      	mov	r3, r7
    4454:	e025      	b.n	44a2 <_ZN4core3fmt9Formatter12pad_integral28_$u7b$$u7b$closure$u7d$$u7d$17he503c3eb3ba3a1d4E+0x96>
    4456:	0c10      	lsrs	r0, r2, #16
    4458:	2800      	cmp	r0, #0
    445a:	d110      	bne.n	447e <_ZN4core3fmt9Formatter12pad_integral28_$u7b$$u7b$closure$u7d$$u7d$17he503c3eb3ba3a1d4E+0x72>
    445c:	233f      	movs	r3, #63	; 0x3f
    445e:	4610      	mov	r0, r2
    4460:	4018      	ands	r0, r3
    4462:	4308      	orrs	r0, r1
    4464:	9000      	str	r0, [sp, #0]
    4466:	0990      	lsrs	r0, r2, #6
    4468:	4018      	ands	r0, r3
    446a:	4308      	orrs	r0, r1
    446c:	0b12      	lsrs	r2, r2, #12
    446e:	230f      	movs	r3, #15
    4470:	4013      	ands	r3, r2
    4472:	3160      	adds	r1, #96	; 0x60
    4474:	460f      	mov	r7, r1
    4476:	431f      	orrs	r7, r3
    4478:	2601      	movs	r6, #1
    447a:	2300      	movs	r3, #0
    447c:	e00f      	b.n	449e <_ZN4core3fmt9Formatter12pad_integral28_$u7b$$u7b$closure$u7d$$u7d$17he503c3eb3ba3a1d4E+0x92>
    447e:	263f      	movs	r6, #63	; 0x3f
    4480:	4610      	mov	r0, r2
    4482:	4030      	ands	r0, r6
    4484:	4308      	orrs	r0, r1
    4486:	9000      	str	r0, [sp, #0]
    4488:	460f      	mov	r7, r1
    448a:	3770      	adds	r7, #112	; 0x70
    448c:	0c93      	lsrs	r3, r2, #18
    448e:	433b      	orrs	r3, r7
    4490:	0990      	lsrs	r0, r2, #6
    4492:	4030      	ands	r0, r6
    4494:	4308      	orrs	r0, r1
    4496:	0b17      	lsrs	r7, r2, #12
    4498:	4037      	ands	r7, r6
    449a:	430f      	orrs	r7, r1
    449c:	2600      	movs	r6, #0
    449e:	9a00      	ldr	r2, [sp, #0]
    44a0:	4601      	mov	r1, r0
    44a2:	a803      	add	r0, sp, #12
    44a4:	7003      	strb	r3, [r0, #0]
    44a6:	7047      	strb	r7, [r0, #1]
    44a8:	7081      	strb	r1, [r0, #2]
    44aa:	70c2      	strb	r2, [r0, #3]
    44ac:	9604      	str	r6, [sp, #16]
    44ae:	1981      	adds	r1, r0, r6
    44b0:	2004      	movs	r0, #4
    44b2:	1b82      	subs	r2, r0, r6
    44b4:	9801      	ldr	r0, [sp, #4]
    44b6:	68c3      	ldr	r3, [r0, #12]
    44b8:	9802      	ldr	r0, [sp, #8]
    44ba:	4798      	blx	r3
    44bc:	4601      	mov	r1, r0
    44be:	2001      	movs	r0, #1
    44c0:	22ff      	movs	r2, #255	; 0xff
    44c2:	4211      	tst	r1, r2
    44c4:	d10a      	bne.n	44dc <_ZN4core3fmt9Formatter12pad_integral28_$u7b$$u7b$closure$u7d$$u7d$17he503c3eb3ba3a1d4E+0xd0>
    44c6:	6860      	ldr	r0, [r4, #4]
    44c8:	7801      	ldrb	r1, [r0, #0]
    44ca:	2000      	movs	r0, #0
    44cc:	2900      	cmp	r1, #0
    44ce:	d005      	beq.n	44dc <_ZN4core3fmt9Formatter12pad_integral28_$u7b$$u7b$closure$u7d$$u7d$17he503c3eb3ba3a1d4E+0xd0>
    44d0:	69e8      	ldr	r0, [r5, #28]
    44d2:	6a29      	ldr	r1, [r5, #32]
    44d4:	68cb      	ldr	r3, [r1, #12]
    44d6:	68a2      	ldr	r2, [r4, #8]
    44d8:	ca06      	ldmia	r2, {r1, r2}
    44da:	4798      	blx	r3
    44dc:	b005      	add	sp, #20
    44de:	bdf0      	pop	{r4, r5, r6, r7, pc}

000044e0 <__udivsi3>:
    44e0:	2200      	movs	r2, #0
    44e2:	0843      	lsrs	r3, r0, #1
    44e4:	428b      	cmp	r3, r1
    44e6:	d374      	bcc.n	45d2 <__udivsi3+0xf2>
    44e8:	0903      	lsrs	r3, r0, #4
    44ea:	428b      	cmp	r3, r1
    44ec:	d35f      	bcc.n	45ae <__udivsi3+0xce>
    44ee:	0a03      	lsrs	r3, r0, #8
    44f0:	428b      	cmp	r3, r1
    44f2:	d344      	bcc.n	457e <__udivsi3+0x9e>
    44f4:	0b03      	lsrs	r3, r0, #12
    44f6:	428b      	cmp	r3, r1
    44f8:	d328      	bcc.n	454c <__udivsi3+0x6c>
    44fa:	0c03      	lsrs	r3, r0, #16
    44fc:	428b      	cmp	r3, r1
    44fe:	d30d      	bcc.n	451c <__udivsi3+0x3c>
    4500:	22ff      	movs	r2, #255	; 0xff
    4502:	0209      	lsls	r1, r1, #8
    4504:	ba12      	rev	r2, r2
    4506:	0c03      	lsrs	r3, r0, #16
    4508:	428b      	cmp	r3, r1
    450a:	d302      	bcc.n	4512 <__udivsi3+0x32>
    450c:	1212      	asrs	r2, r2, #8
    450e:	0209      	lsls	r1, r1, #8
    4510:	d065      	beq.n	45de <__udivsi3+0xfe>
    4512:	0b03      	lsrs	r3, r0, #12
    4514:	428b      	cmp	r3, r1
    4516:	d319      	bcc.n	454c <__udivsi3+0x6c>
    4518:	e000      	b.n	451c <__udivsi3+0x3c>
    451a:	0a09      	lsrs	r1, r1, #8
    451c:	0bc3      	lsrs	r3, r0, #15
    451e:	428b      	cmp	r3, r1
    4520:	d301      	bcc.n	4526 <__udivsi3+0x46>
    4522:	03cb      	lsls	r3, r1, #15
    4524:	1ac0      	subs	r0, r0, r3
    4526:	4152      	adcs	r2, r2
    4528:	0b83      	lsrs	r3, r0, #14
    452a:	428b      	cmp	r3, r1
    452c:	d301      	bcc.n	4532 <__udivsi3+0x52>
    452e:	038b      	lsls	r3, r1, #14
    4530:	1ac0      	subs	r0, r0, r3
    4532:	4152      	adcs	r2, r2
    4534:	0b43      	lsrs	r3, r0, #13
    4536:	428b      	cmp	r3, r1
    4538:	d301      	bcc.n	453e <__udivsi3+0x5e>
    453a:	034b      	lsls	r3, r1, #13
    453c:	1ac0      	subs	r0, r0, r3
    453e:	4152      	adcs	r2, r2
    4540:	0b03      	lsrs	r3, r0, #12
    4542:	428b      	cmp	r3, r1
    4544:	d301      	bcc.n	454a <__udivsi3+0x6a>
    4546:	030b      	lsls	r3, r1, #12
    4548:	1ac0      	subs	r0, r0, r3
    454a:	4152      	adcs	r2, r2
    454c:	0ac3      	lsrs	r3, r0, #11
    454e:	428b      	cmp	r3, r1
    4550:	d301      	bcc.n	4556 <__udivsi3+0x76>
    4552:	02cb      	lsls	r3, r1, #11
    4554:	1ac0      	subs	r0, r0, r3
    4556:	4152      	adcs	r2, r2
    4558:	0a83      	lsrs	r3, r0, #10
    455a:	428b      	cmp	r3, r1
    455c:	d301      	bcc.n	4562 <__udivsi3+0x82>
    455e:	028b      	lsls	r3, r1, #10
    4560:	1ac0      	subs	r0, r0, r3
    4562:	4152      	adcs	r2, r2
    4564:	0a43      	lsrs	r3, r0, #9
    4566:	428b      	cmp	r3, r1
    4568:	d301      	bcc.n	456e <__udivsi3+0x8e>
    456a:	024b      	lsls	r3, r1, #9
    456c:	1ac0      	subs	r0, r0, r3
    456e:	4152      	adcs	r2, r2
    4570:	0a03      	lsrs	r3, r0, #8
    4572:	428b      	cmp	r3, r1
    4574:	d301      	bcc.n	457a <__udivsi3+0x9a>
    4576:	020b      	lsls	r3, r1, #8
    4578:	1ac0      	subs	r0, r0, r3
    457a:	4152      	adcs	r2, r2
    457c:	d2cd      	bcs.n	451a <__udivsi3+0x3a>
    457e:	09c3      	lsrs	r3, r0, #7
    4580:	428b      	cmp	r3, r1
    4582:	d301      	bcc.n	4588 <__udivsi3+0xa8>
    4584:	01cb      	lsls	r3, r1, #7
    4586:	1ac0      	subs	r0, r0, r3
    4588:	4152      	adcs	r2, r2
    458a:	0983      	lsrs	r3, r0, #6
    458c:	428b      	cmp	r3, r1
    458e:	d301      	bcc.n	4594 <__udivsi3+0xb4>
    4590:	018b      	lsls	r3, r1, #6
    4592:	1ac0      	subs	r0, r0, r3
    4594:	4152      	adcs	r2, r2
    4596:	0943      	lsrs	r3, r0, #5
    4598:	428b      	cmp	r3, r1
    459a:	d301      	bcc.n	45a0 <__udivsi3+0xc0>
    459c:	014b      	lsls	r3, r1, #5
    459e:	1ac0      	subs	r0, r0, r3
    45a0:	4152      	adcs	r2, r2
    45a2:	0903      	lsrs	r3, r0, #4
    45a4:	428b      	cmp	r3, r1
    45a6:	d301      	bcc.n	45ac <__udivsi3+0xcc>
    45a8:	010b      	lsls	r3, r1, #4
    45aa:	1ac0      	subs	r0, r0, r3
    45ac:	4152      	adcs	r2, r2
    45ae:	08c3      	lsrs	r3, r0, #3
    45b0:	428b      	cmp	r3, r1
    45b2:	d301      	bcc.n	45b8 <__udivsi3+0xd8>
    45b4:	00cb      	lsls	r3, r1, #3
    45b6:	1ac0      	subs	r0, r0, r3
    45b8:	4152      	adcs	r2, r2
    45ba:	0883      	lsrs	r3, r0, #2
    45bc:	428b      	cmp	r3, r1
    45be:	d301      	bcc.n	45c4 <__udivsi3+0xe4>
    45c0:	008b      	lsls	r3, r1, #2
    45c2:	1ac0      	subs	r0, r0, r3
    45c4:	4152      	adcs	r2, r2
    45c6:	0843      	lsrs	r3, r0, #1
    45c8:	428b      	cmp	r3, r1
    45ca:	d301      	bcc.n	45d0 <__udivsi3+0xf0>
    45cc:	004b      	lsls	r3, r1, #1
    45ce:	1ac0      	subs	r0, r0, r3
    45d0:	4152      	adcs	r2, r2
    45d2:	1a41      	subs	r1, r0, r1
    45d4:	d200      	bcs.n	45d8 <__udivsi3+0xf8>
    45d6:	4601      	mov	r1, r0
    45d8:	4152      	adcs	r2, r2
    45da:	4610      	mov	r0, r2
    45dc:	4770      	bx	lr
    45de:	e7ff      	b.n	45e0 <__udivsi3+0x100>
    45e0:	b501      	push	{r0, lr}
    45e2:	2000      	movs	r0, #0
    45e4:	f000 f806 	bl	45f4 <__aeabi_idiv0>
    45e8:	bd02      	pop	{r1, pc}
    45ea:	46c0      	nop			; (mov r8, r8)

000045ec <__aeabi_uidivmod>:
    45ec:	2900      	cmp	r1, #0
    45ee:	d0f7      	beq.n	45e0 <__udivsi3+0x100>
    45f0:	e776      	b.n	44e0 <__udivsi3>
    45f2:	4770      	bx	lr

000045f4 <__aeabi_idiv0>:
    45f4:	4770      	bx	lr
    45f6:	46c0      	nop			; (mov r8, r8)

000045f8 <__aeabi_cdrcmple>:
    45f8:	4684      	mov	ip, r0
    45fa:	1c10      	adds	r0, r2, #0
    45fc:	4662      	mov	r2, ip
    45fe:	468c      	mov	ip, r1
    4600:	1c19      	adds	r1, r3, #0
    4602:	4663      	mov	r3, ip
    4604:	e000      	b.n	4608 <__aeabi_cdcmpeq>
    4606:	46c0      	nop			; (mov r8, r8)

00004608 <__aeabi_cdcmpeq>:
    4608:	b51f      	push	{r0, r1, r2, r3, r4, lr}
    460a:	f001 f81f 	bl	564c <__ledf2>
    460e:	2800      	cmp	r0, #0
    4610:	d401      	bmi.n	4616 <__aeabi_cdcmpeq+0xe>
    4612:	2100      	movs	r1, #0
    4614:	42c8      	cmn	r0, r1
    4616:	bd1f      	pop	{r0, r1, r2, r3, r4, pc}

00004618 <__aeabi_dcmpeq>:
    4618:	b510      	push	{r4, lr}
    461a:	f000 ff79 	bl	5510 <__eqdf2>
    461e:	4240      	negs	r0, r0
    4620:	3001      	adds	r0, #1
    4622:	bd10      	pop	{r4, pc}

00004624 <__aeabi_dcmplt>:
    4624:	b510      	push	{r4, lr}
    4626:	f001 f811 	bl	564c <__ledf2>
    462a:	2800      	cmp	r0, #0
    462c:	db01      	blt.n	4632 <__aeabi_dcmplt+0xe>
    462e:	2000      	movs	r0, #0
    4630:	bd10      	pop	{r4, pc}
    4632:	2001      	movs	r0, #1
    4634:	bd10      	pop	{r4, pc}
    4636:	46c0      	nop			; (mov r8, r8)

00004638 <__aeabi_dcmple>:
    4638:	b510      	push	{r4, lr}
    463a:	f001 f807 	bl	564c <__ledf2>
    463e:	2800      	cmp	r0, #0
    4640:	dd01      	ble.n	4646 <__aeabi_dcmple+0xe>
    4642:	2000      	movs	r0, #0
    4644:	bd10      	pop	{r4, pc}
    4646:	2001      	movs	r0, #1
    4648:	bd10      	pop	{r4, pc}
    464a:	46c0      	nop			; (mov r8, r8)

0000464c <__aeabi_dcmpgt>:
    464c:	b510      	push	{r4, lr}
    464e:	f000 ff99 	bl	5584 <__gedf2>
    4652:	2800      	cmp	r0, #0
    4654:	dc01      	bgt.n	465a <__aeabi_dcmpgt+0xe>
    4656:	2000      	movs	r0, #0
    4658:	bd10      	pop	{r4, pc}
    465a:	2001      	movs	r0, #1
    465c:	bd10      	pop	{r4, pc}
    465e:	46c0      	nop			; (mov r8, r8)

00004660 <__aeabi_dcmpge>:
    4660:	b510      	push	{r4, lr}
    4662:	f000 ff8f 	bl	5584 <__gedf2>
    4666:	2800      	cmp	r0, #0
    4668:	da01      	bge.n	466e <__aeabi_dcmpge+0xe>
    466a:	2000      	movs	r0, #0
    466c:	bd10      	pop	{r4, pc}
    466e:	2001      	movs	r0, #1
    4670:	bd10      	pop	{r4, pc}
    4672:	46c0      	nop			; (mov r8, r8)

00004674 <__aeabi_cfrcmple>:
    4674:	4684      	mov	ip, r0
    4676:	1c08      	adds	r0, r1, #0
    4678:	4661      	mov	r1, ip
    467a:	e7ff      	b.n	467c <__aeabi_cfcmpeq>

0000467c <__aeabi_cfcmpeq>:
    467c:	b51f      	push	{r0, r1, r2, r3, r4, lr}
    467e:	f000 fb93 	bl	4da8 <__lesf2>
    4682:	2800      	cmp	r0, #0
    4684:	d401      	bmi.n	468a <__aeabi_cfcmpeq+0xe>
    4686:	2100      	movs	r1, #0
    4688:	42c8      	cmn	r0, r1
    468a:	bd1f      	pop	{r0, r1, r2, r3, r4, pc}

0000468c <__aeabi_fcmpeq>:
    468c:	b510      	push	{r4, lr}
    468e:	f000 fb25 	bl	4cdc <__eqsf2>
    4692:	4240      	negs	r0, r0
    4694:	3001      	adds	r0, #1
    4696:	bd10      	pop	{r4, pc}

00004698 <__aeabi_fcmplt>:
    4698:	b510      	push	{r4, lr}
    469a:	f000 fb85 	bl	4da8 <__lesf2>
    469e:	2800      	cmp	r0, #0
    46a0:	db01      	blt.n	46a6 <__aeabi_fcmplt+0xe>
    46a2:	2000      	movs	r0, #0
    46a4:	bd10      	pop	{r4, pc}
    46a6:	2001      	movs	r0, #1
    46a8:	bd10      	pop	{r4, pc}
    46aa:	46c0      	nop			; (mov r8, r8)

000046ac <__aeabi_fcmple>:
    46ac:	b510      	push	{r4, lr}
    46ae:	f000 fb7b 	bl	4da8 <__lesf2>
    46b2:	2800      	cmp	r0, #0
    46b4:	dd01      	ble.n	46ba <__aeabi_fcmple+0xe>
    46b6:	2000      	movs	r0, #0
    46b8:	bd10      	pop	{r4, pc}
    46ba:	2001      	movs	r0, #1
    46bc:	bd10      	pop	{r4, pc}
    46be:	46c0      	nop			; (mov r8, r8)

000046c0 <__aeabi_fcmpgt>:
    46c0:	b510      	push	{r4, lr}
    46c2:	f000 fb31 	bl	4d28 <__gesf2>
    46c6:	2800      	cmp	r0, #0
    46c8:	dc01      	bgt.n	46ce <__aeabi_fcmpgt+0xe>
    46ca:	2000      	movs	r0, #0
    46cc:	bd10      	pop	{r4, pc}
    46ce:	2001      	movs	r0, #1
    46d0:	bd10      	pop	{r4, pc}
    46d2:	46c0      	nop			; (mov r8, r8)

000046d4 <__aeabi_fcmpge>:
    46d4:	b510      	push	{r4, lr}
    46d6:	f000 fb27 	bl	4d28 <__gesf2>
    46da:	2800      	cmp	r0, #0
    46dc:	da01      	bge.n	46e2 <__aeabi_fcmpge+0xe>
    46de:	2000      	movs	r0, #0
    46e0:	bd10      	pop	{r4, pc}
    46e2:	2001      	movs	r0, #1
    46e4:	bd10      	pop	{r4, pc}
    46e6:	46c0      	nop			; (mov r8, r8)

000046e8 <__aeabi_f2ulz>:
    46e8:	b570      	push	{r4, r5, r6, lr}
    46ea:	f001 fddf 	bl	62ac <__aeabi_f2d>
    46ee:	2200      	movs	r2, #0
    46f0:	4b0b      	ldr	r3, [pc, #44]	; (4720 <__aeabi_f2ulz+0x38>)
    46f2:	000d      	movs	r5, r1
    46f4:	0004      	movs	r4, r0
    46f6:	f001 f80b 	bl	5710 <__aeabi_dmul>
    46fa:	f001 fe47 	bl	638c <__aeabi_d2uiz>
    46fe:	0006      	movs	r6, r0
    4700:	f001 fd9c 	bl	623c <__aeabi_ui2d>
    4704:	2200      	movs	r2, #0
    4706:	4b07      	ldr	r3, [pc, #28]	; (4724 <__aeabi_f2ulz+0x3c>)
    4708:	f001 f802 	bl	5710 <__aeabi_dmul>
    470c:	0002      	movs	r2, r0
    470e:	000b      	movs	r3, r1
    4710:	0020      	movs	r0, r4
    4712:	0029      	movs	r1, r5
    4714:	f001 fa7c 	bl	5c10 <__aeabi_dsub>
    4718:	f001 fe38 	bl	638c <__aeabi_d2uiz>
    471c:	0031      	movs	r1, r6
    471e:	bd70      	pop	{r4, r5, r6, pc}
    4720:	3df00000 	.word	0x3df00000
    4724:	41f00000 	.word	0x41f00000

00004728 <__aeabi_fadd>:
    4728:	b5f0      	push	{r4, r5, r6, r7, lr}
    472a:	46c6      	mov	lr, r8
    472c:	024e      	lsls	r6, r1, #9
    472e:	0247      	lsls	r7, r0, #9
    4730:	0a76      	lsrs	r6, r6, #9
    4732:	0a7b      	lsrs	r3, r7, #9
    4734:	0044      	lsls	r4, r0, #1
    4736:	0fc5      	lsrs	r5, r0, #31
    4738:	00f7      	lsls	r7, r6, #3
    473a:	0048      	lsls	r0, r1, #1
    473c:	4698      	mov	r8, r3
    473e:	b500      	push	{lr}
    4740:	0e24      	lsrs	r4, r4, #24
    4742:	002a      	movs	r2, r5
    4744:	00db      	lsls	r3, r3, #3
    4746:	0e00      	lsrs	r0, r0, #24
    4748:	0fc9      	lsrs	r1, r1, #31
    474a:	46bc      	mov	ip, r7
    474c:	428d      	cmp	r5, r1
    474e:	d067      	beq.n	4820 <__aeabi_fadd+0xf8>
    4750:	1a22      	subs	r2, r4, r0
    4752:	2a00      	cmp	r2, #0
    4754:	dc00      	bgt.n	4758 <__aeabi_fadd+0x30>
    4756:	e0a5      	b.n	48a4 <__aeabi_fadd+0x17c>
    4758:	2800      	cmp	r0, #0
    475a:	d13a      	bne.n	47d2 <__aeabi_fadd+0xaa>
    475c:	2f00      	cmp	r7, #0
    475e:	d100      	bne.n	4762 <__aeabi_fadd+0x3a>
    4760:	e093      	b.n	488a <__aeabi_fadd+0x162>
    4762:	1e51      	subs	r1, r2, #1
    4764:	2900      	cmp	r1, #0
    4766:	d000      	beq.n	476a <__aeabi_fadd+0x42>
    4768:	e0bc      	b.n	48e4 <__aeabi_fadd+0x1bc>
    476a:	2401      	movs	r4, #1
    476c:	1bdb      	subs	r3, r3, r7
    476e:	015a      	lsls	r2, r3, #5
    4770:	d546      	bpl.n	4800 <__aeabi_fadd+0xd8>
    4772:	019b      	lsls	r3, r3, #6
    4774:	099e      	lsrs	r6, r3, #6
    4776:	0030      	movs	r0, r6
    4778:	f001 fdea 	bl	6350 <__clzsi2>
    477c:	3805      	subs	r0, #5
    477e:	4086      	lsls	r6, r0
    4780:	4284      	cmp	r4, r0
    4782:	dd00      	ble.n	4786 <__aeabi_fadd+0x5e>
    4784:	e09d      	b.n	48c2 <__aeabi_fadd+0x19a>
    4786:	1b04      	subs	r4, r0, r4
    4788:	0032      	movs	r2, r6
    478a:	2020      	movs	r0, #32
    478c:	3401      	adds	r4, #1
    478e:	40e2      	lsrs	r2, r4
    4790:	1b04      	subs	r4, r0, r4
    4792:	40a6      	lsls	r6, r4
    4794:	0033      	movs	r3, r6
    4796:	1e5e      	subs	r6, r3, #1
    4798:	41b3      	sbcs	r3, r6
    479a:	2400      	movs	r4, #0
    479c:	4313      	orrs	r3, r2
    479e:	075a      	lsls	r2, r3, #29
    47a0:	d004      	beq.n	47ac <__aeabi_fadd+0x84>
    47a2:	220f      	movs	r2, #15
    47a4:	401a      	ands	r2, r3
    47a6:	2a04      	cmp	r2, #4
    47a8:	d000      	beq.n	47ac <__aeabi_fadd+0x84>
    47aa:	3304      	adds	r3, #4
    47ac:	015a      	lsls	r2, r3, #5
    47ae:	d529      	bpl.n	4804 <__aeabi_fadd+0xdc>
    47b0:	3401      	adds	r4, #1
    47b2:	2cff      	cmp	r4, #255	; 0xff
    47b4:	d100      	bne.n	47b8 <__aeabi_fadd+0x90>
    47b6:	e081      	b.n	48bc <__aeabi_fadd+0x194>
    47b8:	002a      	movs	r2, r5
    47ba:	019b      	lsls	r3, r3, #6
    47bc:	0a5b      	lsrs	r3, r3, #9
    47be:	b2e4      	uxtb	r4, r4
    47c0:	025b      	lsls	r3, r3, #9
    47c2:	05e4      	lsls	r4, r4, #23
    47c4:	0a58      	lsrs	r0, r3, #9
    47c6:	07d2      	lsls	r2, r2, #31
    47c8:	4320      	orrs	r0, r4
    47ca:	4310      	orrs	r0, r2
    47cc:	bc04      	pop	{r2}
    47ce:	4690      	mov	r8, r2
    47d0:	bdf0      	pop	{r4, r5, r6, r7, pc}
    47d2:	2cff      	cmp	r4, #255	; 0xff
    47d4:	d0e3      	beq.n	479e <__aeabi_fadd+0x76>
    47d6:	2180      	movs	r1, #128	; 0x80
    47d8:	0038      	movs	r0, r7
    47da:	04c9      	lsls	r1, r1, #19
    47dc:	4308      	orrs	r0, r1
    47de:	4684      	mov	ip, r0
    47e0:	2a1b      	cmp	r2, #27
    47e2:	dd00      	ble.n	47e6 <__aeabi_fadd+0xbe>
    47e4:	e082      	b.n	48ec <__aeabi_fadd+0x1c4>
    47e6:	2020      	movs	r0, #32
    47e8:	4661      	mov	r1, ip
    47ea:	40d1      	lsrs	r1, r2
    47ec:	1a82      	subs	r2, r0, r2
    47ee:	4660      	mov	r0, ip
    47f0:	4090      	lsls	r0, r2
    47f2:	0002      	movs	r2, r0
    47f4:	1e50      	subs	r0, r2, #1
    47f6:	4182      	sbcs	r2, r0
    47f8:	430a      	orrs	r2, r1
    47fa:	1a9b      	subs	r3, r3, r2
    47fc:	015a      	lsls	r2, r3, #5
    47fe:	d4b8      	bmi.n	4772 <__aeabi_fadd+0x4a>
    4800:	075a      	lsls	r2, r3, #29
    4802:	d1ce      	bne.n	47a2 <__aeabi_fadd+0x7a>
    4804:	08de      	lsrs	r6, r3, #3
    4806:	002a      	movs	r2, r5
    4808:	2cff      	cmp	r4, #255	; 0xff
    480a:	d13a      	bne.n	4882 <__aeabi_fadd+0x15a>
    480c:	2e00      	cmp	r6, #0
    480e:	d100      	bne.n	4812 <__aeabi_fadd+0xea>
    4810:	e0ae      	b.n	4970 <__aeabi_fadd+0x248>
    4812:	2380      	movs	r3, #128	; 0x80
    4814:	03db      	lsls	r3, r3, #15
    4816:	4333      	orrs	r3, r6
    4818:	025b      	lsls	r3, r3, #9
    481a:	0a5b      	lsrs	r3, r3, #9
    481c:	24ff      	movs	r4, #255	; 0xff
    481e:	e7cf      	b.n	47c0 <__aeabi_fadd+0x98>
    4820:	1a21      	subs	r1, r4, r0
    4822:	2900      	cmp	r1, #0
    4824:	dd52      	ble.n	48cc <__aeabi_fadd+0x1a4>
    4826:	2800      	cmp	r0, #0
    4828:	d031      	beq.n	488e <__aeabi_fadd+0x166>
    482a:	2cff      	cmp	r4, #255	; 0xff
    482c:	d0b7      	beq.n	479e <__aeabi_fadd+0x76>
    482e:	2080      	movs	r0, #128	; 0x80
    4830:	003e      	movs	r6, r7
    4832:	04c0      	lsls	r0, r0, #19
    4834:	4306      	orrs	r6, r0
    4836:	46b4      	mov	ip, r6
    4838:	291b      	cmp	r1, #27
    483a:	dd00      	ble.n	483e <__aeabi_fadd+0x116>
    483c:	e0aa      	b.n	4994 <__aeabi_fadd+0x26c>
    483e:	2620      	movs	r6, #32
    4840:	4660      	mov	r0, ip
    4842:	40c8      	lsrs	r0, r1
    4844:	1a71      	subs	r1, r6, r1
    4846:	4666      	mov	r6, ip
    4848:	408e      	lsls	r6, r1
    484a:	0031      	movs	r1, r6
    484c:	1e4e      	subs	r6, r1, #1
    484e:	41b1      	sbcs	r1, r6
    4850:	4301      	orrs	r1, r0
    4852:	185b      	adds	r3, r3, r1
    4854:	0159      	lsls	r1, r3, #5
    4856:	d5d3      	bpl.n	4800 <__aeabi_fadd+0xd8>
    4858:	3401      	adds	r4, #1
    485a:	2cff      	cmp	r4, #255	; 0xff
    485c:	d100      	bne.n	4860 <__aeabi_fadd+0x138>
    485e:	e087      	b.n	4970 <__aeabi_fadd+0x248>
    4860:	2201      	movs	r2, #1
    4862:	4978      	ldr	r1, [pc, #480]	; (4a44 <__aeabi_fadd+0x31c>)
    4864:	401a      	ands	r2, r3
    4866:	085b      	lsrs	r3, r3, #1
    4868:	400b      	ands	r3, r1
    486a:	4313      	orrs	r3, r2
    486c:	e797      	b.n	479e <__aeabi_fadd+0x76>
    486e:	2c00      	cmp	r4, #0
    4870:	d000      	beq.n	4874 <__aeabi_fadd+0x14c>
    4872:	e0a7      	b.n	49c4 <__aeabi_fadd+0x29c>
    4874:	2b00      	cmp	r3, #0
    4876:	d000      	beq.n	487a <__aeabi_fadd+0x152>
    4878:	e0b6      	b.n	49e8 <__aeabi_fadd+0x2c0>
    487a:	1e3b      	subs	r3, r7, #0
    487c:	d162      	bne.n	4944 <__aeabi_fadd+0x21c>
    487e:	2600      	movs	r6, #0
    4880:	2200      	movs	r2, #0
    4882:	0273      	lsls	r3, r6, #9
    4884:	0a5b      	lsrs	r3, r3, #9
    4886:	b2e4      	uxtb	r4, r4
    4888:	e79a      	b.n	47c0 <__aeabi_fadd+0x98>
    488a:	0014      	movs	r4, r2
    488c:	e787      	b.n	479e <__aeabi_fadd+0x76>
    488e:	2f00      	cmp	r7, #0
    4890:	d04d      	beq.n	492e <__aeabi_fadd+0x206>
    4892:	1e48      	subs	r0, r1, #1
    4894:	2800      	cmp	r0, #0
    4896:	d157      	bne.n	4948 <__aeabi_fadd+0x220>
    4898:	4463      	add	r3, ip
    489a:	2401      	movs	r4, #1
    489c:	015a      	lsls	r2, r3, #5
    489e:	d5af      	bpl.n	4800 <__aeabi_fadd+0xd8>
    48a0:	2402      	movs	r4, #2
    48a2:	e7dd      	b.n	4860 <__aeabi_fadd+0x138>
    48a4:	2a00      	cmp	r2, #0
    48a6:	d124      	bne.n	48f2 <__aeabi_fadd+0x1ca>
    48a8:	1c62      	adds	r2, r4, #1
    48aa:	b2d2      	uxtb	r2, r2
    48ac:	2a01      	cmp	r2, #1
    48ae:	ddde      	ble.n	486e <__aeabi_fadd+0x146>
    48b0:	1bde      	subs	r6, r3, r7
    48b2:	0172      	lsls	r2, r6, #5
    48b4:	d535      	bpl.n	4922 <__aeabi_fadd+0x1fa>
    48b6:	1afe      	subs	r6, r7, r3
    48b8:	000d      	movs	r5, r1
    48ba:	e75c      	b.n	4776 <__aeabi_fadd+0x4e>
    48bc:	002a      	movs	r2, r5
    48be:	2300      	movs	r3, #0
    48c0:	e77e      	b.n	47c0 <__aeabi_fadd+0x98>
    48c2:	0033      	movs	r3, r6
    48c4:	4a60      	ldr	r2, [pc, #384]	; (4a48 <__aeabi_fadd+0x320>)
    48c6:	1a24      	subs	r4, r4, r0
    48c8:	4013      	ands	r3, r2
    48ca:	e768      	b.n	479e <__aeabi_fadd+0x76>
    48cc:	2900      	cmp	r1, #0
    48ce:	d163      	bne.n	4998 <__aeabi_fadd+0x270>
    48d0:	1c61      	adds	r1, r4, #1
    48d2:	b2c8      	uxtb	r0, r1
    48d4:	2801      	cmp	r0, #1
    48d6:	dd4e      	ble.n	4976 <__aeabi_fadd+0x24e>
    48d8:	29ff      	cmp	r1, #255	; 0xff
    48da:	d049      	beq.n	4970 <__aeabi_fadd+0x248>
    48dc:	4463      	add	r3, ip
    48de:	085b      	lsrs	r3, r3, #1
    48e0:	000c      	movs	r4, r1
    48e2:	e75c      	b.n	479e <__aeabi_fadd+0x76>
    48e4:	2aff      	cmp	r2, #255	; 0xff
    48e6:	d041      	beq.n	496c <__aeabi_fadd+0x244>
    48e8:	000a      	movs	r2, r1
    48ea:	e779      	b.n	47e0 <__aeabi_fadd+0xb8>
    48ec:	2201      	movs	r2, #1
    48ee:	1a9b      	subs	r3, r3, r2
    48f0:	e784      	b.n	47fc <__aeabi_fadd+0xd4>
    48f2:	2c00      	cmp	r4, #0
    48f4:	d01d      	beq.n	4932 <__aeabi_fadd+0x20a>
    48f6:	28ff      	cmp	r0, #255	; 0xff
    48f8:	d022      	beq.n	4940 <__aeabi_fadd+0x218>
    48fa:	2480      	movs	r4, #128	; 0x80
    48fc:	04e4      	lsls	r4, r4, #19
    48fe:	4252      	negs	r2, r2
    4900:	4323      	orrs	r3, r4
    4902:	2a1b      	cmp	r2, #27
    4904:	dd00      	ble.n	4908 <__aeabi_fadd+0x1e0>
    4906:	e08a      	b.n	4a1e <__aeabi_fadd+0x2f6>
    4908:	001c      	movs	r4, r3
    490a:	2520      	movs	r5, #32
    490c:	40d4      	lsrs	r4, r2
    490e:	1aaa      	subs	r2, r5, r2
    4910:	4093      	lsls	r3, r2
    4912:	1e5a      	subs	r2, r3, #1
    4914:	4193      	sbcs	r3, r2
    4916:	4323      	orrs	r3, r4
    4918:	4662      	mov	r2, ip
    491a:	0004      	movs	r4, r0
    491c:	1ad3      	subs	r3, r2, r3
    491e:	000d      	movs	r5, r1
    4920:	e725      	b.n	476e <__aeabi_fadd+0x46>
    4922:	2e00      	cmp	r6, #0
    4924:	d000      	beq.n	4928 <__aeabi_fadd+0x200>
    4926:	e726      	b.n	4776 <__aeabi_fadd+0x4e>
    4928:	2200      	movs	r2, #0
    492a:	2400      	movs	r4, #0
    492c:	e7a9      	b.n	4882 <__aeabi_fadd+0x15a>
    492e:	000c      	movs	r4, r1
    4930:	e735      	b.n	479e <__aeabi_fadd+0x76>
    4932:	2b00      	cmp	r3, #0
    4934:	d04d      	beq.n	49d2 <__aeabi_fadd+0x2aa>
    4936:	43d2      	mvns	r2, r2
    4938:	2a00      	cmp	r2, #0
    493a:	d0ed      	beq.n	4918 <__aeabi_fadd+0x1f0>
    493c:	28ff      	cmp	r0, #255	; 0xff
    493e:	d1e0      	bne.n	4902 <__aeabi_fadd+0x1da>
    4940:	4663      	mov	r3, ip
    4942:	24ff      	movs	r4, #255	; 0xff
    4944:	000d      	movs	r5, r1
    4946:	e72a      	b.n	479e <__aeabi_fadd+0x76>
    4948:	29ff      	cmp	r1, #255	; 0xff
    494a:	d00f      	beq.n	496c <__aeabi_fadd+0x244>
    494c:	0001      	movs	r1, r0
    494e:	e773      	b.n	4838 <__aeabi_fadd+0x110>
    4950:	2b00      	cmp	r3, #0
    4952:	d061      	beq.n	4a18 <__aeabi_fadd+0x2f0>
    4954:	24ff      	movs	r4, #255	; 0xff
    4956:	2f00      	cmp	r7, #0
    4958:	d100      	bne.n	495c <__aeabi_fadd+0x234>
    495a:	e720      	b.n	479e <__aeabi_fadd+0x76>
    495c:	2280      	movs	r2, #128	; 0x80
    495e:	4641      	mov	r1, r8
    4960:	03d2      	lsls	r2, r2, #15
    4962:	4211      	tst	r1, r2
    4964:	d002      	beq.n	496c <__aeabi_fadd+0x244>
    4966:	4216      	tst	r6, r2
    4968:	d100      	bne.n	496c <__aeabi_fadd+0x244>
    496a:	003b      	movs	r3, r7
    496c:	24ff      	movs	r4, #255	; 0xff
    496e:	e716      	b.n	479e <__aeabi_fadd+0x76>
    4970:	24ff      	movs	r4, #255	; 0xff
    4972:	2300      	movs	r3, #0
    4974:	e724      	b.n	47c0 <__aeabi_fadd+0x98>
    4976:	2c00      	cmp	r4, #0
    4978:	d1ea      	bne.n	4950 <__aeabi_fadd+0x228>
    497a:	2b00      	cmp	r3, #0
    497c:	d058      	beq.n	4a30 <__aeabi_fadd+0x308>
    497e:	2f00      	cmp	r7, #0
    4980:	d100      	bne.n	4984 <__aeabi_fadd+0x25c>
    4982:	e70c      	b.n	479e <__aeabi_fadd+0x76>
    4984:	4463      	add	r3, ip
    4986:	015a      	lsls	r2, r3, #5
    4988:	d400      	bmi.n	498c <__aeabi_fadd+0x264>
    498a:	e739      	b.n	4800 <__aeabi_fadd+0xd8>
    498c:	4a2e      	ldr	r2, [pc, #184]	; (4a48 <__aeabi_fadd+0x320>)
    498e:	000c      	movs	r4, r1
    4990:	4013      	ands	r3, r2
    4992:	e704      	b.n	479e <__aeabi_fadd+0x76>
    4994:	2101      	movs	r1, #1
    4996:	e75c      	b.n	4852 <__aeabi_fadd+0x12a>
    4998:	2c00      	cmp	r4, #0
    499a:	d11e      	bne.n	49da <__aeabi_fadd+0x2b2>
    499c:	2b00      	cmp	r3, #0
    499e:	d040      	beq.n	4a22 <__aeabi_fadd+0x2fa>
    49a0:	43c9      	mvns	r1, r1
    49a2:	2900      	cmp	r1, #0
    49a4:	d00b      	beq.n	49be <__aeabi_fadd+0x296>
    49a6:	28ff      	cmp	r0, #255	; 0xff
    49a8:	d036      	beq.n	4a18 <__aeabi_fadd+0x2f0>
    49aa:	291b      	cmp	r1, #27
    49ac:	dc47      	bgt.n	4a3e <__aeabi_fadd+0x316>
    49ae:	001c      	movs	r4, r3
    49b0:	2620      	movs	r6, #32
    49b2:	40cc      	lsrs	r4, r1
    49b4:	1a71      	subs	r1, r6, r1
    49b6:	408b      	lsls	r3, r1
    49b8:	1e59      	subs	r1, r3, #1
    49ba:	418b      	sbcs	r3, r1
    49bc:	4323      	orrs	r3, r4
    49be:	4463      	add	r3, ip
    49c0:	0004      	movs	r4, r0
    49c2:	e747      	b.n	4854 <__aeabi_fadd+0x12c>
    49c4:	2b00      	cmp	r3, #0
    49c6:	d118      	bne.n	49fa <__aeabi_fadd+0x2d2>
    49c8:	1e3b      	subs	r3, r7, #0
    49ca:	d02d      	beq.n	4a28 <__aeabi_fadd+0x300>
    49cc:	000d      	movs	r5, r1
    49ce:	24ff      	movs	r4, #255	; 0xff
    49d0:	e6e5      	b.n	479e <__aeabi_fadd+0x76>
    49d2:	003b      	movs	r3, r7
    49d4:	0004      	movs	r4, r0
    49d6:	000d      	movs	r5, r1
    49d8:	e6e1      	b.n	479e <__aeabi_fadd+0x76>
    49da:	28ff      	cmp	r0, #255	; 0xff
    49dc:	d01c      	beq.n	4a18 <__aeabi_fadd+0x2f0>
    49de:	2480      	movs	r4, #128	; 0x80
    49e0:	04e4      	lsls	r4, r4, #19
    49e2:	4249      	negs	r1, r1
    49e4:	4323      	orrs	r3, r4
    49e6:	e7e0      	b.n	49aa <__aeabi_fadd+0x282>
    49e8:	2f00      	cmp	r7, #0
    49ea:	d100      	bne.n	49ee <__aeabi_fadd+0x2c6>
    49ec:	e6d7      	b.n	479e <__aeabi_fadd+0x76>
    49ee:	1bde      	subs	r6, r3, r7
    49f0:	0172      	lsls	r2, r6, #5
    49f2:	d51f      	bpl.n	4a34 <__aeabi_fadd+0x30c>
    49f4:	1afb      	subs	r3, r7, r3
    49f6:	000d      	movs	r5, r1
    49f8:	e6d1      	b.n	479e <__aeabi_fadd+0x76>
    49fa:	24ff      	movs	r4, #255	; 0xff
    49fc:	2f00      	cmp	r7, #0
    49fe:	d100      	bne.n	4a02 <__aeabi_fadd+0x2da>
    4a00:	e6cd      	b.n	479e <__aeabi_fadd+0x76>
    4a02:	2280      	movs	r2, #128	; 0x80
    4a04:	4640      	mov	r0, r8
    4a06:	03d2      	lsls	r2, r2, #15
    4a08:	4210      	tst	r0, r2
    4a0a:	d0af      	beq.n	496c <__aeabi_fadd+0x244>
    4a0c:	4216      	tst	r6, r2
    4a0e:	d1ad      	bne.n	496c <__aeabi_fadd+0x244>
    4a10:	003b      	movs	r3, r7
    4a12:	000d      	movs	r5, r1
    4a14:	24ff      	movs	r4, #255	; 0xff
    4a16:	e6c2      	b.n	479e <__aeabi_fadd+0x76>
    4a18:	4663      	mov	r3, ip
    4a1a:	24ff      	movs	r4, #255	; 0xff
    4a1c:	e6bf      	b.n	479e <__aeabi_fadd+0x76>
    4a1e:	2301      	movs	r3, #1
    4a20:	e77a      	b.n	4918 <__aeabi_fadd+0x1f0>
    4a22:	003b      	movs	r3, r7
    4a24:	0004      	movs	r4, r0
    4a26:	e6ba      	b.n	479e <__aeabi_fadd+0x76>
    4a28:	2680      	movs	r6, #128	; 0x80
    4a2a:	2200      	movs	r2, #0
    4a2c:	03f6      	lsls	r6, r6, #15
    4a2e:	e6f0      	b.n	4812 <__aeabi_fadd+0xea>
    4a30:	003b      	movs	r3, r7
    4a32:	e6b4      	b.n	479e <__aeabi_fadd+0x76>
    4a34:	1e33      	subs	r3, r6, #0
    4a36:	d000      	beq.n	4a3a <__aeabi_fadd+0x312>
    4a38:	e6e2      	b.n	4800 <__aeabi_fadd+0xd8>
    4a3a:	2200      	movs	r2, #0
    4a3c:	e721      	b.n	4882 <__aeabi_fadd+0x15a>
    4a3e:	2301      	movs	r3, #1
    4a40:	e7bd      	b.n	49be <__aeabi_fadd+0x296>
    4a42:	46c0      	nop			; (mov r8, r8)
    4a44:	7dffffff 	.word	0x7dffffff
    4a48:	fbffffff 	.word	0xfbffffff

00004a4c <__aeabi_fdiv>:
    4a4c:	b5f0      	push	{r4, r5, r6, r7, lr}
    4a4e:	4657      	mov	r7, sl
    4a50:	464e      	mov	r6, r9
    4a52:	46de      	mov	lr, fp
    4a54:	4645      	mov	r5, r8
    4a56:	b5e0      	push	{r5, r6, r7, lr}
    4a58:	0244      	lsls	r4, r0, #9
    4a5a:	0043      	lsls	r3, r0, #1
    4a5c:	0fc6      	lsrs	r6, r0, #31
    4a5e:	b083      	sub	sp, #12
    4a60:	1c0f      	adds	r7, r1, #0
    4a62:	0a64      	lsrs	r4, r4, #9
    4a64:	0e1b      	lsrs	r3, r3, #24
    4a66:	46b2      	mov	sl, r6
    4a68:	d053      	beq.n	4b12 <__aeabi_fdiv+0xc6>
    4a6a:	2bff      	cmp	r3, #255	; 0xff
    4a6c:	d027      	beq.n	4abe <__aeabi_fdiv+0x72>
    4a6e:	2280      	movs	r2, #128	; 0x80
    4a70:	00e4      	lsls	r4, r4, #3
    4a72:	04d2      	lsls	r2, r2, #19
    4a74:	4314      	orrs	r4, r2
    4a76:	227f      	movs	r2, #127	; 0x7f
    4a78:	4252      	negs	r2, r2
    4a7a:	4690      	mov	r8, r2
    4a7c:	4498      	add	r8, r3
    4a7e:	2300      	movs	r3, #0
    4a80:	4699      	mov	r9, r3
    4a82:	469b      	mov	fp, r3
    4a84:	027d      	lsls	r5, r7, #9
    4a86:	0078      	lsls	r0, r7, #1
    4a88:	0ffb      	lsrs	r3, r7, #31
    4a8a:	0a6d      	lsrs	r5, r5, #9
    4a8c:	0e00      	lsrs	r0, r0, #24
    4a8e:	9300      	str	r3, [sp, #0]
    4a90:	d024      	beq.n	4adc <__aeabi_fdiv+0x90>
    4a92:	28ff      	cmp	r0, #255	; 0xff
    4a94:	d046      	beq.n	4b24 <__aeabi_fdiv+0xd8>
    4a96:	2380      	movs	r3, #128	; 0x80
    4a98:	2100      	movs	r1, #0
    4a9a:	00ed      	lsls	r5, r5, #3
    4a9c:	04db      	lsls	r3, r3, #19
    4a9e:	431d      	orrs	r5, r3
    4aa0:	387f      	subs	r0, #127	; 0x7f
    4aa2:	4647      	mov	r7, r8
    4aa4:	1a38      	subs	r0, r7, r0
    4aa6:	464f      	mov	r7, r9
    4aa8:	430f      	orrs	r7, r1
    4aaa:	00bf      	lsls	r7, r7, #2
    4aac:	46b9      	mov	r9, r7
    4aae:	0033      	movs	r3, r6
    4ab0:	9a00      	ldr	r2, [sp, #0]
    4ab2:	4f87      	ldr	r7, [pc, #540]	; (4cd0 <__aeabi_fdiv+0x284>)
    4ab4:	4053      	eors	r3, r2
    4ab6:	464a      	mov	r2, r9
    4ab8:	58ba      	ldr	r2, [r7, r2]
    4aba:	9301      	str	r3, [sp, #4]
    4abc:	4697      	mov	pc, r2
    4abe:	2c00      	cmp	r4, #0
    4ac0:	d14e      	bne.n	4b60 <__aeabi_fdiv+0x114>
    4ac2:	2308      	movs	r3, #8
    4ac4:	4699      	mov	r9, r3
    4ac6:	33f7      	adds	r3, #247	; 0xf7
    4ac8:	4698      	mov	r8, r3
    4aca:	3bfd      	subs	r3, #253	; 0xfd
    4acc:	469b      	mov	fp, r3
    4ace:	027d      	lsls	r5, r7, #9
    4ad0:	0078      	lsls	r0, r7, #1
    4ad2:	0ffb      	lsrs	r3, r7, #31
    4ad4:	0a6d      	lsrs	r5, r5, #9
    4ad6:	0e00      	lsrs	r0, r0, #24
    4ad8:	9300      	str	r3, [sp, #0]
    4ada:	d1da      	bne.n	4a92 <__aeabi_fdiv+0x46>
    4adc:	2d00      	cmp	r5, #0
    4ade:	d126      	bne.n	4b2e <__aeabi_fdiv+0xe2>
    4ae0:	2000      	movs	r0, #0
    4ae2:	2101      	movs	r1, #1
    4ae4:	0033      	movs	r3, r6
    4ae6:	9a00      	ldr	r2, [sp, #0]
    4ae8:	4f7a      	ldr	r7, [pc, #488]	; (4cd4 <__aeabi_fdiv+0x288>)
    4aea:	4053      	eors	r3, r2
    4aec:	4642      	mov	r2, r8
    4aee:	1a10      	subs	r0, r2, r0
    4af0:	464a      	mov	r2, r9
    4af2:	430a      	orrs	r2, r1
    4af4:	0092      	lsls	r2, r2, #2
    4af6:	58ba      	ldr	r2, [r7, r2]
    4af8:	001d      	movs	r5, r3
    4afa:	4697      	mov	pc, r2
    4afc:	9b00      	ldr	r3, [sp, #0]
    4afe:	002c      	movs	r4, r5
    4b00:	469a      	mov	sl, r3
    4b02:	468b      	mov	fp, r1
    4b04:	465b      	mov	r3, fp
    4b06:	2b02      	cmp	r3, #2
    4b08:	d131      	bne.n	4b6e <__aeabi_fdiv+0x122>
    4b0a:	4653      	mov	r3, sl
    4b0c:	21ff      	movs	r1, #255	; 0xff
    4b0e:	2400      	movs	r4, #0
    4b10:	e038      	b.n	4b84 <__aeabi_fdiv+0x138>
    4b12:	2c00      	cmp	r4, #0
    4b14:	d117      	bne.n	4b46 <__aeabi_fdiv+0xfa>
    4b16:	2304      	movs	r3, #4
    4b18:	4699      	mov	r9, r3
    4b1a:	2300      	movs	r3, #0
    4b1c:	4698      	mov	r8, r3
    4b1e:	3301      	adds	r3, #1
    4b20:	469b      	mov	fp, r3
    4b22:	e7af      	b.n	4a84 <__aeabi_fdiv+0x38>
    4b24:	20ff      	movs	r0, #255	; 0xff
    4b26:	2d00      	cmp	r5, #0
    4b28:	d10b      	bne.n	4b42 <__aeabi_fdiv+0xf6>
    4b2a:	2102      	movs	r1, #2
    4b2c:	e7da      	b.n	4ae4 <__aeabi_fdiv+0x98>
    4b2e:	0028      	movs	r0, r5
    4b30:	f001 fc0e 	bl	6350 <__clzsi2>
    4b34:	1f43      	subs	r3, r0, #5
    4b36:	409d      	lsls	r5, r3
    4b38:	2376      	movs	r3, #118	; 0x76
    4b3a:	425b      	negs	r3, r3
    4b3c:	1a18      	subs	r0, r3, r0
    4b3e:	2100      	movs	r1, #0
    4b40:	e7af      	b.n	4aa2 <__aeabi_fdiv+0x56>
    4b42:	2103      	movs	r1, #3
    4b44:	e7ad      	b.n	4aa2 <__aeabi_fdiv+0x56>
    4b46:	0020      	movs	r0, r4
    4b48:	f001 fc02 	bl	6350 <__clzsi2>
    4b4c:	1f43      	subs	r3, r0, #5
    4b4e:	409c      	lsls	r4, r3
    4b50:	2376      	movs	r3, #118	; 0x76
    4b52:	425b      	negs	r3, r3
    4b54:	1a1b      	subs	r3, r3, r0
    4b56:	4698      	mov	r8, r3
    4b58:	2300      	movs	r3, #0
    4b5a:	4699      	mov	r9, r3
    4b5c:	469b      	mov	fp, r3
    4b5e:	e791      	b.n	4a84 <__aeabi_fdiv+0x38>
    4b60:	230c      	movs	r3, #12
    4b62:	4699      	mov	r9, r3
    4b64:	33f3      	adds	r3, #243	; 0xf3
    4b66:	4698      	mov	r8, r3
    4b68:	3bfc      	subs	r3, #252	; 0xfc
    4b6a:	469b      	mov	fp, r3
    4b6c:	e78a      	b.n	4a84 <__aeabi_fdiv+0x38>
    4b6e:	2b03      	cmp	r3, #3
    4b70:	d100      	bne.n	4b74 <__aeabi_fdiv+0x128>
    4b72:	e0a5      	b.n	4cc0 <__aeabi_fdiv+0x274>
    4b74:	4655      	mov	r5, sl
    4b76:	2b01      	cmp	r3, #1
    4b78:	d000      	beq.n	4b7c <__aeabi_fdiv+0x130>
    4b7a:	e081      	b.n	4c80 <__aeabi_fdiv+0x234>
    4b7c:	2301      	movs	r3, #1
    4b7e:	2100      	movs	r1, #0
    4b80:	2400      	movs	r4, #0
    4b82:	402b      	ands	r3, r5
    4b84:	0264      	lsls	r4, r4, #9
    4b86:	05c9      	lsls	r1, r1, #23
    4b88:	0a60      	lsrs	r0, r4, #9
    4b8a:	07db      	lsls	r3, r3, #31
    4b8c:	4308      	orrs	r0, r1
    4b8e:	4318      	orrs	r0, r3
    4b90:	b003      	add	sp, #12
    4b92:	bc3c      	pop	{r2, r3, r4, r5}
    4b94:	4690      	mov	r8, r2
    4b96:	4699      	mov	r9, r3
    4b98:	46a2      	mov	sl, r4
    4b9a:	46ab      	mov	fp, r5
    4b9c:	bdf0      	pop	{r4, r5, r6, r7, pc}
    4b9e:	2480      	movs	r4, #128	; 0x80
    4ba0:	2300      	movs	r3, #0
    4ba2:	03e4      	lsls	r4, r4, #15
    4ba4:	21ff      	movs	r1, #255	; 0xff
    4ba6:	e7ed      	b.n	4b84 <__aeabi_fdiv+0x138>
    4ba8:	21ff      	movs	r1, #255	; 0xff
    4baa:	2400      	movs	r4, #0
    4bac:	e7ea      	b.n	4b84 <__aeabi_fdiv+0x138>
    4bae:	2301      	movs	r3, #1
    4bb0:	1a59      	subs	r1, r3, r1
    4bb2:	291b      	cmp	r1, #27
    4bb4:	dd66      	ble.n	4c84 <__aeabi_fdiv+0x238>
    4bb6:	9a01      	ldr	r2, [sp, #4]
    4bb8:	4013      	ands	r3, r2
    4bba:	2100      	movs	r1, #0
    4bbc:	2400      	movs	r4, #0
    4bbe:	e7e1      	b.n	4b84 <__aeabi_fdiv+0x138>
    4bc0:	2380      	movs	r3, #128	; 0x80
    4bc2:	03db      	lsls	r3, r3, #15
    4bc4:	421c      	tst	r4, r3
    4bc6:	d038      	beq.n	4c3a <__aeabi_fdiv+0x1ee>
    4bc8:	421d      	tst	r5, r3
    4bca:	d051      	beq.n	4c70 <__aeabi_fdiv+0x224>
    4bcc:	431c      	orrs	r4, r3
    4bce:	0264      	lsls	r4, r4, #9
    4bd0:	0a64      	lsrs	r4, r4, #9
    4bd2:	0033      	movs	r3, r6
    4bd4:	21ff      	movs	r1, #255	; 0xff
    4bd6:	e7d5      	b.n	4b84 <__aeabi_fdiv+0x138>
    4bd8:	0163      	lsls	r3, r4, #5
    4bda:	016c      	lsls	r4, r5, #5
    4bdc:	42a3      	cmp	r3, r4
    4bde:	d23b      	bcs.n	4c58 <__aeabi_fdiv+0x20c>
    4be0:	261b      	movs	r6, #27
    4be2:	2100      	movs	r1, #0
    4be4:	3801      	subs	r0, #1
    4be6:	2501      	movs	r5, #1
    4be8:	001f      	movs	r7, r3
    4bea:	0049      	lsls	r1, r1, #1
    4bec:	005b      	lsls	r3, r3, #1
    4bee:	2f00      	cmp	r7, #0
    4bf0:	db01      	blt.n	4bf6 <__aeabi_fdiv+0x1aa>
    4bf2:	429c      	cmp	r4, r3
    4bf4:	d801      	bhi.n	4bfa <__aeabi_fdiv+0x1ae>
    4bf6:	1b1b      	subs	r3, r3, r4
    4bf8:	4329      	orrs	r1, r5
    4bfa:	3e01      	subs	r6, #1
    4bfc:	2e00      	cmp	r6, #0
    4bfe:	d1f3      	bne.n	4be8 <__aeabi_fdiv+0x19c>
    4c00:	001c      	movs	r4, r3
    4c02:	1e63      	subs	r3, r4, #1
    4c04:	419c      	sbcs	r4, r3
    4c06:	430c      	orrs	r4, r1
    4c08:	0001      	movs	r1, r0
    4c0a:	317f      	adds	r1, #127	; 0x7f
    4c0c:	2900      	cmp	r1, #0
    4c0e:	ddce      	ble.n	4bae <__aeabi_fdiv+0x162>
    4c10:	0763      	lsls	r3, r4, #29
    4c12:	d004      	beq.n	4c1e <__aeabi_fdiv+0x1d2>
    4c14:	230f      	movs	r3, #15
    4c16:	4023      	ands	r3, r4
    4c18:	2b04      	cmp	r3, #4
    4c1a:	d000      	beq.n	4c1e <__aeabi_fdiv+0x1d2>
    4c1c:	3404      	adds	r4, #4
    4c1e:	0123      	lsls	r3, r4, #4
    4c20:	d503      	bpl.n	4c2a <__aeabi_fdiv+0x1de>
    4c22:	0001      	movs	r1, r0
    4c24:	4b2c      	ldr	r3, [pc, #176]	; (4cd8 <__aeabi_fdiv+0x28c>)
    4c26:	3180      	adds	r1, #128	; 0x80
    4c28:	401c      	ands	r4, r3
    4c2a:	29fe      	cmp	r1, #254	; 0xfe
    4c2c:	dd0d      	ble.n	4c4a <__aeabi_fdiv+0x1fe>
    4c2e:	2301      	movs	r3, #1
    4c30:	9a01      	ldr	r2, [sp, #4]
    4c32:	21ff      	movs	r1, #255	; 0xff
    4c34:	4013      	ands	r3, r2
    4c36:	2400      	movs	r4, #0
    4c38:	e7a4      	b.n	4b84 <__aeabi_fdiv+0x138>
    4c3a:	2380      	movs	r3, #128	; 0x80
    4c3c:	03db      	lsls	r3, r3, #15
    4c3e:	431c      	orrs	r4, r3
    4c40:	0264      	lsls	r4, r4, #9
    4c42:	0a64      	lsrs	r4, r4, #9
    4c44:	0033      	movs	r3, r6
    4c46:	21ff      	movs	r1, #255	; 0xff
    4c48:	e79c      	b.n	4b84 <__aeabi_fdiv+0x138>
    4c4a:	2301      	movs	r3, #1
    4c4c:	9a01      	ldr	r2, [sp, #4]
    4c4e:	01a4      	lsls	r4, r4, #6
    4c50:	0a64      	lsrs	r4, r4, #9
    4c52:	b2c9      	uxtb	r1, r1
    4c54:	4013      	ands	r3, r2
    4c56:	e795      	b.n	4b84 <__aeabi_fdiv+0x138>
    4c58:	1b1b      	subs	r3, r3, r4
    4c5a:	261a      	movs	r6, #26
    4c5c:	2101      	movs	r1, #1
    4c5e:	e7c2      	b.n	4be6 <__aeabi_fdiv+0x19a>
    4c60:	9b00      	ldr	r3, [sp, #0]
    4c62:	468b      	mov	fp, r1
    4c64:	469a      	mov	sl, r3
    4c66:	2400      	movs	r4, #0
    4c68:	e74c      	b.n	4b04 <__aeabi_fdiv+0xb8>
    4c6a:	0263      	lsls	r3, r4, #9
    4c6c:	d5e5      	bpl.n	4c3a <__aeabi_fdiv+0x1ee>
    4c6e:	2500      	movs	r5, #0
    4c70:	2480      	movs	r4, #128	; 0x80
    4c72:	03e4      	lsls	r4, r4, #15
    4c74:	432c      	orrs	r4, r5
    4c76:	0264      	lsls	r4, r4, #9
    4c78:	0a64      	lsrs	r4, r4, #9
    4c7a:	9b00      	ldr	r3, [sp, #0]
    4c7c:	21ff      	movs	r1, #255	; 0xff
    4c7e:	e781      	b.n	4b84 <__aeabi_fdiv+0x138>
    4c80:	9501      	str	r5, [sp, #4]
    4c82:	e7c1      	b.n	4c08 <__aeabi_fdiv+0x1bc>
    4c84:	0023      	movs	r3, r4
    4c86:	2020      	movs	r0, #32
    4c88:	40cb      	lsrs	r3, r1
    4c8a:	1a41      	subs	r1, r0, r1
    4c8c:	408c      	lsls	r4, r1
    4c8e:	1e61      	subs	r1, r4, #1
    4c90:	418c      	sbcs	r4, r1
    4c92:	431c      	orrs	r4, r3
    4c94:	0763      	lsls	r3, r4, #29
    4c96:	d004      	beq.n	4ca2 <__aeabi_fdiv+0x256>
    4c98:	230f      	movs	r3, #15
    4c9a:	4023      	ands	r3, r4
    4c9c:	2b04      	cmp	r3, #4
    4c9e:	d000      	beq.n	4ca2 <__aeabi_fdiv+0x256>
    4ca0:	3404      	adds	r4, #4
    4ca2:	0163      	lsls	r3, r4, #5
    4ca4:	d505      	bpl.n	4cb2 <__aeabi_fdiv+0x266>
    4ca6:	2301      	movs	r3, #1
    4ca8:	9a01      	ldr	r2, [sp, #4]
    4caa:	2101      	movs	r1, #1
    4cac:	4013      	ands	r3, r2
    4cae:	2400      	movs	r4, #0
    4cb0:	e768      	b.n	4b84 <__aeabi_fdiv+0x138>
    4cb2:	2301      	movs	r3, #1
    4cb4:	9a01      	ldr	r2, [sp, #4]
    4cb6:	01a4      	lsls	r4, r4, #6
    4cb8:	0a64      	lsrs	r4, r4, #9
    4cba:	4013      	ands	r3, r2
    4cbc:	2100      	movs	r1, #0
    4cbe:	e761      	b.n	4b84 <__aeabi_fdiv+0x138>
    4cc0:	2380      	movs	r3, #128	; 0x80
    4cc2:	03db      	lsls	r3, r3, #15
    4cc4:	431c      	orrs	r4, r3
    4cc6:	0264      	lsls	r4, r4, #9
    4cc8:	0a64      	lsrs	r4, r4, #9
    4cca:	4653      	mov	r3, sl
    4ccc:	21ff      	movs	r1, #255	; 0xff
    4cce:	e759      	b.n	4b84 <__aeabi_fdiv+0x138>
    4cd0:	0000cf14 	.word	0x0000cf14
    4cd4:	0000cf54 	.word	0x0000cf54
    4cd8:	f7ffffff 	.word	0xf7ffffff

00004cdc <__eqsf2>:
    4cdc:	b570      	push	{r4, r5, r6, lr}
    4cde:	0042      	lsls	r2, r0, #1
    4ce0:	0245      	lsls	r5, r0, #9
    4ce2:	024e      	lsls	r6, r1, #9
    4ce4:	004c      	lsls	r4, r1, #1
    4ce6:	0fc3      	lsrs	r3, r0, #31
    4ce8:	0a6d      	lsrs	r5, r5, #9
    4cea:	0e12      	lsrs	r2, r2, #24
    4cec:	0a76      	lsrs	r6, r6, #9
    4cee:	0e24      	lsrs	r4, r4, #24
    4cf0:	0fc9      	lsrs	r1, r1, #31
    4cf2:	2001      	movs	r0, #1
    4cf4:	2aff      	cmp	r2, #255	; 0xff
    4cf6:	d006      	beq.n	4d06 <__eqsf2+0x2a>
    4cf8:	2cff      	cmp	r4, #255	; 0xff
    4cfa:	d003      	beq.n	4d04 <__eqsf2+0x28>
    4cfc:	42a2      	cmp	r2, r4
    4cfe:	d101      	bne.n	4d04 <__eqsf2+0x28>
    4d00:	42b5      	cmp	r5, r6
    4d02:	d006      	beq.n	4d12 <__eqsf2+0x36>
    4d04:	bd70      	pop	{r4, r5, r6, pc}
    4d06:	2d00      	cmp	r5, #0
    4d08:	d1fc      	bne.n	4d04 <__eqsf2+0x28>
    4d0a:	2cff      	cmp	r4, #255	; 0xff
    4d0c:	d1fa      	bne.n	4d04 <__eqsf2+0x28>
    4d0e:	2e00      	cmp	r6, #0
    4d10:	d1f8      	bne.n	4d04 <__eqsf2+0x28>
    4d12:	428b      	cmp	r3, r1
    4d14:	d006      	beq.n	4d24 <__eqsf2+0x48>
    4d16:	2001      	movs	r0, #1
    4d18:	2a00      	cmp	r2, #0
    4d1a:	d1f3      	bne.n	4d04 <__eqsf2+0x28>
    4d1c:	0028      	movs	r0, r5
    4d1e:	1e45      	subs	r5, r0, #1
    4d20:	41a8      	sbcs	r0, r5
    4d22:	e7ef      	b.n	4d04 <__eqsf2+0x28>
    4d24:	2000      	movs	r0, #0
    4d26:	e7ed      	b.n	4d04 <__eqsf2+0x28>

00004d28 <__gesf2>:
    4d28:	b5f0      	push	{r4, r5, r6, r7, lr}
    4d2a:	0042      	lsls	r2, r0, #1
    4d2c:	0245      	lsls	r5, r0, #9
    4d2e:	024c      	lsls	r4, r1, #9
    4d30:	0fc3      	lsrs	r3, r0, #31
    4d32:	0048      	lsls	r0, r1, #1
    4d34:	0a6d      	lsrs	r5, r5, #9
    4d36:	0e12      	lsrs	r2, r2, #24
    4d38:	0a64      	lsrs	r4, r4, #9
    4d3a:	0e00      	lsrs	r0, r0, #24
    4d3c:	0fc9      	lsrs	r1, r1, #31
    4d3e:	2aff      	cmp	r2, #255	; 0xff
    4d40:	d01e      	beq.n	4d80 <__gesf2+0x58>
    4d42:	28ff      	cmp	r0, #255	; 0xff
    4d44:	d021      	beq.n	4d8a <__gesf2+0x62>
    4d46:	2a00      	cmp	r2, #0
    4d48:	d10a      	bne.n	4d60 <__gesf2+0x38>
    4d4a:	426e      	negs	r6, r5
    4d4c:	416e      	adcs	r6, r5
    4d4e:	b2f6      	uxtb	r6, r6
    4d50:	2800      	cmp	r0, #0
    4d52:	d10f      	bne.n	4d74 <__gesf2+0x4c>
    4d54:	2c00      	cmp	r4, #0
    4d56:	d10d      	bne.n	4d74 <__gesf2+0x4c>
    4d58:	2000      	movs	r0, #0
    4d5a:	2d00      	cmp	r5, #0
    4d5c:	d009      	beq.n	4d72 <__gesf2+0x4a>
    4d5e:	e005      	b.n	4d6c <__gesf2+0x44>
    4d60:	2800      	cmp	r0, #0
    4d62:	d101      	bne.n	4d68 <__gesf2+0x40>
    4d64:	2c00      	cmp	r4, #0
    4d66:	d001      	beq.n	4d6c <__gesf2+0x44>
    4d68:	428b      	cmp	r3, r1
    4d6a:	d011      	beq.n	4d90 <__gesf2+0x68>
    4d6c:	2101      	movs	r1, #1
    4d6e:	4258      	negs	r0, r3
    4d70:	4308      	orrs	r0, r1
    4d72:	bdf0      	pop	{r4, r5, r6, r7, pc}
    4d74:	2e00      	cmp	r6, #0
    4d76:	d0f7      	beq.n	4d68 <__gesf2+0x40>
    4d78:	2001      	movs	r0, #1
    4d7a:	3901      	subs	r1, #1
    4d7c:	4308      	orrs	r0, r1
    4d7e:	e7f8      	b.n	4d72 <__gesf2+0x4a>
    4d80:	2d00      	cmp	r5, #0
    4d82:	d0de      	beq.n	4d42 <__gesf2+0x1a>
    4d84:	2002      	movs	r0, #2
    4d86:	4240      	negs	r0, r0
    4d88:	e7f3      	b.n	4d72 <__gesf2+0x4a>
    4d8a:	2c00      	cmp	r4, #0
    4d8c:	d0db      	beq.n	4d46 <__gesf2+0x1e>
    4d8e:	e7f9      	b.n	4d84 <__gesf2+0x5c>
    4d90:	4282      	cmp	r2, r0
    4d92:	dceb      	bgt.n	4d6c <__gesf2+0x44>
    4d94:	db04      	blt.n	4da0 <__gesf2+0x78>
    4d96:	42a5      	cmp	r5, r4
    4d98:	d8e8      	bhi.n	4d6c <__gesf2+0x44>
    4d9a:	2000      	movs	r0, #0
    4d9c:	42a5      	cmp	r5, r4
    4d9e:	d2e8      	bcs.n	4d72 <__gesf2+0x4a>
    4da0:	2101      	movs	r1, #1
    4da2:	1e58      	subs	r0, r3, #1
    4da4:	4308      	orrs	r0, r1
    4da6:	e7e4      	b.n	4d72 <__gesf2+0x4a>

00004da8 <__lesf2>:
    4da8:	b5f0      	push	{r4, r5, r6, r7, lr}
    4daa:	0042      	lsls	r2, r0, #1
    4dac:	024d      	lsls	r5, r1, #9
    4dae:	004c      	lsls	r4, r1, #1
    4db0:	0246      	lsls	r6, r0, #9
    4db2:	0a76      	lsrs	r6, r6, #9
    4db4:	0e12      	lsrs	r2, r2, #24
    4db6:	0fc3      	lsrs	r3, r0, #31
    4db8:	0a6d      	lsrs	r5, r5, #9
    4dba:	0e24      	lsrs	r4, r4, #24
    4dbc:	0fc9      	lsrs	r1, r1, #31
    4dbe:	2aff      	cmp	r2, #255	; 0xff
    4dc0:	d016      	beq.n	4df0 <__lesf2+0x48>
    4dc2:	2cff      	cmp	r4, #255	; 0xff
    4dc4:	d018      	beq.n	4df8 <__lesf2+0x50>
    4dc6:	2a00      	cmp	r2, #0
    4dc8:	d10a      	bne.n	4de0 <__lesf2+0x38>
    4dca:	4270      	negs	r0, r6
    4dcc:	4170      	adcs	r0, r6
    4dce:	b2c0      	uxtb	r0, r0
    4dd0:	2c00      	cmp	r4, #0
    4dd2:	d015      	beq.n	4e00 <__lesf2+0x58>
    4dd4:	2800      	cmp	r0, #0
    4dd6:	d005      	beq.n	4de4 <__lesf2+0x3c>
    4dd8:	2001      	movs	r0, #1
    4dda:	3901      	subs	r1, #1
    4ddc:	4308      	orrs	r0, r1
    4dde:	bdf0      	pop	{r4, r5, r6, r7, pc}
    4de0:	2c00      	cmp	r4, #0
    4de2:	d013      	beq.n	4e0c <__lesf2+0x64>
    4de4:	4299      	cmp	r1, r3
    4de6:	d014      	beq.n	4e12 <__lesf2+0x6a>
    4de8:	2001      	movs	r0, #1
    4dea:	425b      	negs	r3, r3
    4dec:	4318      	orrs	r0, r3
    4dee:	e7f6      	b.n	4dde <__lesf2+0x36>
    4df0:	2002      	movs	r0, #2
    4df2:	2e00      	cmp	r6, #0
    4df4:	d1f3      	bne.n	4dde <__lesf2+0x36>
    4df6:	e7e4      	b.n	4dc2 <__lesf2+0x1a>
    4df8:	2002      	movs	r0, #2
    4dfa:	2d00      	cmp	r5, #0
    4dfc:	d1ef      	bne.n	4dde <__lesf2+0x36>
    4dfe:	e7e2      	b.n	4dc6 <__lesf2+0x1e>
    4e00:	2d00      	cmp	r5, #0
    4e02:	d1e7      	bne.n	4dd4 <__lesf2+0x2c>
    4e04:	2000      	movs	r0, #0
    4e06:	2e00      	cmp	r6, #0
    4e08:	d0e9      	beq.n	4dde <__lesf2+0x36>
    4e0a:	e7ed      	b.n	4de8 <__lesf2+0x40>
    4e0c:	2d00      	cmp	r5, #0
    4e0e:	d1e9      	bne.n	4de4 <__lesf2+0x3c>
    4e10:	e7ea      	b.n	4de8 <__lesf2+0x40>
    4e12:	42a2      	cmp	r2, r4
    4e14:	dc06      	bgt.n	4e24 <__lesf2+0x7c>
    4e16:	dbdf      	blt.n	4dd8 <__lesf2+0x30>
    4e18:	42ae      	cmp	r6, r5
    4e1a:	d803      	bhi.n	4e24 <__lesf2+0x7c>
    4e1c:	2000      	movs	r0, #0
    4e1e:	42ae      	cmp	r6, r5
    4e20:	d3da      	bcc.n	4dd8 <__lesf2+0x30>
    4e22:	e7dc      	b.n	4dde <__lesf2+0x36>
    4e24:	2001      	movs	r0, #1
    4e26:	4249      	negs	r1, r1
    4e28:	4308      	orrs	r0, r1
    4e2a:	e7d8      	b.n	4dde <__lesf2+0x36>

00004e2c <__aeabi_fmul>:
    4e2c:	b5f8      	push	{r3, r4, r5, r6, r7, lr}
    4e2e:	4657      	mov	r7, sl
    4e30:	464e      	mov	r6, r9
    4e32:	4645      	mov	r5, r8
    4e34:	46de      	mov	lr, fp
    4e36:	b5e0      	push	{r5, r6, r7, lr}
    4e38:	0247      	lsls	r7, r0, #9
    4e3a:	0046      	lsls	r6, r0, #1
    4e3c:	4688      	mov	r8, r1
    4e3e:	0a7f      	lsrs	r7, r7, #9
    4e40:	0e36      	lsrs	r6, r6, #24
    4e42:	0fc4      	lsrs	r4, r0, #31
    4e44:	2e00      	cmp	r6, #0
    4e46:	d047      	beq.n	4ed8 <__aeabi_fmul+0xac>
    4e48:	2eff      	cmp	r6, #255	; 0xff
    4e4a:	d024      	beq.n	4e96 <__aeabi_fmul+0x6a>
    4e4c:	00fb      	lsls	r3, r7, #3
    4e4e:	2780      	movs	r7, #128	; 0x80
    4e50:	04ff      	lsls	r7, r7, #19
    4e52:	431f      	orrs	r7, r3
    4e54:	2300      	movs	r3, #0
    4e56:	4699      	mov	r9, r3
    4e58:	469a      	mov	sl, r3
    4e5a:	3e7f      	subs	r6, #127	; 0x7f
    4e5c:	4643      	mov	r3, r8
    4e5e:	025d      	lsls	r5, r3, #9
    4e60:	0058      	lsls	r0, r3, #1
    4e62:	0fdb      	lsrs	r3, r3, #31
    4e64:	0a6d      	lsrs	r5, r5, #9
    4e66:	0e00      	lsrs	r0, r0, #24
    4e68:	4698      	mov	r8, r3
    4e6a:	d043      	beq.n	4ef4 <__aeabi_fmul+0xc8>
    4e6c:	28ff      	cmp	r0, #255	; 0xff
    4e6e:	d03b      	beq.n	4ee8 <__aeabi_fmul+0xbc>
    4e70:	00eb      	lsls	r3, r5, #3
    4e72:	2580      	movs	r5, #128	; 0x80
    4e74:	2200      	movs	r2, #0
    4e76:	04ed      	lsls	r5, r5, #19
    4e78:	431d      	orrs	r5, r3
    4e7a:	387f      	subs	r0, #127	; 0x7f
    4e7c:	1836      	adds	r6, r6, r0
    4e7e:	1c73      	adds	r3, r6, #1
    4e80:	4641      	mov	r1, r8
    4e82:	469b      	mov	fp, r3
    4e84:	464b      	mov	r3, r9
    4e86:	4061      	eors	r1, r4
    4e88:	4313      	orrs	r3, r2
    4e8a:	2b0f      	cmp	r3, #15
    4e8c:	d864      	bhi.n	4f58 <__aeabi_fmul+0x12c>
    4e8e:	4875      	ldr	r0, [pc, #468]	; (5064 <__aeabi_fmul+0x238>)
    4e90:	009b      	lsls	r3, r3, #2
    4e92:	58c3      	ldr	r3, [r0, r3]
    4e94:	469f      	mov	pc, r3
    4e96:	2f00      	cmp	r7, #0
    4e98:	d142      	bne.n	4f20 <__aeabi_fmul+0xf4>
    4e9a:	2308      	movs	r3, #8
    4e9c:	4699      	mov	r9, r3
    4e9e:	3b06      	subs	r3, #6
    4ea0:	26ff      	movs	r6, #255	; 0xff
    4ea2:	469a      	mov	sl, r3
    4ea4:	e7da      	b.n	4e5c <__aeabi_fmul+0x30>
    4ea6:	4641      	mov	r1, r8
    4ea8:	2a02      	cmp	r2, #2
    4eaa:	d028      	beq.n	4efe <__aeabi_fmul+0xd2>
    4eac:	2a03      	cmp	r2, #3
    4eae:	d100      	bne.n	4eb2 <__aeabi_fmul+0x86>
    4eb0:	e0ce      	b.n	5050 <__aeabi_fmul+0x224>
    4eb2:	2a01      	cmp	r2, #1
    4eb4:	d000      	beq.n	4eb8 <__aeabi_fmul+0x8c>
    4eb6:	e0ac      	b.n	5012 <__aeabi_fmul+0x1e6>
    4eb8:	4011      	ands	r1, r2
    4eba:	2000      	movs	r0, #0
    4ebc:	2200      	movs	r2, #0
    4ebe:	b2cc      	uxtb	r4, r1
    4ec0:	0240      	lsls	r0, r0, #9
    4ec2:	05d2      	lsls	r2, r2, #23
    4ec4:	0a40      	lsrs	r0, r0, #9
    4ec6:	07e4      	lsls	r4, r4, #31
    4ec8:	4310      	orrs	r0, r2
    4eca:	4320      	orrs	r0, r4
    4ecc:	bc3c      	pop	{r2, r3, r4, r5}
    4ece:	4690      	mov	r8, r2
    4ed0:	4699      	mov	r9, r3
    4ed2:	46a2      	mov	sl, r4
    4ed4:	46ab      	mov	fp, r5
    4ed6:	bdf8      	pop	{r3, r4, r5, r6, r7, pc}
    4ed8:	2f00      	cmp	r7, #0
    4eda:	d115      	bne.n	4f08 <__aeabi_fmul+0xdc>
    4edc:	2304      	movs	r3, #4
    4ede:	4699      	mov	r9, r3
    4ee0:	3b03      	subs	r3, #3
    4ee2:	2600      	movs	r6, #0
    4ee4:	469a      	mov	sl, r3
    4ee6:	e7b9      	b.n	4e5c <__aeabi_fmul+0x30>
    4ee8:	20ff      	movs	r0, #255	; 0xff
    4eea:	2202      	movs	r2, #2
    4eec:	2d00      	cmp	r5, #0
    4eee:	d0c5      	beq.n	4e7c <__aeabi_fmul+0x50>
    4ef0:	2203      	movs	r2, #3
    4ef2:	e7c3      	b.n	4e7c <__aeabi_fmul+0x50>
    4ef4:	2d00      	cmp	r5, #0
    4ef6:	d119      	bne.n	4f2c <__aeabi_fmul+0x100>
    4ef8:	2000      	movs	r0, #0
    4efa:	2201      	movs	r2, #1
    4efc:	e7be      	b.n	4e7c <__aeabi_fmul+0x50>
    4efe:	2401      	movs	r4, #1
    4f00:	22ff      	movs	r2, #255	; 0xff
    4f02:	400c      	ands	r4, r1
    4f04:	2000      	movs	r0, #0
    4f06:	e7db      	b.n	4ec0 <__aeabi_fmul+0x94>
    4f08:	0038      	movs	r0, r7
    4f0a:	f001 fa21 	bl	6350 <__clzsi2>
    4f0e:	2676      	movs	r6, #118	; 0x76
    4f10:	1f43      	subs	r3, r0, #5
    4f12:	409f      	lsls	r7, r3
    4f14:	2300      	movs	r3, #0
    4f16:	4276      	negs	r6, r6
    4f18:	1a36      	subs	r6, r6, r0
    4f1a:	4699      	mov	r9, r3
    4f1c:	469a      	mov	sl, r3
    4f1e:	e79d      	b.n	4e5c <__aeabi_fmul+0x30>
    4f20:	230c      	movs	r3, #12
    4f22:	4699      	mov	r9, r3
    4f24:	3b09      	subs	r3, #9
    4f26:	26ff      	movs	r6, #255	; 0xff
    4f28:	469a      	mov	sl, r3
    4f2a:	e797      	b.n	4e5c <__aeabi_fmul+0x30>
    4f2c:	0028      	movs	r0, r5
    4f2e:	f001 fa0f 	bl	6350 <__clzsi2>
    4f32:	1f43      	subs	r3, r0, #5
    4f34:	409d      	lsls	r5, r3
    4f36:	2376      	movs	r3, #118	; 0x76
    4f38:	425b      	negs	r3, r3
    4f3a:	1a18      	subs	r0, r3, r0
    4f3c:	2200      	movs	r2, #0
    4f3e:	e79d      	b.n	4e7c <__aeabi_fmul+0x50>
    4f40:	2080      	movs	r0, #128	; 0x80
    4f42:	2400      	movs	r4, #0
    4f44:	03c0      	lsls	r0, r0, #15
    4f46:	22ff      	movs	r2, #255	; 0xff
    4f48:	e7ba      	b.n	4ec0 <__aeabi_fmul+0x94>
    4f4a:	003d      	movs	r5, r7
    4f4c:	4652      	mov	r2, sl
    4f4e:	e7ab      	b.n	4ea8 <__aeabi_fmul+0x7c>
    4f50:	003d      	movs	r5, r7
    4f52:	0021      	movs	r1, r4
    4f54:	4652      	mov	r2, sl
    4f56:	e7a7      	b.n	4ea8 <__aeabi_fmul+0x7c>
    4f58:	0c3b      	lsrs	r3, r7, #16
    4f5a:	469c      	mov	ip, r3
    4f5c:	042a      	lsls	r2, r5, #16
    4f5e:	0c12      	lsrs	r2, r2, #16
    4f60:	0c2b      	lsrs	r3, r5, #16
    4f62:	0014      	movs	r4, r2
    4f64:	4660      	mov	r0, ip
    4f66:	4665      	mov	r5, ip
    4f68:	043f      	lsls	r7, r7, #16
    4f6a:	0c3f      	lsrs	r7, r7, #16
    4f6c:	437c      	muls	r4, r7
    4f6e:	4342      	muls	r2, r0
    4f70:	435d      	muls	r5, r3
    4f72:	437b      	muls	r3, r7
    4f74:	0c27      	lsrs	r7, r4, #16
    4f76:	189b      	adds	r3, r3, r2
    4f78:	18ff      	adds	r7, r7, r3
    4f7a:	42ba      	cmp	r2, r7
    4f7c:	d903      	bls.n	4f86 <__aeabi_fmul+0x15a>
    4f7e:	2380      	movs	r3, #128	; 0x80
    4f80:	025b      	lsls	r3, r3, #9
    4f82:	469c      	mov	ip, r3
    4f84:	4465      	add	r5, ip
    4f86:	0424      	lsls	r4, r4, #16
    4f88:	043a      	lsls	r2, r7, #16
    4f8a:	0c24      	lsrs	r4, r4, #16
    4f8c:	1912      	adds	r2, r2, r4
    4f8e:	0193      	lsls	r3, r2, #6
    4f90:	1e5c      	subs	r4, r3, #1
    4f92:	41a3      	sbcs	r3, r4
    4f94:	0c3f      	lsrs	r7, r7, #16
    4f96:	0e92      	lsrs	r2, r2, #26
    4f98:	197d      	adds	r5, r7, r5
    4f9a:	431a      	orrs	r2, r3
    4f9c:	01ad      	lsls	r5, r5, #6
    4f9e:	4315      	orrs	r5, r2
    4fa0:	012b      	lsls	r3, r5, #4
    4fa2:	d504      	bpl.n	4fae <__aeabi_fmul+0x182>
    4fa4:	2301      	movs	r3, #1
    4fa6:	465e      	mov	r6, fp
    4fa8:	086a      	lsrs	r2, r5, #1
    4faa:	401d      	ands	r5, r3
    4fac:	4315      	orrs	r5, r2
    4fae:	0032      	movs	r2, r6
    4fb0:	327f      	adds	r2, #127	; 0x7f
    4fb2:	2a00      	cmp	r2, #0
    4fb4:	dd25      	ble.n	5002 <__aeabi_fmul+0x1d6>
    4fb6:	076b      	lsls	r3, r5, #29
    4fb8:	d004      	beq.n	4fc4 <__aeabi_fmul+0x198>
    4fba:	230f      	movs	r3, #15
    4fbc:	402b      	ands	r3, r5
    4fbe:	2b04      	cmp	r3, #4
    4fc0:	d000      	beq.n	4fc4 <__aeabi_fmul+0x198>
    4fc2:	3504      	adds	r5, #4
    4fc4:	012b      	lsls	r3, r5, #4
    4fc6:	d503      	bpl.n	4fd0 <__aeabi_fmul+0x1a4>
    4fc8:	0032      	movs	r2, r6
    4fca:	4b27      	ldr	r3, [pc, #156]	; (5068 <__aeabi_fmul+0x23c>)
    4fcc:	3280      	adds	r2, #128	; 0x80
    4fce:	401d      	ands	r5, r3
    4fd0:	2afe      	cmp	r2, #254	; 0xfe
    4fd2:	dc94      	bgt.n	4efe <__aeabi_fmul+0xd2>
    4fd4:	2401      	movs	r4, #1
    4fd6:	01a8      	lsls	r0, r5, #6
    4fd8:	0a40      	lsrs	r0, r0, #9
    4fda:	b2d2      	uxtb	r2, r2
    4fdc:	400c      	ands	r4, r1
    4fde:	e76f      	b.n	4ec0 <__aeabi_fmul+0x94>
    4fe0:	2080      	movs	r0, #128	; 0x80
    4fe2:	03c0      	lsls	r0, r0, #15
    4fe4:	4207      	tst	r7, r0
    4fe6:	d007      	beq.n	4ff8 <__aeabi_fmul+0x1cc>
    4fe8:	4205      	tst	r5, r0
    4fea:	d105      	bne.n	4ff8 <__aeabi_fmul+0x1cc>
    4fec:	4328      	orrs	r0, r5
    4fee:	0240      	lsls	r0, r0, #9
    4ff0:	0a40      	lsrs	r0, r0, #9
    4ff2:	4644      	mov	r4, r8
    4ff4:	22ff      	movs	r2, #255	; 0xff
    4ff6:	e763      	b.n	4ec0 <__aeabi_fmul+0x94>
    4ff8:	4338      	orrs	r0, r7
    4ffa:	0240      	lsls	r0, r0, #9
    4ffc:	0a40      	lsrs	r0, r0, #9
    4ffe:	22ff      	movs	r2, #255	; 0xff
    5000:	e75e      	b.n	4ec0 <__aeabi_fmul+0x94>
    5002:	2401      	movs	r4, #1
    5004:	1aa3      	subs	r3, r4, r2
    5006:	2b1b      	cmp	r3, #27
    5008:	dd05      	ble.n	5016 <__aeabi_fmul+0x1ea>
    500a:	400c      	ands	r4, r1
    500c:	2200      	movs	r2, #0
    500e:	2000      	movs	r0, #0
    5010:	e756      	b.n	4ec0 <__aeabi_fmul+0x94>
    5012:	465e      	mov	r6, fp
    5014:	e7cb      	b.n	4fae <__aeabi_fmul+0x182>
    5016:	002a      	movs	r2, r5
    5018:	2020      	movs	r0, #32
    501a:	40da      	lsrs	r2, r3
    501c:	1ac3      	subs	r3, r0, r3
    501e:	409d      	lsls	r5, r3
    5020:	002b      	movs	r3, r5
    5022:	1e5d      	subs	r5, r3, #1
    5024:	41ab      	sbcs	r3, r5
    5026:	4313      	orrs	r3, r2
    5028:	075a      	lsls	r2, r3, #29
    502a:	d004      	beq.n	5036 <__aeabi_fmul+0x20a>
    502c:	220f      	movs	r2, #15
    502e:	401a      	ands	r2, r3
    5030:	2a04      	cmp	r2, #4
    5032:	d000      	beq.n	5036 <__aeabi_fmul+0x20a>
    5034:	3304      	adds	r3, #4
    5036:	015a      	lsls	r2, r3, #5
    5038:	d504      	bpl.n	5044 <__aeabi_fmul+0x218>
    503a:	2401      	movs	r4, #1
    503c:	2201      	movs	r2, #1
    503e:	400c      	ands	r4, r1
    5040:	2000      	movs	r0, #0
    5042:	e73d      	b.n	4ec0 <__aeabi_fmul+0x94>
    5044:	2401      	movs	r4, #1
    5046:	019b      	lsls	r3, r3, #6
    5048:	0a58      	lsrs	r0, r3, #9
    504a:	400c      	ands	r4, r1
    504c:	2200      	movs	r2, #0
    504e:	e737      	b.n	4ec0 <__aeabi_fmul+0x94>
    5050:	2080      	movs	r0, #128	; 0x80
    5052:	2401      	movs	r4, #1
    5054:	03c0      	lsls	r0, r0, #15
    5056:	4328      	orrs	r0, r5
    5058:	0240      	lsls	r0, r0, #9
    505a:	0a40      	lsrs	r0, r0, #9
    505c:	400c      	ands	r4, r1
    505e:	22ff      	movs	r2, #255	; 0xff
    5060:	e72e      	b.n	4ec0 <__aeabi_fmul+0x94>
    5062:	46c0      	nop			; (mov r8, r8)
    5064:	0000cf94 	.word	0x0000cf94
    5068:	f7ffffff 	.word	0xf7ffffff

0000506c <__aeabi_fsub>:
    506c:	b5f0      	push	{r4, r5, r6, r7, lr}
    506e:	464f      	mov	r7, r9
    5070:	46d6      	mov	lr, sl
    5072:	4646      	mov	r6, r8
    5074:	0044      	lsls	r4, r0, #1
    5076:	b5c0      	push	{r6, r7, lr}
    5078:	0fc2      	lsrs	r2, r0, #31
    507a:	0247      	lsls	r7, r0, #9
    507c:	0248      	lsls	r0, r1, #9
    507e:	0a40      	lsrs	r0, r0, #9
    5080:	4684      	mov	ip, r0
    5082:	4666      	mov	r6, ip
    5084:	0a7b      	lsrs	r3, r7, #9
    5086:	0048      	lsls	r0, r1, #1
    5088:	0fc9      	lsrs	r1, r1, #31
    508a:	469a      	mov	sl, r3
    508c:	0e24      	lsrs	r4, r4, #24
    508e:	0015      	movs	r5, r2
    5090:	00db      	lsls	r3, r3, #3
    5092:	0e00      	lsrs	r0, r0, #24
    5094:	4689      	mov	r9, r1
    5096:	00f6      	lsls	r6, r6, #3
    5098:	28ff      	cmp	r0, #255	; 0xff
    509a:	d100      	bne.n	509e <__aeabi_fsub+0x32>
    509c:	e08f      	b.n	51be <__aeabi_fsub+0x152>
    509e:	2101      	movs	r1, #1
    50a0:	464f      	mov	r7, r9
    50a2:	404f      	eors	r7, r1
    50a4:	0039      	movs	r1, r7
    50a6:	4291      	cmp	r1, r2
    50a8:	d066      	beq.n	5178 <__aeabi_fsub+0x10c>
    50aa:	1a22      	subs	r2, r4, r0
    50ac:	2a00      	cmp	r2, #0
    50ae:	dc00      	bgt.n	50b2 <__aeabi_fsub+0x46>
    50b0:	e09d      	b.n	51ee <__aeabi_fsub+0x182>
    50b2:	2800      	cmp	r0, #0
    50b4:	d13d      	bne.n	5132 <__aeabi_fsub+0xc6>
    50b6:	2e00      	cmp	r6, #0
    50b8:	d100      	bne.n	50bc <__aeabi_fsub+0x50>
    50ba:	e08b      	b.n	51d4 <__aeabi_fsub+0x168>
    50bc:	1e51      	subs	r1, r2, #1
    50be:	2900      	cmp	r1, #0
    50c0:	d000      	beq.n	50c4 <__aeabi_fsub+0x58>
    50c2:	e0b5      	b.n	5230 <__aeabi_fsub+0x1c4>
    50c4:	2401      	movs	r4, #1
    50c6:	1b9b      	subs	r3, r3, r6
    50c8:	015a      	lsls	r2, r3, #5
    50ca:	d544      	bpl.n	5156 <__aeabi_fsub+0xea>
    50cc:	019b      	lsls	r3, r3, #6
    50ce:	099f      	lsrs	r7, r3, #6
    50d0:	0038      	movs	r0, r7
    50d2:	f001 f93d 	bl	6350 <__clzsi2>
    50d6:	3805      	subs	r0, #5
    50d8:	4087      	lsls	r7, r0
    50da:	4284      	cmp	r4, r0
    50dc:	dd00      	ble.n	50e0 <__aeabi_fsub+0x74>
    50de:	e096      	b.n	520e <__aeabi_fsub+0x1a2>
    50e0:	1b04      	subs	r4, r0, r4
    50e2:	003a      	movs	r2, r7
    50e4:	2020      	movs	r0, #32
    50e6:	3401      	adds	r4, #1
    50e8:	40e2      	lsrs	r2, r4
    50ea:	1b04      	subs	r4, r0, r4
    50ec:	40a7      	lsls	r7, r4
    50ee:	003b      	movs	r3, r7
    50f0:	1e5f      	subs	r7, r3, #1
    50f2:	41bb      	sbcs	r3, r7
    50f4:	2400      	movs	r4, #0
    50f6:	4313      	orrs	r3, r2
    50f8:	075a      	lsls	r2, r3, #29
    50fa:	d004      	beq.n	5106 <__aeabi_fsub+0x9a>
    50fc:	220f      	movs	r2, #15
    50fe:	401a      	ands	r2, r3
    5100:	2a04      	cmp	r2, #4
    5102:	d000      	beq.n	5106 <__aeabi_fsub+0x9a>
    5104:	3304      	adds	r3, #4
    5106:	015a      	lsls	r2, r3, #5
    5108:	d527      	bpl.n	515a <__aeabi_fsub+0xee>
    510a:	3401      	adds	r4, #1
    510c:	2cff      	cmp	r4, #255	; 0xff
    510e:	d100      	bne.n	5112 <__aeabi_fsub+0xa6>
    5110:	e079      	b.n	5206 <__aeabi_fsub+0x19a>
    5112:	2201      	movs	r2, #1
    5114:	019b      	lsls	r3, r3, #6
    5116:	0a5b      	lsrs	r3, r3, #9
    5118:	b2e4      	uxtb	r4, r4
    511a:	402a      	ands	r2, r5
    511c:	025b      	lsls	r3, r3, #9
    511e:	05e4      	lsls	r4, r4, #23
    5120:	0a58      	lsrs	r0, r3, #9
    5122:	07d2      	lsls	r2, r2, #31
    5124:	4320      	orrs	r0, r4
    5126:	4310      	orrs	r0, r2
    5128:	bc1c      	pop	{r2, r3, r4}
    512a:	4690      	mov	r8, r2
    512c:	4699      	mov	r9, r3
    512e:	46a2      	mov	sl, r4
    5130:	bdf0      	pop	{r4, r5, r6, r7, pc}
    5132:	2cff      	cmp	r4, #255	; 0xff
    5134:	d0e0      	beq.n	50f8 <__aeabi_fsub+0x8c>
    5136:	2180      	movs	r1, #128	; 0x80
    5138:	04c9      	lsls	r1, r1, #19
    513a:	430e      	orrs	r6, r1
    513c:	2a1b      	cmp	r2, #27
    513e:	dc7b      	bgt.n	5238 <__aeabi_fsub+0x1cc>
    5140:	0031      	movs	r1, r6
    5142:	2020      	movs	r0, #32
    5144:	40d1      	lsrs	r1, r2
    5146:	1a82      	subs	r2, r0, r2
    5148:	4096      	lsls	r6, r2
    514a:	1e72      	subs	r2, r6, #1
    514c:	4196      	sbcs	r6, r2
    514e:	430e      	orrs	r6, r1
    5150:	1b9b      	subs	r3, r3, r6
    5152:	015a      	lsls	r2, r3, #5
    5154:	d4ba      	bmi.n	50cc <__aeabi_fsub+0x60>
    5156:	075a      	lsls	r2, r3, #29
    5158:	d1d0      	bne.n	50fc <__aeabi_fsub+0x90>
    515a:	2201      	movs	r2, #1
    515c:	08df      	lsrs	r7, r3, #3
    515e:	402a      	ands	r2, r5
    5160:	2cff      	cmp	r4, #255	; 0xff
    5162:	d133      	bne.n	51cc <__aeabi_fsub+0x160>
    5164:	2f00      	cmp	r7, #0
    5166:	d100      	bne.n	516a <__aeabi_fsub+0xfe>
    5168:	e0a8      	b.n	52bc <__aeabi_fsub+0x250>
    516a:	2380      	movs	r3, #128	; 0x80
    516c:	03db      	lsls	r3, r3, #15
    516e:	433b      	orrs	r3, r7
    5170:	025b      	lsls	r3, r3, #9
    5172:	0a5b      	lsrs	r3, r3, #9
    5174:	24ff      	movs	r4, #255	; 0xff
    5176:	e7d1      	b.n	511c <__aeabi_fsub+0xb0>
    5178:	1a21      	subs	r1, r4, r0
    517a:	2900      	cmp	r1, #0
    517c:	dd4c      	ble.n	5218 <__aeabi_fsub+0x1ac>
    517e:	2800      	cmp	r0, #0
    5180:	d02a      	beq.n	51d8 <__aeabi_fsub+0x16c>
    5182:	2cff      	cmp	r4, #255	; 0xff
    5184:	d0b8      	beq.n	50f8 <__aeabi_fsub+0x8c>
    5186:	2080      	movs	r0, #128	; 0x80
    5188:	04c0      	lsls	r0, r0, #19
    518a:	4306      	orrs	r6, r0
    518c:	291b      	cmp	r1, #27
    518e:	dd00      	ble.n	5192 <__aeabi_fsub+0x126>
    5190:	e0af      	b.n	52f2 <__aeabi_fsub+0x286>
    5192:	0030      	movs	r0, r6
    5194:	2720      	movs	r7, #32
    5196:	40c8      	lsrs	r0, r1
    5198:	1a79      	subs	r1, r7, r1
    519a:	408e      	lsls	r6, r1
    519c:	1e71      	subs	r1, r6, #1
    519e:	418e      	sbcs	r6, r1
    51a0:	4306      	orrs	r6, r0
    51a2:	199b      	adds	r3, r3, r6
    51a4:	0159      	lsls	r1, r3, #5
    51a6:	d5d6      	bpl.n	5156 <__aeabi_fsub+0xea>
    51a8:	3401      	adds	r4, #1
    51aa:	2cff      	cmp	r4, #255	; 0xff
    51ac:	d100      	bne.n	51b0 <__aeabi_fsub+0x144>
    51ae:	e085      	b.n	52bc <__aeabi_fsub+0x250>
    51b0:	2201      	movs	r2, #1
    51b2:	497a      	ldr	r1, [pc, #488]	; (539c <__aeabi_fsub+0x330>)
    51b4:	401a      	ands	r2, r3
    51b6:	085b      	lsrs	r3, r3, #1
    51b8:	400b      	ands	r3, r1
    51ba:	4313      	orrs	r3, r2
    51bc:	e79c      	b.n	50f8 <__aeabi_fsub+0x8c>
    51be:	2e00      	cmp	r6, #0
    51c0:	d000      	beq.n	51c4 <__aeabi_fsub+0x158>
    51c2:	e770      	b.n	50a6 <__aeabi_fsub+0x3a>
    51c4:	e76b      	b.n	509e <__aeabi_fsub+0x32>
    51c6:	1e3b      	subs	r3, r7, #0
    51c8:	d1c5      	bne.n	5156 <__aeabi_fsub+0xea>
    51ca:	2200      	movs	r2, #0
    51cc:	027b      	lsls	r3, r7, #9
    51ce:	0a5b      	lsrs	r3, r3, #9
    51d0:	b2e4      	uxtb	r4, r4
    51d2:	e7a3      	b.n	511c <__aeabi_fsub+0xb0>
    51d4:	0014      	movs	r4, r2
    51d6:	e78f      	b.n	50f8 <__aeabi_fsub+0x8c>
    51d8:	2e00      	cmp	r6, #0
    51da:	d04d      	beq.n	5278 <__aeabi_fsub+0x20c>
    51dc:	1e48      	subs	r0, r1, #1
    51de:	2800      	cmp	r0, #0
    51e0:	d157      	bne.n	5292 <__aeabi_fsub+0x226>
    51e2:	199b      	adds	r3, r3, r6
    51e4:	2401      	movs	r4, #1
    51e6:	015a      	lsls	r2, r3, #5
    51e8:	d5b5      	bpl.n	5156 <__aeabi_fsub+0xea>
    51ea:	2402      	movs	r4, #2
    51ec:	e7e0      	b.n	51b0 <__aeabi_fsub+0x144>
    51ee:	2a00      	cmp	r2, #0
    51f0:	d125      	bne.n	523e <__aeabi_fsub+0x1d2>
    51f2:	1c62      	adds	r2, r4, #1
    51f4:	b2d2      	uxtb	r2, r2
    51f6:	2a01      	cmp	r2, #1
    51f8:	dd72      	ble.n	52e0 <__aeabi_fsub+0x274>
    51fa:	1b9f      	subs	r7, r3, r6
    51fc:	017a      	lsls	r2, r7, #5
    51fe:	d535      	bpl.n	526c <__aeabi_fsub+0x200>
    5200:	1af7      	subs	r7, r6, r3
    5202:	000d      	movs	r5, r1
    5204:	e764      	b.n	50d0 <__aeabi_fsub+0x64>
    5206:	2201      	movs	r2, #1
    5208:	2300      	movs	r3, #0
    520a:	402a      	ands	r2, r5
    520c:	e786      	b.n	511c <__aeabi_fsub+0xb0>
    520e:	003b      	movs	r3, r7
    5210:	4a63      	ldr	r2, [pc, #396]	; (53a0 <__aeabi_fsub+0x334>)
    5212:	1a24      	subs	r4, r4, r0
    5214:	4013      	ands	r3, r2
    5216:	e76f      	b.n	50f8 <__aeabi_fsub+0x8c>
    5218:	2900      	cmp	r1, #0
    521a:	d16c      	bne.n	52f6 <__aeabi_fsub+0x28a>
    521c:	1c61      	adds	r1, r4, #1
    521e:	b2c8      	uxtb	r0, r1
    5220:	2801      	cmp	r0, #1
    5222:	dd4e      	ble.n	52c2 <__aeabi_fsub+0x256>
    5224:	29ff      	cmp	r1, #255	; 0xff
    5226:	d049      	beq.n	52bc <__aeabi_fsub+0x250>
    5228:	199b      	adds	r3, r3, r6
    522a:	085b      	lsrs	r3, r3, #1
    522c:	000c      	movs	r4, r1
    522e:	e763      	b.n	50f8 <__aeabi_fsub+0x8c>
    5230:	2aff      	cmp	r2, #255	; 0xff
    5232:	d041      	beq.n	52b8 <__aeabi_fsub+0x24c>
    5234:	000a      	movs	r2, r1
    5236:	e781      	b.n	513c <__aeabi_fsub+0xd0>
    5238:	2601      	movs	r6, #1
    523a:	1b9b      	subs	r3, r3, r6
    523c:	e789      	b.n	5152 <__aeabi_fsub+0xe6>
    523e:	2c00      	cmp	r4, #0
    5240:	d01c      	beq.n	527c <__aeabi_fsub+0x210>
    5242:	28ff      	cmp	r0, #255	; 0xff
    5244:	d021      	beq.n	528a <__aeabi_fsub+0x21e>
    5246:	2480      	movs	r4, #128	; 0x80
    5248:	04e4      	lsls	r4, r4, #19
    524a:	4252      	negs	r2, r2
    524c:	4323      	orrs	r3, r4
    524e:	2a1b      	cmp	r2, #27
    5250:	dd00      	ble.n	5254 <__aeabi_fsub+0x1e8>
    5252:	e096      	b.n	5382 <__aeabi_fsub+0x316>
    5254:	001c      	movs	r4, r3
    5256:	2520      	movs	r5, #32
    5258:	40d4      	lsrs	r4, r2
    525a:	1aaa      	subs	r2, r5, r2
    525c:	4093      	lsls	r3, r2
    525e:	1e5a      	subs	r2, r3, #1
    5260:	4193      	sbcs	r3, r2
    5262:	4323      	orrs	r3, r4
    5264:	1af3      	subs	r3, r6, r3
    5266:	0004      	movs	r4, r0
    5268:	000d      	movs	r5, r1
    526a:	e72d      	b.n	50c8 <__aeabi_fsub+0x5c>
    526c:	2f00      	cmp	r7, #0
    526e:	d000      	beq.n	5272 <__aeabi_fsub+0x206>
    5270:	e72e      	b.n	50d0 <__aeabi_fsub+0x64>
    5272:	2200      	movs	r2, #0
    5274:	2400      	movs	r4, #0
    5276:	e7a9      	b.n	51cc <__aeabi_fsub+0x160>
    5278:	000c      	movs	r4, r1
    527a:	e73d      	b.n	50f8 <__aeabi_fsub+0x8c>
    527c:	2b00      	cmp	r3, #0
    527e:	d058      	beq.n	5332 <__aeabi_fsub+0x2c6>
    5280:	43d2      	mvns	r2, r2
    5282:	2a00      	cmp	r2, #0
    5284:	d0ee      	beq.n	5264 <__aeabi_fsub+0x1f8>
    5286:	28ff      	cmp	r0, #255	; 0xff
    5288:	d1e1      	bne.n	524e <__aeabi_fsub+0x1e2>
    528a:	0033      	movs	r3, r6
    528c:	24ff      	movs	r4, #255	; 0xff
    528e:	000d      	movs	r5, r1
    5290:	e732      	b.n	50f8 <__aeabi_fsub+0x8c>
    5292:	29ff      	cmp	r1, #255	; 0xff
    5294:	d010      	beq.n	52b8 <__aeabi_fsub+0x24c>
    5296:	0001      	movs	r1, r0
    5298:	e778      	b.n	518c <__aeabi_fsub+0x120>
    529a:	2b00      	cmp	r3, #0
    529c:	d06e      	beq.n	537c <__aeabi_fsub+0x310>
    529e:	24ff      	movs	r4, #255	; 0xff
    52a0:	2e00      	cmp	r6, #0
    52a2:	d100      	bne.n	52a6 <__aeabi_fsub+0x23a>
    52a4:	e728      	b.n	50f8 <__aeabi_fsub+0x8c>
    52a6:	2280      	movs	r2, #128	; 0x80
    52a8:	4651      	mov	r1, sl
    52aa:	03d2      	lsls	r2, r2, #15
    52ac:	4211      	tst	r1, r2
    52ae:	d003      	beq.n	52b8 <__aeabi_fsub+0x24c>
    52b0:	4661      	mov	r1, ip
    52b2:	4211      	tst	r1, r2
    52b4:	d100      	bne.n	52b8 <__aeabi_fsub+0x24c>
    52b6:	0033      	movs	r3, r6
    52b8:	24ff      	movs	r4, #255	; 0xff
    52ba:	e71d      	b.n	50f8 <__aeabi_fsub+0x8c>
    52bc:	24ff      	movs	r4, #255	; 0xff
    52be:	2300      	movs	r3, #0
    52c0:	e72c      	b.n	511c <__aeabi_fsub+0xb0>
    52c2:	2c00      	cmp	r4, #0
    52c4:	d1e9      	bne.n	529a <__aeabi_fsub+0x22e>
    52c6:	2b00      	cmp	r3, #0
    52c8:	d063      	beq.n	5392 <__aeabi_fsub+0x326>
    52ca:	2e00      	cmp	r6, #0
    52cc:	d100      	bne.n	52d0 <__aeabi_fsub+0x264>
    52ce:	e713      	b.n	50f8 <__aeabi_fsub+0x8c>
    52d0:	199b      	adds	r3, r3, r6
    52d2:	015a      	lsls	r2, r3, #5
    52d4:	d400      	bmi.n	52d8 <__aeabi_fsub+0x26c>
    52d6:	e73e      	b.n	5156 <__aeabi_fsub+0xea>
    52d8:	4a31      	ldr	r2, [pc, #196]	; (53a0 <__aeabi_fsub+0x334>)
    52da:	000c      	movs	r4, r1
    52dc:	4013      	ands	r3, r2
    52de:	e70b      	b.n	50f8 <__aeabi_fsub+0x8c>
    52e0:	2c00      	cmp	r4, #0
    52e2:	d11e      	bne.n	5322 <__aeabi_fsub+0x2b6>
    52e4:	2b00      	cmp	r3, #0
    52e6:	d12f      	bne.n	5348 <__aeabi_fsub+0x2dc>
    52e8:	2e00      	cmp	r6, #0
    52ea:	d04f      	beq.n	538c <__aeabi_fsub+0x320>
    52ec:	0033      	movs	r3, r6
    52ee:	000d      	movs	r5, r1
    52f0:	e702      	b.n	50f8 <__aeabi_fsub+0x8c>
    52f2:	2601      	movs	r6, #1
    52f4:	e755      	b.n	51a2 <__aeabi_fsub+0x136>
    52f6:	2c00      	cmp	r4, #0
    52f8:	d11f      	bne.n	533a <__aeabi_fsub+0x2ce>
    52fa:	2b00      	cmp	r3, #0
    52fc:	d043      	beq.n	5386 <__aeabi_fsub+0x31a>
    52fe:	43c9      	mvns	r1, r1
    5300:	2900      	cmp	r1, #0
    5302:	d00b      	beq.n	531c <__aeabi_fsub+0x2b0>
    5304:	28ff      	cmp	r0, #255	; 0xff
    5306:	d039      	beq.n	537c <__aeabi_fsub+0x310>
    5308:	291b      	cmp	r1, #27
    530a:	dc44      	bgt.n	5396 <__aeabi_fsub+0x32a>
    530c:	001c      	movs	r4, r3
    530e:	2720      	movs	r7, #32
    5310:	40cc      	lsrs	r4, r1
    5312:	1a79      	subs	r1, r7, r1
    5314:	408b      	lsls	r3, r1
    5316:	1e59      	subs	r1, r3, #1
    5318:	418b      	sbcs	r3, r1
    531a:	4323      	orrs	r3, r4
    531c:	199b      	adds	r3, r3, r6
    531e:	0004      	movs	r4, r0
    5320:	e740      	b.n	51a4 <__aeabi_fsub+0x138>
    5322:	2b00      	cmp	r3, #0
    5324:	d11a      	bne.n	535c <__aeabi_fsub+0x2f0>
    5326:	2e00      	cmp	r6, #0
    5328:	d124      	bne.n	5374 <__aeabi_fsub+0x308>
    532a:	2780      	movs	r7, #128	; 0x80
    532c:	2200      	movs	r2, #0
    532e:	03ff      	lsls	r7, r7, #15
    5330:	e71b      	b.n	516a <__aeabi_fsub+0xfe>
    5332:	0033      	movs	r3, r6
    5334:	0004      	movs	r4, r0
    5336:	000d      	movs	r5, r1
    5338:	e6de      	b.n	50f8 <__aeabi_fsub+0x8c>
    533a:	28ff      	cmp	r0, #255	; 0xff
    533c:	d01e      	beq.n	537c <__aeabi_fsub+0x310>
    533e:	2480      	movs	r4, #128	; 0x80
    5340:	04e4      	lsls	r4, r4, #19
    5342:	4249      	negs	r1, r1
    5344:	4323      	orrs	r3, r4
    5346:	e7df      	b.n	5308 <__aeabi_fsub+0x29c>
    5348:	2e00      	cmp	r6, #0
    534a:	d100      	bne.n	534e <__aeabi_fsub+0x2e2>
    534c:	e6d4      	b.n	50f8 <__aeabi_fsub+0x8c>
    534e:	1b9f      	subs	r7, r3, r6
    5350:	017a      	lsls	r2, r7, #5
    5352:	d400      	bmi.n	5356 <__aeabi_fsub+0x2ea>
    5354:	e737      	b.n	51c6 <__aeabi_fsub+0x15a>
    5356:	1af3      	subs	r3, r6, r3
    5358:	000d      	movs	r5, r1
    535a:	e6cd      	b.n	50f8 <__aeabi_fsub+0x8c>
    535c:	24ff      	movs	r4, #255	; 0xff
    535e:	2e00      	cmp	r6, #0
    5360:	d100      	bne.n	5364 <__aeabi_fsub+0x2f8>
    5362:	e6c9      	b.n	50f8 <__aeabi_fsub+0x8c>
    5364:	2280      	movs	r2, #128	; 0x80
    5366:	4650      	mov	r0, sl
    5368:	03d2      	lsls	r2, r2, #15
    536a:	4210      	tst	r0, r2
    536c:	d0a4      	beq.n	52b8 <__aeabi_fsub+0x24c>
    536e:	4660      	mov	r0, ip
    5370:	4210      	tst	r0, r2
    5372:	d1a1      	bne.n	52b8 <__aeabi_fsub+0x24c>
    5374:	0033      	movs	r3, r6
    5376:	000d      	movs	r5, r1
    5378:	24ff      	movs	r4, #255	; 0xff
    537a:	e6bd      	b.n	50f8 <__aeabi_fsub+0x8c>
    537c:	0033      	movs	r3, r6
    537e:	24ff      	movs	r4, #255	; 0xff
    5380:	e6ba      	b.n	50f8 <__aeabi_fsub+0x8c>
    5382:	2301      	movs	r3, #1
    5384:	e76e      	b.n	5264 <__aeabi_fsub+0x1f8>
    5386:	0033      	movs	r3, r6
    5388:	0004      	movs	r4, r0
    538a:	e6b5      	b.n	50f8 <__aeabi_fsub+0x8c>
    538c:	2700      	movs	r7, #0
    538e:	2200      	movs	r2, #0
    5390:	e71c      	b.n	51cc <__aeabi_fsub+0x160>
    5392:	0033      	movs	r3, r6
    5394:	e6b0      	b.n	50f8 <__aeabi_fsub+0x8c>
    5396:	2301      	movs	r3, #1
    5398:	e7c0      	b.n	531c <__aeabi_fsub+0x2b0>
    539a:	46c0      	nop			; (mov r8, r8)
    539c:	7dffffff 	.word	0x7dffffff
    53a0:	fbffffff 	.word	0xfbffffff

000053a4 <__aeabi_f2iz>:
    53a4:	0241      	lsls	r1, r0, #9
    53a6:	0043      	lsls	r3, r0, #1
    53a8:	0fc2      	lsrs	r2, r0, #31
    53aa:	0a49      	lsrs	r1, r1, #9
    53ac:	0e1b      	lsrs	r3, r3, #24
    53ae:	2000      	movs	r0, #0
    53b0:	2b7e      	cmp	r3, #126	; 0x7e
    53b2:	dd0d      	ble.n	53d0 <__aeabi_f2iz+0x2c>
    53b4:	2b9d      	cmp	r3, #157	; 0x9d
    53b6:	dc0c      	bgt.n	53d2 <__aeabi_f2iz+0x2e>
    53b8:	2080      	movs	r0, #128	; 0x80
    53ba:	0400      	lsls	r0, r0, #16
    53bc:	4301      	orrs	r1, r0
    53be:	2b95      	cmp	r3, #149	; 0x95
    53c0:	dc0a      	bgt.n	53d8 <__aeabi_f2iz+0x34>
    53c2:	2096      	movs	r0, #150	; 0x96
    53c4:	1ac3      	subs	r3, r0, r3
    53c6:	40d9      	lsrs	r1, r3
    53c8:	4248      	negs	r0, r1
    53ca:	2a00      	cmp	r2, #0
    53cc:	d100      	bne.n	53d0 <__aeabi_f2iz+0x2c>
    53ce:	0008      	movs	r0, r1
    53d0:	4770      	bx	lr
    53d2:	4b03      	ldr	r3, [pc, #12]	; (53e0 <__aeabi_f2iz+0x3c>)
    53d4:	18d0      	adds	r0, r2, r3
    53d6:	e7fb      	b.n	53d0 <__aeabi_f2iz+0x2c>
    53d8:	3b96      	subs	r3, #150	; 0x96
    53da:	4099      	lsls	r1, r3
    53dc:	e7f4      	b.n	53c8 <__aeabi_f2iz+0x24>
    53de:	46c0      	nop			; (mov r8, r8)
    53e0:	7fffffff 	.word	0x7fffffff

000053e4 <__aeabi_i2f>:
    53e4:	b570      	push	{r4, r5, r6, lr}
    53e6:	2800      	cmp	r0, #0
    53e8:	d030      	beq.n	544c <__aeabi_i2f+0x68>
    53ea:	17c3      	asrs	r3, r0, #31
    53ec:	18c4      	adds	r4, r0, r3
    53ee:	405c      	eors	r4, r3
    53f0:	0fc5      	lsrs	r5, r0, #31
    53f2:	0020      	movs	r0, r4
    53f4:	f000 ffac 	bl	6350 <__clzsi2>
    53f8:	239e      	movs	r3, #158	; 0x9e
    53fa:	1a1b      	subs	r3, r3, r0
    53fc:	2b96      	cmp	r3, #150	; 0x96
    53fe:	dc0d      	bgt.n	541c <__aeabi_i2f+0x38>
    5400:	2296      	movs	r2, #150	; 0x96
    5402:	1ad2      	subs	r2, r2, r3
    5404:	4094      	lsls	r4, r2
    5406:	002a      	movs	r2, r5
    5408:	0264      	lsls	r4, r4, #9
    540a:	0a64      	lsrs	r4, r4, #9
    540c:	b2db      	uxtb	r3, r3
    540e:	0264      	lsls	r4, r4, #9
    5410:	05db      	lsls	r3, r3, #23
    5412:	0a60      	lsrs	r0, r4, #9
    5414:	07d2      	lsls	r2, r2, #31
    5416:	4318      	orrs	r0, r3
    5418:	4310      	orrs	r0, r2
    541a:	bd70      	pop	{r4, r5, r6, pc}
    541c:	2b99      	cmp	r3, #153	; 0x99
    541e:	dc19      	bgt.n	5454 <__aeabi_i2f+0x70>
    5420:	2299      	movs	r2, #153	; 0x99
    5422:	1ad2      	subs	r2, r2, r3
    5424:	2a00      	cmp	r2, #0
    5426:	dd29      	ble.n	547c <__aeabi_i2f+0x98>
    5428:	4094      	lsls	r4, r2
    542a:	0022      	movs	r2, r4
    542c:	4c14      	ldr	r4, [pc, #80]	; (5480 <__aeabi_i2f+0x9c>)
    542e:	4014      	ands	r4, r2
    5430:	0751      	lsls	r1, r2, #29
    5432:	d004      	beq.n	543e <__aeabi_i2f+0x5a>
    5434:	210f      	movs	r1, #15
    5436:	400a      	ands	r2, r1
    5438:	2a04      	cmp	r2, #4
    543a:	d000      	beq.n	543e <__aeabi_i2f+0x5a>
    543c:	3404      	adds	r4, #4
    543e:	0162      	lsls	r2, r4, #5
    5440:	d413      	bmi.n	546a <__aeabi_i2f+0x86>
    5442:	01a4      	lsls	r4, r4, #6
    5444:	0a64      	lsrs	r4, r4, #9
    5446:	b2db      	uxtb	r3, r3
    5448:	002a      	movs	r2, r5
    544a:	e7e0      	b.n	540e <__aeabi_i2f+0x2a>
    544c:	2200      	movs	r2, #0
    544e:	2300      	movs	r3, #0
    5450:	2400      	movs	r4, #0
    5452:	e7dc      	b.n	540e <__aeabi_i2f+0x2a>
    5454:	2205      	movs	r2, #5
    5456:	0021      	movs	r1, r4
    5458:	1a12      	subs	r2, r2, r0
    545a:	40d1      	lsrs	r1, r2
    545c:	22b9      	movs	r2, #185	; 0xb9
    545e:	1ad2      	subs	r2, r2, r3
    5460:	4094      	lsls	r4, r2
    5462:	1e62      	subs	r2, r4, #1
    5464:	4194      	sbcs	r4, r2
    5466:	430c      	orrs	r4, r1
    5468:	e7da      	b.n	5420 <__aeabi_i2f+0x3c>
    546a:	4b05      	ldr	r3, [pc, #20]	; (5480 <__aeabi_i2f+0x9c>)
    546c:	002a      	movs	r2, r5
    546e:	401c      	ands	r4, r3
    5470:	239f      	movs	r3, #159	; 0x9f
    5472:	01a4      	lsls	r4, r4, #6
    5474:	1a1b      	subs	r3, r3, r0
    5476:	0a64      	lsrs	r4, r4, #9
    5478:	b2db      	uxtb	r3, r3
    547a:	e7c8      	b.n	540e <__aeabi_i2f+0x2a>
    547c:	0022      	movs	r2, r4
    547e:	e7d5      	b.n	542c <__aeabi_i2f+0x48>
    5480:	fbffffff 	.word	0xfbffffff

00005484 <__aeabi_ui2f>:
    5484:	b510      	push	{r4, lr}
    5486:	1e04      	subs	r4, r0, #0
    5488:	d027      	beq.n	54da <__aeabi_ui2f+0x56>
    548a:	f000 ff61 	bl	6350 <__clzsi2>
    548e:	239e      	movs	r3, #158	; 0x9e
    5490:	1a1b      	subs	r3, r3, r0
    5492:	2b96      	cmp	r3, #150	; 0x96
    5494:	dc0a      	bgt.n	54ac <__aeabi_ui2f+0x28>
    5496:	2296      	movs	r2, #150	; 0x96
    5498:	1ad2      	subs	r2, r2, r3
    549a:	4094      	lsls	r4, r2
    549c:	0264      	lsls	r4, r4, #9
    549e:	0a64      	lsrs	r4, r4, #9
    54a0:	b2db      	uxtb	r3, r3
    54a2:	0264      	lsls	r4, r4, #9
    54a4:	05db      	lsls	r3, r3, #23
    54a6:	0a60      	lsrs	r0, r4, #9
    54a8:	4318      	orrs	r0, r3
    54aa:	bd10      	pop	{r4, pc}
    54ac:	2b99      	cmp	r3, #153	; 0x99
    54ae:	dc17      	bgt.n	54e0 <__aeabi_ui2f+0x5c>
    54b0:	2299      	movs	r2, #153	; 0x99
    54b2:	1ad2      	subs	r2, r2, r3
    54b4:	2a00      	cmp	r2, #0
    54b6:	dd27      	ble.n	5508 <__aeabi_ui2f+0x84>
    54b8:	4094      	lsls	r4, r2
    54ba:	0022      	movs	r2, r4
    54bc:	4c13      	ldr	r4, [pc, #76]	; (550c <__aeabi_ui2f+0x88>)
    54be:	4014      	ands	r4, r2
    54c0:	0751      	lsls	r1, r2, #29
    54c2:	d004      	beq.n	54ce <__aeabi_ui2f+0x4a>
    54c4:	210f      	movs	r1, #15
    54c6:	400a      	ands	r2, r1
    54c8:	2a04      	cmp	r2, #4
    54ca:	d000      	beq.n	54ce <__aeabi_ui2f+0x4a>
    54cc:	3404      	adds	r4, #4
    54ce:	0162      	lsls	r2, r4, #5
    54d0:	d412      	bmi.n	54f8 <__aeabi_ui2f+0x74>
    54d2:	01a4      	lsls	r4, r4, #6
    54d4:	0a64      	lsrs	r4, r4, #9
    54d6:	b2db      	uxtb	r3, r3
    54d8:	e7e3      	b.n	54a2 <__aeabi_ui2f+0x1e>
    54da:	2300      	movs	r3, #0
    54dc:	2400      	movs	r4, #0
    54de:	e7e0      	b.n	54a2 <__aeabi_ui2f+0x1e>
    54e0:	22b9      	movs	r2, #185	; 0xb9
    54e2:	0021      	movs	r1, r4
    54e4:	1ad2      	subs	r2, r2, r3
    54e6:	4091      	lsls	r1, r2
    54e8:	000a      	movs	r2, r1
    54ea:	1e51      	subs	r1, r2, #1
    54ec:	418a      	sbcs	r2, r1
    54ee:	2105      	movs	r1, #5
    54f0:	1a09      	subs	r1, r1, r0
    54f2:	40cc      	lsrs	r4, r1
    54f4:	4314      	orrs	r4, r2
    54f6:	e7db      	b.n	54b0 <__aeabi_ui2f+0x2c>
    54f8:	4b04      	ldr	r3, [pc, #16]	; (550c <__aeabi_ui2f+0x88>)
    54fa:	401c      	ands	r4, r3
    54fc:	239f      	movs	r3, #159	; 0x9f
    54fe:	01a4      	lsls	r4, r4, #6
    5500:	1a1b      	subs	r3, r3, r0
    5502:	0a64      	lsrs	r4, r4, #9
    5504:	b2db      	uxtb	r3, r3
    5506:	e7cc      	b.n	54a2 <__aeabi_ui2f+0x1e>
    5508:	0022      	movs	r2, r4
    550a:	e7d7      	b.n	54bc <__aeabi_ui2f+0x38>
    550c:	fbffffff 	.word	0xfbffffff

00005510 <__eqdf2>:
    5510:	b5f0      	push	{r4, r5, r6, r7, lr}
    5512:	464f      	mov	r7, r9
    5514:	4646      	mov	r6, r8
    5516:	46d6      	mov	lr, sl
    5518:	005c      	lsls	r4, r3, #1
    551a:	b5c0      	push	{r6, r7, lr}
    551c:	031f      	lsls	r7, r3, #12
    551e:	0fdb      	lsrs	r3, r3, #31
    5520:	469a      	mov	sl, r3
    5522:	4b17      	ldr	r3, [pc, #92]	; (5580 <__eqdf2+0x70>)
    5524:	030e      	lsls	r6, r1, #12
    5526:	004d      	lsls	r5, r1, #1
    5528:	4684      	mov	ip, r0
    552a:	4680      	mov	r8, r0
    552c:	0b36      	lsrs	r6, r6, #12
    552e:	0d6d      	lsrs	r5, r5, #21
    5530:	0fc9      	lsrs	r1, r1, #31
    5532:	4691      	mov	r9, r2
    5534:	0b3f      	lsrs	r7, r7, #12
    5536:	0d64      	lsrs	r4, r4, #21
    5538:	2001      	movs	r0, #1
    553a:	429d      	cmp	r5, r3
    553c:	d008      	beq.n	5550 <__eqdf2+0x40>
    553e:	429c      	cmp	r4, r3
    5540:	d001      	beq.n	5546 <__eqdf2+0x36>
    5542:	42a5      	cmp	r5, r4
    5544:	d00b      	beq.n	555e <__eqdf2+0x4e>
    5546:	bc1c      	pop	{r2, r3, r4}
    5548:	4690      	mov	r8, r2
    554a:	4699      	mov	r9, r3
    554c:	46a2      	mov	sl, r4
    554e:	bdf0      	pop	{r4, r5, r6, r7, pc}
    5550:	4663      	mov	r3, ip
    5552:	4333      	orrs	r3, r6
    5554:	d1f7      	bne.n	5546 <__eqdf2+0x36>
    5556:	42ac      	cmp	r4, r5
    5558:	d1f5      	bne.n	5546 <__eqdf2+0x36>
    555a:	433a      	orrs	r2, r7
    555c:	d1f3      	bne.n	5546 <__eqdf2+0x36>
    555e:	2001      	movs	r0, #1
    5560:	42be      	cmp	r6, r7
    5562:	d1f0      	bne.n	5546 <__eqdf2+0x36>
    5564:	45c8      	cmp	r8, r9
    5566:	d1ee      	bne.n	5546 <__eqdf2+0x36>
    5568:	4551      	cmp	r1, sl
    556a:	d007      	beq.n	557c <__eqdf2+0x6c>
    556c:	2d00      	cmp	r5, #0
    556e:	d1ea      	bne.n	5546 <__eqdf2+0x36>
    5570:	4663      	mov	r3, ip
    5572:	431e      	orrs	r6, r3
    5574:	0030      	movs	r0, r6
    5576:	1e46      	subs	r6, r0, #1
    5578:	41b0      	sbcs	r0, r6
    557a:	e7e4      	b.n	5546 <__eqdf2+0x36>
    557c:	2000      	movs	r0, #0
    557e:	e7e2      	b.n	5546 <__eqdf2+0x36>
    5580:	000007ff 	.word	0x000007ff

00005584 <__gedf2>:
    5584:	b5f0      	push	{r4, r5, r6, r7, lr}
    5586:	4645      	mov	r5, r8
    5588:	46de      	mov	lr, fp
    558a:	4657      	mov	r7, sl
    558c:	464e      	mov	r6, r9
    558e:	b5e0      	push	{r5, r6, r7, lr}
    5590:	031f      	lsls	r7, r3, #12
    5592:	0b3d      	lsrs	r5, r7, #12
    5594:	4f2c      	ldr	r7, [pc, #176]	; (5648 <__gedf2+0xc4>)
    5596:	030e      	lsls	r6, r1, #12
    5598:	004c      	lsls	r4, r1, #1
    559a:	46ab      	mov	fp, r5
    559c:	005d      	lsls	r5, r3, #1
    559e:	4684      	mov	ip, r0
    55a0:	0b36      	lsrs	r6, r6, #12
    55a2:	0d64      	lsrs	r4, r4, #21
    55a4:	0fc9      	lsrs	r1, r1, #31
    55a6:	4690      	mov	r8, r2
    55a8:	0d6d      	lsrs	r5, r5, #21
    55aa:	0fdb      	lsrs	r3, r3, #31
    55ac:	42bc      	cmp	r4, r7
    55ae:	d02a      	beq.n	5606 <__gedf2+0x82>
    55b0:	4f25      	ldr	r7, [pc, #148]	; (5648 <__gedf2+0xc4>)
    55b2:	42bd      	cmp	r5, r7
    55b4:	d02d      	beq.n	5612 <__gedf2+0x8e>
    55b6:	2c00      	cmp	r4, #0
    55b8:	d10f      	bne.n	55da <__gedf2+0x56>
    55ba:	4330      	orrs	r0, r6
    55bc:	0007      	movs	r7, r0
    55be:	4681      	mov	r9, r0
    55c0:	4278      	negs	r0, r7
    55c2:	4178      	adcs	r0, r7
    55c4:	b2c0      	uxtb	r0, r0
    55c6:	2d00      	cmp	r5, #0
    55c8:	d117      	bne.n	55fa <__gedf2+0x76>
    55ca:	465f      	mov	r7, fp
    55cc:	433a      	orrs	r2, r7
    55ce:	d114      	bne.n	55fa <__gedf2+0x76>
    55d0:	464b      	mov	r3, r9
    55d2:	2000      	movs	r0, #0
    55d4:	2b00      	cmp	r3, #0
    55d6:	d00a      	beq.n	55ee <__gedf2+0x6a>
    55d8:	e006      	b.n	55e8 <__gedf2+0x64>
    55da:	2d00      	cmp	r5, #0
    55dc:	d102      	bne.n	55e4 <__gedf2+0x60>
    55de:	4658      	mov	r0, fp
    55e0:	4302      	orrs	r2, r0
    55e2:	d001      	beq.n	55e8 <__gedf2+0x64>
    55e4:	4299      	cmp	r1, r3
    55e6:	d018      	beq.n	561a <__gedf2+0x96>
    55e8:	4248      	negs	r0, r1
    55ea:	2101      	movs	r1, #1
    55ec:	4308      	orrs	r0, r1
    55ee:	bc3c      	pop	{r2, r3, r4, r5}
    55f0:	4690      	mov	r8, r2
    55f2:	4699      	mov	r9, r3
    55f4:	46a2      	mov	sl, r4
    55f6:	46ab      	mov	fp, r5
    55f8:	bdf0      	pop	{r4, r5, r6, r7, pc}
    55fa:	2800      	cmp	r0, #0
    55fc:	d0f2      	beq.n	55e4 <__gedf2+0x60>
    55fe:	2001      	movs	r0, #1
    5600:	3b01      	subs	r3, #1
    5602:	4318      	orrs	r0, r3
    5604:	e7f3      	b.n	55ee <__gedf2+0x6a>
    5606:	0037      	movs	r7, r6
    5608:	4307      	orrs	r7, r0
    560a:	d0d1      	beq.n	55b0 <__gedf2+0x2c>
    560c:	2002      	movs	r0, #2
    560e:	4240      	negs	r0, r0
    5610:	e7ed      	b.n	55ee <__gedf2+0x6a>
    5612:	465f      	mov	r7, fp
    5614:	4317      	orrs	r7, r2
    5616:	d0ce      	beq.n	55b6 <__gedf2+0x32>
    5618:	e7f8      	b.n	560c <__gedf2+0x88>
    561a:	42ac      	cmp	r4, r5
    561c:	dce4      	bgt.n	55e8 <__gedf2+0x64>
    561e:	da03      	bge.n	5628 <__gedf2+0xa4>
    5620:	1e48      	subs	r0, r1, #1
    5622:	2101      	movs	r1, #1
    5624:	4308      	orrs	r0, r1
    5626:	e7e2      	b.n	55ee <__gedf2+0x6a>
    5628:	455e      	cmp	r6, fp
    562a:	d8dd      	bhi.n	55e8 <__gedf2+0x64>
    562c:	d006      	beq.n	563c <__gedf2+0xb8>
    562e:	2000      	movs	r0, #0
    5630:	455e      	cmp	r6, fp
    5632:	d2dc      	bcs.n	55ee <__gedf2+0x6a>
    5634:	2301      	movs	r3, #1
    5636:	1e48      	subs	r0, r1, #1
    5638:	4318      	orrs	r0, r3
    563a:	e7d8      	b.n	55ee <__gedf2+0x6a>
    563c:	45c4      	cmp	ip, r8
    563e:	d8d3      	bhi.n	55e8 <__gedf2+0x64>
    5640:	2000      	movs	r0, #0
    5642:	45c4      	cmp	ip, r8
    5644:	d3f6      	bcc.n	5634 <__gedf2+0xb0>
    5646:	e7d2      	b.n	55ee <__gedf2+0x6a>
    5648:	000007ff 	.word	0x000007ff

0000564c <__ledf2>:
    564c:	b5f0      	push	{r4, r5, r6, r7, lr}
    564e:	464e      	mov	r6, r9
    5650:	4645      	mov	r5, r8
    5652:	46de      	mov	lr, fp
    5654:	4657      	mov	r7, sl
    5656:	005c      	lsls	r4, r3, #1
    5658:	b5e0      	push	{r5, r6, r7, lr}
    565a:	031f      	lsls	r7, r3, #12
    565c:	0fdb      	lsrs	r3, r3, #31
    565e:	4699      	mov	r9, r3
    5660:	4b2a      	ldr	r3, [pc, #168]	; (570c <__ledf2+0xc0>)
    5662:	030e      	lsls	r6, r1, #12
    5664:	004d      	lsls	r5, r1, #1
    5666:	0fc9      	lsrs	r1, r1, #31
    5668:	4684      	mov	ip, r0
    566a:	0b36      	lsrs	r6, r6, #12
    566c:	0d6d      	lsrs	r5, r5, #21
    566e:	468b      	mov	fp, r1
    5670:	4690      	mov	r8, r2
    5672:	0b3f      	lsrs	r7, r7, #12
    5674:	0d64      	lsrs	r4, r4, #21
    5676:	429d      	cmp	r5, r3
    5678:	d020      	beq.n	56bc <__ledf2+0x70>
    567a:	4b24      	ldr	r3, [pc, #144]	; (570c <__ledf2+0xc0>)
    567c:	429c      	cmp	r4, r3
    567e:	d022      	beq.n	56c6 <__ledf2+0x7a>
    5680:	2d00      	cmp	r5, #0
    5682:	d112      	bne.n	56aa <__ledf2+0x5e>
    5684:	4330      	orrs	r0, r6
    5686:	4243      	negs	r3, r0
    5688:	4143      	adcs	r3, r0
    568a:	b2db      	uxtb	r3, r3
    568c:	2c00      	cmp	r4, #0
    568e:	d01f      	beq.n	56d0 <__ledf2+0x84>
    5690:	2b00      	cmp	r3, #0
    5692:	d00c      	beq.n	56ae <__ledf2+0x62>
    5694:	464b      	mov	r3, r9
    5696:	2001      	movs	r0, #1
    5698:	3b01      	subs	r3, #1
    569a:	4303      	orrs	r3, r0
    569c:	0018      	movs	r0, r3
    569e:	bc3c      	pop	{r2, r3, r4, r5}
    56a0:	4690      	mov	r8, r2
    56a2:	4699      	mov	r9, r3
    56a4:	46a2      	mov	sl, r4
    56a6:	46ab      	mov	fp, r5
    56a8:	bdf0      	pop	{r4, r5, r6, r7, pc}
    56aa:	2c00      	cmp	r4, #0
    56ac:	d016      	beq.n	56dc <__ledf2+0x90>
    56ae:	45cb      	cmp	fp, r9
    56b0:	d017      	beq.n	56e2 <__ledf2+0x96>
    56b2:	465b      	mov	r3, fp
    56b4:	4259      	negs	r1, r3
    56b6:	2301      	movs	r3, #1
    56b8:	430b      	orrs	r3, r1
    56ba:	e7ef      	b.n	569c <__ledf2+0x50>
    56bc:	0031      	movs	r1, r6
    56be:	2302      	movs	r3, #2
    56c0:	4301      	orrs	r1, r0
    56c2:	d1eb      	bne.n	569c <__ledf2+0x50>
    56c4:	e7d9      	b.n	567a <__ledf2+0x2e>
    56c6:	0039      	movs	r1, r7
    56c8:	2302      	movs	r3, #2
    56ca:	4311      	orrs	r1, r2
    56cc:	d1e6      	bne.n	569c <__ledf2+0x50>
    56ce:	e7d7      	b.n	5680 <__ledf2+0x34>
    56d0:	433a      	orrs	r2, r7
    56d2:	d1dd      	bne.n	5690 <__ledf2+0x44>
    56d4:	2300      	movs	r3, #0
    56d6:	2800      	cmp	r0, #0
    56d8:	d0e0      	beq.n	569c <__ledf2+0x50>
    56da:	e7ea      	b.n	56b2 <__ledf2+0x66>
    56dc:	433a      	orrs	r2, r7
    56de:	d1e6      	bne.n	56ae <__ledf2+0x62>
    56e0:	e7e7      	b.n	56b2 <__ledf2+0x66>
    56e2:	42a5      	cmp	r5, r4
    56e4:	dce5      	bgt.n	56b2 <__ledf2+0x66>
    56e6:	db05      	blt.n	56f4 <__ledf2+0xa8>
    56e8:	42be      	cmp	r6, r7
    56ea:	d8e2      	bhi.n	56b2 <__ledf2+0x66>
    56ec:	d007      	beq.n	56fe <__ledf2+0xb2>
    56ee:	2300      	movs	r3, #0
    56f0:	42be      	cmp	r6, r7
    56f2:	d2d3      	bcs.n	569c <__ledf2+0x50>
    56f4:	4659      	mov	r1, fp
    56f6:	2301      	movs	r3, #1
    56f8:	3901      	subs	r1, #1
    56fa:	430b      	orrs	r3, r1
    56fc:	e7ce      	b.n	569c <__ledf2+0x50>
    56fe:	45c4      	cmp	ip, r8
    5700:	d8d7      	bhi.n	56b2 <__ledf2+0x66>
    5702:	2300      	movs	r3, #0
    5704:	45c4      	cmp	ip, r8
    5706:	d3f5      	bcc.n	56f4 <__ledf2+0xa8>
    5708:	e7c8      	b.n	569c <__ledf2+0x50>
    570a:	46c0      	nop			; (mov r8, r8)
    570c:	000007ff 	.word	0x000007ff

00005710 <__aeabi_dmul>:
    5710:	b5f0      	push	{r4, r5, r6, r7, lr}
    5712:	4657      	mov	r7, sl
    5714:	4645      	mov	r5, r8
    5716:	46de      	mov	lr, fp
    5718:	464e      	mov	r6, r9
    571a:	b5e0      	push	{r5, r6, r7, lr}
    571c:	030c      	lsls	r4, r1, #12
    571e:	4698      	mov	r8, r3
    5720:	004e      	lsls	r6, r1, #1
    5722:	0b23      	lsrs	r3, r4, #12
    5724:	b087      	sub	sp, #28
    5726:	0007      	movs	r7, r0
    5728:	4692      	mov	sl, r2
    572a:	469b      	mov	fp, r3
    572c:	0d76      	lsrs	r6, r6, #21
    572e:	0fcd      	lsrs	r5, r1, #31
    5730:	2e00      	cmp	r6, #0
    5732:	d06b      	beq.n	580c <__aeabi_dmul+0xfc>
    5734:	4b6d      	ldr	r3, [pc, #436]	; (58ec <__aeabi_dmul+0x1dc>)
    5736:	429e      	cmp	r6, r3
    5738:	d035      	beq.n	57a6 <__aeabi_dmul+0x96>
    573a:	2480      	movs	r4, #128	; 0x80
    573c:	465b      	mov	r3, fp
    573e:	0f42      	lsrs	r2, r0, #29
    5740:	0424      	lsls	r4, r4, #16
    5742:	00db      	lsls	r3, r3, #3
    5744:	4314      	orrs	r4, r2
    5746:	431c      	orrs	r4, r3
    5748:	00c3      	lsls	r3, r0, #3
    574a:	4699      	mov	r9, r3
    574c:	4b68      	ldr	r3, [pc, #416]	; (58f0 <__aeabi_dmul+0x1e0>)
    574e:	46a3      	mov	fp, r4
    5750:	469c      	mov	ip, r3
    5752:	2300      	movs	r3, #0
    5754:	2700      	movs	r7, #0
    5756:	4466      	add	r6, ip
    5758:	9302      	str	r3, [sp, #8]
    575a:	4643      	mov	r3, r8
    575c:	031c      	lsls	r4, r3, #12
    575e:	005a      	lsls	r2, r3, #1
    5760:	0fdb      	lsrs	r3, r3, #31
    5762:	4650      	mov	r0, sl
    5764:	0b24      	lsrs	r4, r4, #12
    5766:	0d52      	lsrs	r2, r2, #21
    5768:	4698      	mov	r8, r3
    576a:	d100      	bne.n	576e <__aeabi_dmul+0x5e>
    576c:	e076      	b.n	585c <__aeabi_dmul+0x14c>
    576e:	4b5f      	ldr	r3, [pc, #380]	; (58ec <__aeabi_dmul+0x1dc>)
    5770:	429a      	cmp	r2, r3
    5772:	d06d      	beq.n	5850 <__aeabi_dmul+0x140>
    5774:	2380      	movs	r3, #128	; 0x80
    5776:	0f41      	lsrs	r1, r0, #29
    5778:	041b      	lsls	r3, r3, #16
    577a:	430b      	orrs	r3, r1
    577c:	495c      	ldr	r1, [pc, #368]	; (58f0 <__aeabi_dmul+0x1e0>)
    577e:	00e4      	lsls	r4, r4, #3
    5780:	468c      	mov	ip, r1
    5782:	431c      	orrs	r4, r3
    5784:	00c3      	lsls	r3, r0, #3
    5786:	2000      	movs	r0, #0
    5788:	4462      	add	r2, ip
    578a:	4641      	mov	r1, r8
    578c:	18b6      	adds	r6, r6, r2
    578e:	4069      	eors	r1, r5
    5790:	1c72      	adds	r2, r6, #1
    5792:	9101      	str	r1, [sp, #4]
    5794:	4694      	mov	ip, r2
    5796:	4307      	orrs	r7, r0
    5798:	2f0f      	cmp	r7, #15
    579a:	d900      	bls.n	579e <__aeabi_dmul+0x8e>
    579c:	e0b0      	b.n	5900 <__aeabi_dmul+0x1f0>
    579e:	4a55      	ldr	r2, [pc, #340]	; (58f4 <__aeabi_dmul+0x1e4>)
    57a0:	00bf      	lsls	r7, r7, #2
    57a2:	59d2      	ldr	r2, [r2, r7]
    57a4:	4697      	mov	pc, r2
    57a6:	465b      	mov	r3, fp
    57a8:	4303      	orrs	r3, r0
    57aa:	4699      	mov	r9, r3
    57ac:	d000      	beq.n	57b0 <__aeabi_dmul+0xa0>
    57ae:	e087      	b.n	58c0 <__aeabi_dmul+0x1b0>
    57b0:	2300      	movs	r3, #0
    57b2:	469b      	mov	fp, r3
    57b4:	3302      	adds	r3, #2
    57b6:	2708      	movs	r7, #8
    57b8:	9302      	str	r3, [sp, #8]
    57ba:	e7ce      	b.n	575a <__aeabi_dmul+0x4a>
    57bc:	4642      	mov	r2, r8
    57be:	9201      	str	r2, [sp, #4]
    57c0:	2802      	cmp	r0, #2
    57c2:	d067      	beq.n	5894 <__aeabi_dmul+0x184>
    57c4:	2803      	cmp	r0, #3
    57c6:	d100      	bne.n	57ca <__aeabi_dmul+0xba>
    57c8:	e20e      	b.n	5be8 <__aeabi_dmul+0x4d8>
    57ca:	2801      	cmp	r0, #1
    57cc:	d000      	beq.n	57d0 <__aeabi_dmul+0xc0>
    57ce:	e162      	b.n	5a96 <__aeabi_dmul+0x386>
    57d0:	2300      	movs	r3, #0
    57d2:	2400      	movs	r4, #0
    57d4:	2200      	movs	r2, #0
    57d6:	4699      	mov	r9, r3
    57d8:	9901      	ldr	r1, [sp, #4]
    57da:	4001      	ands	r1, r0
    57dc:	b2cd      	uxtb	r5, r1
    57de:	2100      	movs	r1, #0
    57e0:	0312      	lsls	r2, r2, #12
    57e2:	0d0b      	lsrs	r3, r1, #20
    57e4:	0b12      	lsrs	r2, r2, #12
    57e6:	051b      	lsls	r3, r3, #20
    57e8:	4313      	orrs	r3, r2
    57ea:	4a43      	ldr	r2, [pc, #268]	; (58f8 <__aeabi_dmul+0x1e8>)
    57ec:	0524      	lsls	r4, r4, #20
    57ee:	4013      	ands	r3, r2
    57f0:	431c      	orrs	r4, r3
    57f2:	0064      	lsls	r4, r4, #1
    57f4:	07ed      	lsls	r5, r5, #31
    57f6:	0864      	lsrs	r4, r4, #1
    57f8:	432c      	orrs	r4, r5
    57fa:	4648      	mov	r0, r9
    57fc:	0021      	movs	r1, r4
    57fe:	b007      	add	sp, #28
    5800:	bc3c      	pop	{r2, r3, r4, r5}
    5802:	4690      	mov	r8, r2
    5804:	4699      	mov	r9, r3
    5806:	46a2      	mov	sl, r4
    5808:	46ab      	mov	fp, r5
    580a:	bdf0      	pop	{r4, r5, r6, r7, pc}
    580c:	4303      	orrs	r3, r0
    580e:	4699      	mov	r9, r3
    5810:	d04f      	beq.n	58b2 <__aeabi_dmul+0x1a2>
    5812:	465b      	mov	r3, fp
    5814:	2b00      	cmp	r3, #0
    5816:	d100      	bne.n	581a <__aeabi_dmul+0x10a>
    5818:	e189      	b.n	5b2e <__aeabi_dmul+0x41e>
    581a:	4658      	mov	r0, fp
    581c:	f000 fd98 	bl	6350 <__clzsi2>
    5820:	0003      	movs	r3, r0
    5822:	3b0b      	subs	r3, #11
    5824:	2b1c      	cmp	r3, #28
    5826:	dd00      	ble.n	582a <__aeabi_dmul+0x11a>
    5828:	e17a      	b.n	5b20 <__aeabi_dmul+0x410>
    582a:	221d      	movs	r2, #29
    582c:	1ad3      	subs	r3, r2, r3
    582e:	003a      	movs	r2, r7
    5830:	0001      	movs	r1, r0
    5832:	465c      	mov	r4, fp
    5834:	40da      	lsrs	r2, r3
    5836:	3908      	subs	r1, #8
    5838:	408c      	lsls	r4, r1
    583a:	0013      	movs	r3, r2
    583c:	408f      	lsls	r7, r1
    583e:	4323      	orrs	r3, r4
    5840:	469b      	mov	fp, r3
    5842:	46b9      	mov	r9, r7
    5844:	2300      	movs	r3, #0
    5846:	4e2d      	ldr	r6, [pc, #180]	; (58fc <__aeabi_dmul+0x1ec>)
    5848:	2700      	movs	r7, #0
    584a:	1a36      	subs	r6, r6, r0
    584c:	9302      	str	r3, [sp, #8]
    584e:	e784      	b.n	575a <__aeabi_dmul+0x4a>
    5850:	4653      	mov	r3, sl
    5852:	4323      	orrs	r3, r4
    5854:	d12a      	bne.n	58ac <__aeabi_dmul+0x19c>
    5856:	2400      	movs	r4, #0
    5858:	2002      	movs	r0, #2
    585a:	e796      	b.n	578a <__aeabi_dmul+0x7a>
    585c:	4653      	mov	r3, sl
    585e:	4323      	orrs	r3, r4
    5860:	d020      	beq.n	58a4 <__aeabi_dmul+0x194>
    5862:	2c00      	cmp	r4, #0
    5864:	d100      	bne.n	5868 <__aeabi_dmul+0x158>
    5866:	e157      	b.n	5b18 <__aeabi_dmul+0x408>
    5868:	0020      	movs	r0, r4
    586a:	f000 fd71 	bl	6350 <__clzsi2>
    586e:	0003      	movs	r3, r0
    5870:	3b0b      	subs	r3, #11
    5872:	2b1c      	cmp	r3, #28
    5874:	dd00      	ble.n	5878 <__aeabi_dmul+0x168>
    5876:	e149      	b.n	5b0c <__aeabi_dmul+0x3fc>
    5878:	211d      	movs	r1, #29
    587a:	1acb      	subs	r3, r1, r3
    587c:	4651      	mov	r1, sl
    587e:	0002      	movs	r2, r0
    5880:	40d9      	lsrs	r1, r3
    5882:	4653      	mov	r3, sl
    5884:	3a08      	subs	r2, #8
    5886:	4094      	lsls	r4, r2
    5888:	4093      	lsls	r3, r2
    588a:	430c      	orrs	r4, r1
    588c:	4a1b      	ldr	r2, [pc, #108]	; (58fc <__aeabi_dmul+0x1ec>)
    588e:	1a12      	subs	r2, r2, r0
    5890:	2000      	movs	r0, #0
    5892:	e77a      	b.n	578a <__aeabi_dmul+0x7a>
    5894:	2501      	movs	r5, #1
    5896:	9b01      	ldr	r3, [sp, #4]
    5898:	4c14      	ldr	r4, [pc, #80]	; (58ec <__aeabi_dmul+0x1dc>)
    589a:	401d      	ands	r5, r3
    589c:	2300      	movs	r3, #0
    589e:	2200      	movs	r2, #0
    58a0:	4699      	mov	r9, r3
    58a2:	e79c      	b.n	57de <__aeabi_dmul+0xce>
    58a4:	2400      	movs	r4, #0
    58a6:	2200      	movs	r2, #0
    58a8:	2001      	movs	r0, #1
    58aa:	e76e      	b.n	578a <__aeabi_dmul+0x7a>
    58ac:	4653      	mov	r3, sl
    58ae:	2003      	movs	r0, #3
    58b0:	e76b      	b.n	578a <__aeabi_dmul+0x7a>
    58b2:	2300      	movs	r3, #0
    58b4:	469b      	mov	fp, r3
    58b6:	3301      	adds	r3, #1
    58b8:	2704      	movs	r7, #4
    58ba:	2600      	movs	r6, #0
    58bc:	9302      	str	r3, [sp, #8]
    58be:	e74c      	b.n	575a <__aeabi_dmul+0x4a>
    58c0:	2303      	movs	r3, #3
    58c2:	4681      	mov	r9, r0
    58c4:	270c      	movs	r7, #12
    58c6:	9302      	str	r3, [sp, #8]
    58c8:	e747      	b.n	575a <__aeabi_dmul+0x4a>
    58ca:	2280      	movs	r2, #128	; 0x80
    58cc:	2300      	movs	r3, #0
    58ce:	2500      	movs	r5, #0
    58d0:	0312      	lsls	r2, r2, #12
    58d2:	4699      	mov	r9, r3
    58d4:	4c05      	ldr	r4, [pc, #20]	; (58ec <__aeabi_dmul+0x1dc>)
    58d6:	e782      	b.n	57de <__aeabi_dmul+0xce>
    58d8:	465c      	mov	r4, fp
    58da:	464b      	mov	r3, r9
    58dc:	9802      	ldr	r0, [sp, #8]
    58de:	e76f      	b.n	57c0 <__aeabi_dmul+0xb0>
    58e0:	465c      	mov	r4, fp
    58e2:	464b      	mov	r3, r9
    58e4:	9501      	str	r5, [sp, #4]
    58e6:	9802      	ldr	r0, [sp, #8]
    58e8:	e76a      	b.n	57c0 <__aeabi_dmul+0xb0>
    58ea:	46c0      	nop			; (mov r8, r8)
    58ec:	000007ff 	.word	0x000007ff
    58f0:	fffffc01 	.word	0xfffffc01
    58f4:	0000cfd4 	.word	0x0000cfd4
    58f8:	800fffff 	.word	0x800fffff
    58fc:	fffffc0d 	.word	0xfffffc0d
    5900:	464a      	mov	r2, r9
    5902:	4649      	mov	r1, r9
    5904:	0c17      	lsrs	r7, r2, #16
    5906:	0c1a      	lsrs	r2, r3, #16
    5908:	041b      	lsls	r3, r3, #16
    590a:	0c1b      	lsrs	r3, r3, #16
    590c:	0408      	lsls	r0, r1, #16
    590e:	0019      	movs	r1, r3
    5910:	0c00      	lsrs	r0, r0, #16
    5912:	4341      	muls	r1, r0
    5914:	0015      	movs	r5, r2
    5916:	4688      	mov	r8, r1
    5918:	0019      	movs	r1, r3
    591a:	437d      	muls	r5, r7
    591c:	4379      	muls	r1, r7
    591e:	9503      	str	r5, [sp, #12]
    5920:	4689      	mov	r9, r1
    5922:	0029      	movs	r1, r5
    5924:	0015      	movs	r5, r2
    5926:	4345      	muls	r5, r0
    5928:	444d      	add	r5, r9
    592a:	9502      	str	r5, [sp, #8]
    592c:	4645      	mov	r5, r8
    592e:	0c2d      	lsrs	r5, r5, #16
    5930:	46aa      	mov	sl, r5
    5932:	9d02      	ldr	r5, [sp, #8]
    5934:	4455      	add	r5, sl
    5936:	45a9      	cmp	r9, r5
    5938:	d906      	bls.n	5948 <__aeabi_dmul+0x238>
    593a:	468a      	mov	sl, r1
    593c:	2180      	movs	r1, #128	; 0x80
    593e:	0249      	lsls	r1, r1, #9
    5940:	4689      	mov	r9, r1
    5942:	44ca      	add	sl, r9
    5944:	4651      	mov	r1, sl
    5946:	9103      	str	r1, [sp, #12]
    5948:	0c29      	lsrs	r1, r5, #16
    594a:	9104      	str	r1, [sp, #16]
    594c:	4641      	mov	r1, r8
    594e:	0409      	lsls	r1, r1, #16
    5950:	042d      	lsls	r5, r5, #16
    5952:	0c09      	lsrs	r1, r1, #16
    5954:	4688      	mov	r8, r1
    5956:	0029      	movs	r1, r5
    5958:	0c25      	lsrs	r5, r4, #16
    595a:	0424      	lsls	r4, r4, #16
    595c:	4441      	add	r1, r8
    595e:	0c24      	lsrs	r4, r4, #16
    5960:	9105      	str	r1, [sp, #20]
    5962:	0021      	movs	r1, r4
    5964:	4341      	muls	r1, r0
    5966:	4688      	mov	r8, r1
    5968:	0021      	movs	r1, r4
    596a:	4379      	muls	r1, r7
    596c:	468a      	mov	sl, r1
    596e:	4368      	muls	r0, r5
    5970:	4641      	mov	r1, r8
    5972:	4450      	add	r0, sl
    5974:	4681      	mov	r9, r0
    5976:	0c08      	lsrs	r0, r1, #16
    5978:	4448      	add	r0, r9
    597a:	436f      	muls	r7, r5
    597c:	4582      	cmp	sl, r0
    597e:	d903      	bls.n	5988 <__aeabi_dmul+0x278>
    5980:	2180      	movs	r1, #128	; 0x80
    5982:	0249      	lsls	r1, r1, #9
    5984:	4689      	mov	r9, r1
    5986:	444f      	add	r7, r9
    5988:	0c01      	lsrs	r1, r0, #16
    598a:	4689      	mov	r9, r1
    598c:	0039      	movs	r1, r7
    598e:	4449      	add	r1, r9
    5990:	9102      	str	r1, [sp, #8]
    5992:	4641      	mov	r1, r8
    5994:	040f      	lsls	r7, r1, #16
    5996:	9904      	ldr	r1, [sp, #16]
    5998:	0c3f      	lsrs	r7, r7, #16
    599a:	4688      	mov	r8, r1
    599c:	0400      	lsls	r0, r0, #16
    599e:	19c0      	adds	r0, r0, r7
    59a0:	4480      	add	r8, r0
    59a2:	4641      	mov	r1, r8
    59a4:	9104      	str	r1, [sp, #16]
    59a6:	4659      	mov	r1, fp
    59a8:	0c0f      	lsrs	r7, r1, #16
    59aa:	0409      	lsls	r1, r1, #16
    59ac:	0c09      	lsrs	r1, r1, #16
    59ae:	4688      	mov	r8, r1
    59b0:	4359      	muls	r1, r3
    59b2:	468a      	mov	sl, r1
    59b4:	0039      	movs	r1, r7
    59b6:	4351      	muls	r1, r2
    59b8:	4689      	mov	r9, r1
    59ba:	4641      	mov	r1, r8
    59bc:	434a      	muls	r2, r1
    59be:	4651      	mov	r1, sl
    59c0:	0c09      	lsrs	r1, r1, #16
    59c2:	468b      	mov	fp, r1
    59c4:	437b      	muls	r3, r7
    59c6:	18d2      	adds	r2, r2, r3
    59c8:	445a      	add	r2, fp
    59ca:	4293      	cmp	r3, r2
    59cc:	d903      	bls.n	59d6 <__aeabi_dmul+0x2c6>
    59ce:	2380      	movs	r3, #128	; 0x80
    59d0:	025b      	lsls	r3, r3, #9
    59d2:	469b      	mov	fp, r3
    59d4:	44d9      	add	r9, fp
    59d6:	4651      	mov	r1, sl
    59d8:	0409      	lsls	r1, r1, #16
    59da:	0c09      	lsrs	r1, r1, #16
    59dc:	468a      	mov	sl, r1
    59de:	4641      	mov	r1, r8
    59e0:	4361      	muls	r1, r4
    59e2:	437c      	muls	r4, r7
    59e4:	0c13      	lsrs	r3, r2, #16
    59e6:	0412      	lsls	r2, r2, #16
    59e8:	444b      	add	r3, r9
    59ea:	4452      	add	r2, sl
    59ec:	46a1      	mov	r9, r4
    59ee:	468a      	mov	sl, r1
    59f0:	003c      	movs	r4, r7
    59f2:	4641      	mov	r1, r8
    59f4:	436c      	muls	r4, r5
    59f6:	434d      	muls	r5, r1
    59f8:	4651      	mov	r1, sl
    59fa:	444d      	add	r5, r9
    59fc:	0c0f      	lsrs	r7, r1, #16
    59fe:	197d      	adds	r5, r7, r5
    5a00:	45a9      	cmp	r9, r5
    5a02:	d903      	bls.n	5a0c <__aeabi_dmul+0x2fc>
    5a04:	2180      	movs	r1, #128	; 0x80
    5a06:	0249      	lsls	r1, r1, #9
    5a08:	4688      	mov	r8, r1
    5a0a:	4444      	add	r4, r8
    5a0c:	9f04      	ldr	r7, [sp, #16]
    5a0e:	9903      	ldr	r1, [sp, #12]
    5a10:	46b8      	mov	r8, r7
    5a12:	4441      	add	r1, r8
    5a14:	468b      	mov	fp, r1
    5a16:	4583      	cmp	fp, r0
    5a18:	4180      	sbcs	r0, r0
    5a1a:	4241      	negs	r1, r0
    5a1c:	4688      	mov	r8, r1
    5a1e:	4651      	mov	r1, sl
    5a20:	0408      	lsls	r0, r1, #16
    5a22:	042f      	lsls	r7, r5, #16
    5a24:	0c00      	lsrs	r0, r0, #16
    5a26:	183f      	adds	r7, r7, r0
    5a28:	4658      	mov	r0, fp
    5a2a:	9902      	ldr	r1, [sp, #8]
    5a2c:	1810      	adds	r0, r2, r0
    5a2e:	4689      	mov	r9, r1
    5a30:	4290      	cmp	r0, r2
    5a32:	4192      	sbcs	r2, r2
    5a34:	444f      	add	r7, r9
    5a36:	46ba      	mov	sl, r7
    5a38:	4252      	negs	r2, r2
    5a3a:	4699      	mov	r9, r3
    5a3c:	4693      	mov	fp, r2
    5a3e:	44c2      	add	sl, r8
    5a40:	44d1      	add	r9, sl
    5a42:	44cb      	add	fp, r9
    5a44:	428f      	cmp	r7, r1
    5a46:	41bf      	sbcs	r7, r7
    5a48:	45c2      	cmp	sl, r8
    5a4a:	4189      	sbcs	r1, r1
    5a4c:	4599      	cmp	r9, r3
    5a4e:	419b      	sbcs	r3, r3
    5a50:	4593      	cmp	fp, r2
    5a52:	4192      	sbcs	r2, r2
    5a54:	427f      	negs	r7, r7
    5a56:	4249      	negs	r1, r1
    5a58:	0c2d      	lsrs	r5, r5, #16
    5a5a:	4252      	negs	r2, r2
    5a5c:	430f      	orrs	r7, r1
    5a5e:	425b      	negs	r3, r3
    5a60:	4313      	orrs	r3, r2
    5a62:	197f      	adds	r7, r7, r5
    5a64:	18ff      	adds	r7, r7, r3
    5a66:	465b      	mov	r3, fp
    5a68:	193c      	adds	r4, r7, r4
    5a6a:	0ddb      	lsrs	r3, r3, #23
    5a6c:	9a05      	ldr	r2, [sp, #20]
    5a6e:	0264      	lsls	r4, r4, #9
    5a70:	431c      	orrs	r4, r3
    5a72:	0243      	lsls	r3, r0, #9
    5a74:	4313      	orrs	r3, r2
    5a76:	1e5d      	subs	r5, r3, #1
    5a78:	41ab      	sbcs	r3, r5
    5a7a:	465a      	mov	r2, fp
    5a7c:	0dc0      	lsrs	r0, r0, #23
    5a7e:	4303      	orrs	r3, r0
    5a80:	0252      	lsls	r2, r2, #9
    5a82:	4313      	orrs	r3, r2
    5a84:	01e2      	lsls	r2, r4, #7
    5a86:	d556      	bpl.n	5b36 <__aeabi_dmul+0x426>
    5a88:	2001      	movs	r0, #1
    5a8a:	085a      	lsrs	r2, r3, #1
    5a8c:	4003      	ands	r3, r0
    5a8e:	4313      	orrs	r3, r2
    5a90:	07e2      	lsls	r2, r4, #31
    5a92:	4313      	orrs	r3, r2
    5a94:	0864      	lsrs	r4, r4, #1
    5a96:	485a      	ldr	r0, [pc, #360]	; (5c00 <__aeabi_dmul+0x4f0>)
    5a98:	4460      	add	r0, ip
    5a9a:	2800      	cmp	r0, #0
    5a9c:	dd4d      	ble.n	5b3a <__aeabi_dmul+0x42a>
    5a9e:	075a      	lsls	r2, r3, #29
    5aa0:	d009      	beq.n	5ab6 <__aeabi_dmul+0x3a6>
    5aa2:	220f      	movs	r2, #15
    5aa4:	401a      	ands	r2, r3
    5aa6:	2a04      	cmp	r2, #4
    5aa8:	d005      	beq.n	5ab6 <__aeabi_dmul+0x3a6>
    5aaa:	1d1a      	adds	r2, r3, #4
    5aac:	429a      	cmp	r2, r3
    5aae:	419b      	sbcs	r3, r3
    5ab0:	425b      	negs	r3, r3
    5ab2:	18e4      	adds	r4, r4, r3
    5ab4:	0013      	movs	r3, r2
    5ab6:	01e2      	lsls	r2, r4, #7
    5ab8:	d504      	bpl.n	5ac4 <__aeabi_dmul+0x3b4>
    5aba:	2080      	movs	r0, #128	; 0x80
    5abc:	4a51      	ldr	r2, [pc, #324]	; (5c04 <__aeabi_dmul+0x4f4>)
    5abe:	00c0      	lsls	r0, r0, #3
    5ac0:	4014      	ands	r4, r2
    5ac2:	4460      	add	r0, ip
    5ac4:	4a50      	ldr	r2, [pc, #320]	; (5c08 <__aeabi_dmul+0x4f8>)
    5ac6:	4290      	cmp	r0, r2
    5ac8:	dd00      	ble.n	5acc <__aeabi_dmul+0x3bc>
    5aca:	e6e3      	b.n	5894 <__aeabi_dmul+0x184>
    5acc:	2501      	movs	r5, #1
    5ace:	08db      	lsrs	r3, r3, #3
    5ad0:	0762      	lsls	r2, r4, #29
    5ad2:	431a      	orrs	r2, r3
    5ad4:	0264      	lsls	r4, r4, #9
    5ad6:	9b01      	ldr	r3, [sp, #4]
    5ad8:	4691      	mov	r9, r2
    5ada:	0b22      	lsrs	r2, r4, #12
    5adc:	0544      	lsls	r4, r0, #21
    5ade:	0d64      	lsrs	r4, r4, #21
    5ae0:	401d      	ands	r5, r3
    5ae2:	e67c      	b.n	57de <__aeabi_dmul+0xce>
    5ae4:	2280      	movs	r2, #128	; 0x80
    5ae6:	4659      	mov	r1, fp
    5ae8:	0312      	lsls	r2, r2, #12
    5aea:	4211      	tst	r1, r2
    5aec:	d008      	beq.n	5b00 <__aeabi_dmul+0x3f0>
    5aee:	4214      	tst	r4, r2
    5af0:	d106      	bne.n	5b00 <__aeabi_dmul+0x3f0>
    5af2:	4322      	orrs	r2, r4
    5af4:	0312      	lsls	r2, r2, #12
    5af6:	0b12      	lsrs	r2, r2, #12
    5af8:	4645      	mov	r5, r8
    5afa:	4699      	mov	r9, r3
    5afc:	4c43      	ldr	r4, [pc, #268]	; (5c0c <__aeabi_dmul+0x4fc>)
    5afe:	e66e      	b.n	57de <__aeabi_dmul+0xce>
    5b00:	465b      	mov	r3, fp
    5b02:	431a      	orrs	r2, r3
    5b04:	0312      	lsls	r2, r2, #12
    5b06:	0b12      	lsrs	r2, r2, #12
    5b08:	4c40      	ldr	r4, [pc, #256]	; (5c0c <__aeabi_dmul+0x4fc>)
    5b0a:	e668      	b.n	57de <__aeabi_dmul+0xce>
    5b0c:	0003      	movs	r3, r0
    5b0e:	4654      	mov	r4, sl
    5b10:	3b28      	subs	r3, #40	; 0x28
    5b12:	409c      	lsls	r4, r3
    5b14:	2300      	movs	r3, #0
    5b16:	e6b9      	b.n	588c <__aeabi_dmul+0x17c>
    5b18:	f000 fc1a 	bl	6350 <__clzsi2>
    5b1c:	3020      	adds	r0, #32
    5b1e:	e6a6      	b.n	586e <__aeabi_dmul+0x15e>
    5b20:	0003      	movs	r3, r0
    5b22:	3b28      	subs	r3, #40	; 0x28
    5b24:	409f      	lsls	r7, r3
    5b26:	2300      	movs	r3, #0
    5b28:	46bb      	mov	fp, r7
    5b2a:	4699      	mov	r9, r3
    5b2c:	e68a      	b.n	5844 <__aeabi_dmul+0x134>
    5b2e:	f000 fc0f 	bl	6350 <__clzsi2>
    5b32:	3020      	adds	r0, #32
    5b34:	e674      	b.n	5820 <__aeabi_dmul+0x110>
    5b36:	46b4      	mov	ip, r6
    5b38:	e7ad      	b.n	5a96 <__aeabi_dmul+0x386>
    5b3a:	2501      	movs	r5, #1
    5b3c:	1a2a      	subs	r2, r5, r0
    5b3e:	2a38      	cmp	r2, #56	; 0x38
    5b40:	dd06      	ble.n	5b50 <__aeabi_dmul+0x440>
    5b42:	9b01      	ldr	r3, [sp, #4]
    5b44:	2400      	movs	r4, #0
    5b46:	401d      	ands	r5, r3
    5b48:	2300      	movs	r3, #0
    5b4a:	2200      	movs	r2, #0
    5b4c:	4699      	mov	r9, r3
    5b4e:	e646      	b.n	57de <__aeabi_dmul+0xce>
    5b50:	2a1f      	cmp	r2, #31
    5b52:	dc21      	bgt.n	5b98 <__aeabi_dmul+0x488>
    5b54:	2520      	movs	r5, #32
    5b56:	0020      	movs	r0, r4
    5b58:	1aad      	subs	r5, r5, r2
    5b5a:	001e      	movs	r6, r3
    5b5c:	40ab      	lsls	r3, r5
    5b5e:	40a8      	lsls	r0, r5
    5b60:	40d6      	lsrs	r6, r2
    5b62:	1e5d      	subs	r5, r3, #1
    5b64:	41ab      	sbcs	r3, r5
    5b66:	4330      	orrs	r0, r6
    5b68:	4318      	orrs	r0, r3
    5b6a:	40d4      	lsrs	r4, r2
    5b6c:	0743      	lsls	r3, r0, #29
    5b6e:	d009      	beq.n	5b84 <__aeabi_dmul+0x474>
    5b70:	230f      	movs	r3, #15
    5b72:	4003      	ands	r3, r0
    5b74:	2b04      	cmp	r3, #4
    5b76:	d005      	beq.n	5b84 <__aeabi_dmul+0x474>
    5b78:	0003      	movs	r3, r0
    5b7a:	1d18      	adds	r0, r3, #4
    5b7c:	4298      	cmp	r0, r3
    5b7e:	419b      	sbcs	r3, r3
    5b80:	425b      	negs	r3, r3
    5b82:	18e4      	adds	r4, r4, r3
    5b84:	0223      	lsls	r3, r4, #8
    5b86:	d521      	bpl.n	5bcc <__aeabi_dmul+0x4bc>
    5b88:	2501      	movs	r5, #1
    5b8a:	9b01      	ldr	r3, [sp, #4]
    5b8c:	2401      	movs	r4, #1
    5b8e:	401d      	ands	r5, r3
    5b90:	2300      	movs	r3, #0
    5b92:	2200      	movs	r2, #0
    5b94:	4699      	mov	r9, r3
    5b96:	e622      	b.n	57de <__aeabi_dmul+0xce>
    5b98:	251f      	movs	r5, #31
    5b9a:	0021      	movs	r1, r4
    5b9c:	426d      	negs	r5, r5
    5b9e:	1a28      	subs	r0, r5, r0
    5ba0:	40c1      	lsrs	r1, r0
    5ba2:	0008      	movs	r0, r1
    5ba4:	2a20      	cmp	r2, #32
    5ba6:	d01d      	beq.n	5be4 <__aeabi_dmul+0x4d4>
    5ba8:	355f      	adds	r5, #95	; 0x5f
    5baa:	1aaa      	subs	r2, r5, r2
    5bac:	4094      	lsls	r4, r2
    5bae:	4323      	orrs	r3, r4
    5bb0:	1e5c      	subs	r4, r3, #1
    5bb2:	41a3      	sbcs	r3, r4
    5bb4:	2507      	movs	r5, #7
    5bb6:	4303      	orrs	r3, r0
    5bb8:	401d      	ands	r5, r3
    5bba:	2200      	movs	r2, #0
    5bbc:	2d00      	cmp	r5, #0
    5bbe:	d009      	beq.n	5bd4 <__aeabi_dmul+0x4c4>
    5bc0:	220f      	movs	r2, #15
    5bc2:	2400      	movs	r4, #0
    5bc4:	401a      	ands	r2, r3
    5bc6:	0018      	movs	r0, r3
    5bc8:	2a04      	cmp	r2, #4
    5bca:	d1d6      	bne.n	5b7a <__aeabi_dmul+0x46a>
    5bcc:	0003      	movs	r3, r0
    5bce:	0765      	lsls	r5, r4, #29
    5bd0:	0264      	lsls	r4, r4, #9
    5bd2:	0b22      	lsrs	r2, r4, #12
    5bd4:	08db      	lsrs	r3, r3, #3
    5bd6:	432b      	orrs	r3, r5
    5bd8:	2501      	movs	r5, #1
    5bda:	4699      	mov	r9, r3
    5bdc:	9b01      	ldr	r3, [sp, #4]
    5bde:	2400      	movs	r4, #0
    5be0:	401d      	ands	r5, r3
    5be2:	e5fc      	b.n	57de <__aeabi_dmul+0xce>
    5be4:	2400      	movs	r4, #0
    5be6:	e7e2      	b.n	5bae <__aeabi_dmul+0x49e>
    5be8:	2280      	movs	r2, #128	; 0x80
    5bea:	2501      	movs	r5, #1
    5bec:	0312      	lsls	r2, r2, #12
    5bee:	4322      	orrs	r2, r4
    5bf0:	9901      	ldr	r1, [sp, #4]
    5bf2:	0312      	lsls	r2, r2, #12
    5bf4:	0b12      	lsrs	r2, r2, #12
    5bf6:	400d      	ands	r5, r1
    5bf8:	4699      	mov	r9, r3
    5bfa:	4c04      	ldr	r4, [pc, #16]	; (5c0c <__aeabi_dmul+0x4fc>)
    5bfc:	e5ef      	b.n	57de <__aeabi_dmul+0xce>
    5bfe:	46c0      	nop			; (mov r8, r8)
    5c00:	000003ff 	.word	0x000003ff
    5c04:	feffffff 	.word	0xfeffffff
    5c08:	000007fe 	.word	0x000007fe
    5c0c:	000007ff 	.word	0x000007ff

00005c10 <__aeabi_dsub>:
    5c10:	b5f0      	push	{r4, r5, r6, r7, lr}
    5c12:	4646      	mov	r6, r8
    5c14:	46d6      	mov	lr, sl
    5c16:	464f      	mov	r7, r9
    5c18:	030c      	lsls	r4, r1, #12
    5c1a:	b5c0      	push	{r6, r7, lr}
    5c1c:	0fcd      	lsrs	r5, r1, #31
    5c1e:	004e      	lsls	r6, r1, #1
    5c20:	0a61      	lsrs	r1, r4, #9
    5c22:	0f44      	lsrs	r4, r0, #29
    5c24:	430c      	orrs	r4, r1
    5c26:	00c1      	lsls	r1, r0, #3
    5c28:	0058      	lsls	r0, r3, #1
    5c2a:	0d40      	lsrs	r0, r0, #21
    5c2c:	4684      	mov	ip, r0
    5c2e:	468a      	mov	sl, r1
    5c30:	000f      	movs	r7, r1
    5c32:	0319      	lsls	r1, r3, #12
    5c34:	0f50      	lsrs	r0, r2, #29
    5c36:	0a49      	lsrs	r1, r1, #9
    5c38:	4301      	orrs	r1, r0
    5c3a:	48c6      	ldr	r0, [pc, #792]	; (5f54 <__aeabi_dsub+0x344>)
    5c3c:	0d76      	lsrs	r6, r6, #21
    5c3e:	46a8      	mov	r8, r5
    5c40:	0fdb      	lsrs	r3, r3, #31
    5c42:	00d2      	lsls	r2, r2, #3
    5c44:	4584      	cmp	ip, r0
    5c46:	d100      	bne.n	5c4a <__aeabi_dsub+0x3a>
    5c48:	e0d8      	b.n	5dfc <__aeabi_dsub+0x1ec>
    5c4a:	2001      	movs	r0, #1
    5c4c:	4043      	eors	r3, r0
    5c4e:	42ab      	cmp	r3, r5
    5c50:	d100      	bne.n	5c54 <__aeabi_dsub+0x44>
    5c52:	e0a6      	b.n	5da2 <__aeabi_dsub+0x192>
    5c54:	4660      	mov	r0, ip
    5c56:	1a35      	subs	r5, r6, r0
    5c58:	2d00      	cmp	r5, #0
    5c5a:	dc00      	bgt.n	5c5e <__aeabi_dsub+0x4e>
    5c5c:	e105      	b.n	5e6a <__aeabi_dsub+0x25a>
    5c5e:	2800      	cmp	r0, #0
    5c60:	d110      	bne.n	5c84 <__aeabi_dsub+0x74>
    5c62:	000b      	movs	r3, r1
    5c64:	4313      	orrs	r3, r2
    5c66:	d100      	bne.n	5c6a <__aeabi_dsub+0x5a>
    5c68:	e0d7      	b.n	5e1a <__aeabi_dsub+0x20a>
    5c6a:	1e6b      	subs	r3, r5, #1
    5c6c:	2b00      	cmp	r3, #0
    5c6e:	d000      	beq.n	5c72 <__aeabi_dsub+0x62>
    5c70:	e14b      	b.n	5f0a <__aeabi_dsub+0x2fa>
    5c72:	4653      	mov	r3, sl
    5c74:	1a9f      	subs	r7, r3, r2
    5c76:	45ba      	cmp	sl, r7
    5c78:	4180      	sbcs	r0, r0
    5c7a:	1a64      	subs	r4, r4, r1
    5c7c:	4240      	negs	r0, r0
    5c7e:	1a24      	subs	r4, r4, r0
    5c80:	2601      	movs	r6, #1
    5c82:	e01e      	b.n	5cc2 <__aeabi_dsub+0xb2>
    5c84:	4bb3      	ldr	r3, [pc, #716]	; (5f54 <__aeabi_dsub+0x344>)
    5c86:	429e      	cmp	r6, r3
    5c88:	d048      	beq.n	5d1c <__aeabi_dsub+0x10c>
    5c8a:	2380      	movs	r3, #128	; 0x80
    5c8c:	041b      	lsls	r3, r3, #16
    5c8e:	4319      	orrs	r1, r3
    5c90:	2d38      	cmp	r5, #56	; 0x38
    5c92:	dd00      	ble.n	5c96 <__aeabi_dsub+0x86>
    5c94:	e119      	b.n	5eca <__aeabi_dsub+0x2ba>
    5c96:	2d1f      	cmp	r5, #31
    5c98:	dd00      	ble.n	5c9c <__aeabi_dsub+0x8c>
    5c9a:	e14c      	b.n	5f36 <__aeabi_dsub+0x326>
    5c9c:	2320      	movs	r3, #32
    5c9e:	000f      	movs	r7, r1
    5ca0:	1b5b      	subs	r3, r3, r5
    5ca2:	0010      	movs	r0, r2
    5ca4:	409a      	lsls	r2, r3
    5ca6:	409f      	lsls	r7, r3
    5ca8:	40e8      	lsrs	r0, r5
    5caa:	1e53      	subs	r3, r2, #1
    5cac:	419a      	sbcs	r2, r3
    5cae:	40e9      	lsrs	r1, r5
    5cb0:	4307      	orrs	r7, r0
    5cb2:	4317      	orrs	r7, r2
    5cb4:	4653      	mov	r3, sl
    5cb6:	1bdf      	subs	r7, r3, r7
    5cb8:	1a61      	subs	r1, r4, r1
    5cba:	45ba      	cmp	sl, r7
    5cbc:	41a4      	sbcs	r4, r4
    5cbe:	4264      	negs	r4, r4
    5cc0:	1b0c      	subs	r4, r1, r4
    5cc2:	0223      	lsls	r3, r4, #8
    5cc4:	d400      	bmi.n	5cc8 <__aeabi_dsub+0xb8>
    5cc6:	e0c5      	b.n	5e54 <__aeabi_dsub+0x244>
    5cc8:	0264      	lsls	r4, r4, #9
    5cca:	0a65      	lsrs	r5, r4, #9
    5ccc:	2d00      	cmp	r5, #0
    5cce:	d100      	bne.n	5cd2 <__aeabi_dsub+0xc2>
    5cd0:	e0f6      	b.n	5ec0 <__aeabi_dsub+0x2b0>
    5cd2:	0028      	movs	r0, r5
    5cd4:	f000 fb3c 	bl	6350 <__clzsi2>
    5cd8:	0003      	movs	r3, r0
    5cda:	3b08      	subs	r3, #8
    5cdc:	2b1f      	cmp	r3, #31
    5cde:	dd00      	ble.n	5ce2 <__aeabi_dsub+0xd2>
    5ce0:	e0e9      	b.n	5eb6 <__aeabi_dsub+0x2a6>
    5ce2:	2220      	movs	r2, #32
    5ce4:	003c      	movs	r4, r7
    5ce6:	1ad2      	subs	r2, r2, r3
    5ce8:	409d      	lsls	r5, r3
    5cea:	40d4      	lsrs	r4, r2
    5cec:	409f      	lsls	r7, r3
    5cee:	4325      	orrs	r5, r4
    5cf0:	429e      	cmp	r6, r3
    5cf2:	dd00      	ble.n	5cf6 <__aeabi_dsub+0xe6>
    5cf4:	e0db      	b.n	5eae <__aeabi_dsub+0x29e>
    5cf6:	1b9e      	subs	r6, r3, r6
    5cf8:	1c73      	adds	r3, r6, #1
    5cfa:	2b1f      	cmp	r3, #31
    5cfc:	dd00      	ble.n	5d00 <__aeabi_dsub+0xf0>
    5cfe:	e10a      	b.n	5f16 <__aeabi_dsub+0x306>
    5d00:	2220      	movs	r2, #32
    5d02:	0038      	movs	r0, r7
    5d04:	1ad2      	subs	r2, r2, r3
    5d06:	0029      	movs	r1, r5
    5d08:	4097      	lsls	r7, r2
    5d0a:	002c      	movs	r4, r5
    5d0c:	4091      	lsls	r1, r2
    5d0e:	40d8      	lsrs	r0, r3
    5d10:	1e7a      	subs	r2, r7, #1
    5d12:	4197      	sbcs	r7, r2
    5d14:	40dc      	lsrs	r4, r3
    5d16:	2600      	movs	r6, #0
    5d18:	4301      	orrs	r1, r0
    5d1a:	430f      	orrs	r7, r1
    5d1c:	077b      	lsls	r3, r7, #29
    5d1e:	d009      	beq.n	5d34 <__aeabi_dsub+0x124>
    5d20:	230f      	movs	r3, #15
    5d22:	403b      	ands	r3, r7
    5d24:	2b04      	cmp	r3, #4
    5d26:	d005      	beq.n	5d34 <__aeabi_dsub+0x124>
    5d28:	1d3b      	adds	r3, r7, #4
    5d2a:	42bb      	cmp	r3, r7
    5d2c:	41bf      	sbcs	r7, r7
    5d2e:	427f      	negs	r7, r7
    5d30:	19e4      	adds	r4, r4, r7
    5d32:	001f      	movs	r7, r3
    5d34:	0223      	lsls	r3, r4, #8
    5d36:	d525      	bpl.n	5d84 <__aeabi_dsub+0x174>
    5d38:	4b86      	ldr	r3, [pc, #536]	; (5f54 <__aeabi_dsub+0x344>)
    5d3a:	3601      	adds	r6, #1
    5d3c:	429e      	cmp	r6, r3
    5d3e:	d100      	bne.n	5d42 <__aeabi_dsub+0x132>
    5d40:	e0af      	b.n	5ea2 <__aeabi_dsub+0x292>
    5d42:	4b85      	ldr	r3, [pc, #532]	; (5f58 <__aeabi_dsub+0x348>)
    5d44:	2501      	movs	r5, #1
    5d46:	401c      	ands	r4, r3
    5d48:	4643      	mov	r3, r8
    5d4a:	0762      	lsls	r2, r4, #29
    5d4c:	08ff      	lsrs	r7, r7, #3
    5d4e:	0264      	lsls	r4, r4, #9
    5d50:	0576      	lsls	r6, r6, #21
    5d52:	4317      	orrs	r7, r2
    5d54:	0b24      	lsrs	r4, r4, #12
    5d56:	0d76      	lsrs	r6, r6, #21
    5d58:	401d      	ands	r5, r3
    5d5a:	2100      	movs	r1, #0
    5d5c:	0324      	lsls	r4, r4, #12
    5d5e:	0b23      	lsrs	r3, r4, #12
    5d60:	0d0c      	lsrs	r4, r1, #20
    5d62:	4a7e      	ldr	r2, [pc, #504]	; (5f5c <__aeabi_dsub+0x34c>)
    5d64:	0524      	lsls	r4, r4, #20
    5d66:	431c      	orrs	r4, r3
    5d68:	4014      	ands	r4, r2
    5d6a:	0533      	lsls	r3, r6, #20
    5d6c:	4323      	orrs	r3, r4
    5d6e:	005b      	lsls	r3, r3, #1
    5d70:	07ed      	lsls	r5, r5, #31
    5d72:	085b      	lsrs	r3, r3, #1
    5d74:	432b      	orrs	r3, r5
    5d76:	0038      	movs	r0, r7
    5d78:	0019      	movs	r1, r3
    5d7a:	bc1c      	pop	{r2, r3, r4}
    5d7c:	4690      	mov	r8, r2
    5d7e:	4699      	mov	r9, r3
    5d80:	46a2      	mov	sl, r4
    5d82:	bdf0      	pop	{r4, r5, r6, r7, pc}
    5d84:	2501      	movs	r5, #1
    5d86:	4643      	mov	r3, r8
    5d88:	0762      	lsls	r2, r4, #29
    5d8a:	08ff      	lsrs	r7, r7, #3
    5d8c:	4317      	orrs	r7, r2
    5d8e:	08e4      	lsrs	r4, r4, #3
    5d90:	401d      	ands	r5, r3
    5d92:	4b70      	ldr	r3, [pc, #448]	; (5f54 <__aeabi_dsub+0x344>)
    5d94:	429e      	cmp	r6, r3
    5d96:	d036      	beq.n	5e06 <__aeabi_dsub+0x1f6>
    5d98:	0324      	lsls	r4, r4, #12
    5d9a:	0576      	lsls	r6, r6, #21
    5d9c:	0b24      	lsrs	r4, r4, #12
    5d9e:	0d76      	lsrs	r6, r6, #21
    5da0:	e7db      	b.n	5d5a <__aeabi_dsub+0x14a>
    5da2:	4663      	mov	r3, ip
    5da4:	1af3      	subs	r3, r6, r3
    5da6:	2b00      	cmp	r3, #0
    5da8:	dc00      	bgt.n	5dac <__aeabi_dsub+0x19c>
    5daa:	e094      	b.n	5ed6 <__aeabi_dsub+0x2c6>
    5dac:	4660      	mov	r0, ip
    5dae:	2800      	cmp	r0, #0
    5db0:	d035      	beq.n	5e1e <__aeabi_dsub+0x20e>
    5db2:	4868      	ldr	r0, [pc, #416]	; (5f54 <__aeabi_dsub+0x344>)
    5db4:	4286      	cmp	r6, r0
    5db6:	d0b1      	beq.n	5d1c <__aeabi_dsub+0x10c>
    5db8:	2780      	movs	r7, #128	; 0x80
    5dba:	043f      	lsls	r7, r7, #16
    5dbc:	4339      	orrs	r1, r7
    5dbe:	2b38      	cmp	r3, #56	; 0x38
    5dc0:	dc00      	bgt.n	5dc4 <__aeabi_dsub+0x1b4>
    5dc2:	e0fd      	b.n	5fc0 <__aeabi_dsub+0x3b0>
    5dc4:	430a      	orrs	r2, r1
    5dc6:	0017      	movs	r7, r2
    5dc8:	2100      	movs	r1, #0
    5dca:	1e7a      	subs	r2, r7, #1
    5dcc:	4197      	sbcs	r7, r2
    5dce:	4457      	add	r7, sl
    5dd0:	4557      	cmp	r7, sl
    5dd2:	4180      	sbcs	r0, r0
    5dd4:	1909      	adds	r1, r1, r4
    5dd6:	4244      	negs	r4, r0
    5dd8:	190c      	adds	r4, r1, r4
    5dda:	0223      	lsls	r3, r4, #8
    5ddc:	d53a      	bpl.n	5e54 <__aeabi_dsub+0x244>
    5dde:	4b5d      	ldr	r3, [pc, #372]	; (5f54 <__aeabi_dsub+0x344>)
    5de0:	3601      	adds	r6, #1
    5de2:	429e      	cmp	r6, r3
    5de4:	d100      	bne.n	5de8 <__aeabi_dsub+0x1d8>
    5de6:	e14b      	b.n	6080 <__aeabi_dsub+0x470>
    5de8:	2201      	movs	r2, #1
    5dea:	4b5b      	ldr	r3, [pc, #364]	; (5f58 <__aeabi_dsub+0x348>)
    5dec:	401c      	ands	r4, r3
    5dee:	087b      	lsrs	r3, r7, #1
    5df0:	4017      	ands	r7, r2
    5df2:	431f      	orrs	r7, r3
    5df4:	07e2      	lsls	r2, r4, #31
    5df6:	4317      	orrs	r7, r2
    5df8:	0864      	lsrs	r4, r4, #1
    5dfa:	e78f      	b.n	5d1c <__aeabi_dsub+0x10c>
    5dfc:	0008      	movs	r0, r1
    5dfe:	4310      	orrs	r0, r2
    5e00:	d000      	beq.n	5e04 <__aeabi_dsub+0x1f4>
    5e02:	e724      	b.n	5c4e <__aeabi_dsub+0x3e>
    5e04:	e721      	b.n	5c4a <__aeabi_dsub+0x3a>
    5e06:	0023      	movs	r3, r4
    5e08:	433b      	orrs	r3, r7
    5e0a:	d100      	bne.n	5e0e <__aeabi_dsub+0x1fe>
    5e0c:	e1b9      	b.n	6182 <__aeabi_dsub+0x572>
    5e0e:	2280      	movs	r2, #128	; 0x80
    5e10:	0312      	lsls	r2, r2, #12
    5e12:	4314      	orrs	r4, r2
    5e14:	0324      	lsls	r4, r4, #12
    5e16:	0b24      	lsrs	r4, r4, #12
    5e18:	e79f      	b.n	5d5a <__aeabi_dsub+0x14a>
    5e1a:	002e      	movs	r6, r5
    5e1c:	e77e      	b.n	5d1c <__aeabi_dsub+0x10c>
    5e1e:	0008      	movs	r0, r1
    5e20:	4310      	orrs	r0, r2
    5e22:	d100      	bne.n	5e26 <__aeabi_dsub+0x216>
    5e24:	e0ca      	b.n	5fbc <__aeabi_dsub+0x3ac>
    5e26:	1e58      	subs	r0, r3, #1
    5e28:	4684      	mov	ip, r0
    5e2a:	2800      	cmp	r0, #0
    5e2c:	d000      	beq.n	5e30 <__aeabi_dsub+0x220>
    5e2e:	e0e7      	b.n	6000 <__aeabi_dsub+0x3f0>
    5e30:	4452      	add	r2, sl
    5e32:	4552      	cmp	r2, sl
    5e34:	4180      	sbcs	r0, r0
    5e36:	1864      	adds	r4, r4, r1
    5e38:	4240      	negs	r0, r0
    5e3a:	1824      	adds	r4, r4, r0
    5e3c:	0017      	movs	r7, r2
    5e3e:	2601      	movs	r6, #1
    5e40:	0223      	lsls	r3, r4, #8
    5e42:	d507      	bpl.n	5e54 <__aeabi_dsub+0x244>
    5e44:	2602      	movs	r6, #2
    5e46:	e7cf      	b.n	5de8 <__aeabi_dsub+0x1d8>
    5e48:	4664      	mov	r4, ip
    5e4a:	432c      	orrs	r4, r5
    5e4c:	d100      	bne.n	5e50 <__aeabi_dsub+0x240>
    5e4e:	e1b3      	b.n	61b8 <__aeabi_dsub+0x5a8>
    5e50:	002c      	movs	r4, r5
    5e52:	4667      	mov	r7, ip
    5e54:	077b      	lsls	r3, r7, #29
    5e56:	d000      	beq.n	5e5a <__aeabi_dsub+0x24a>
    5e58:	e762      	b.n	5d20 <__aeabi_dsub+0x110>
    5e5a:	0763      	lsls	r3, r4, #29
    5e5c:	08ff      	lsrs	r7, r7, #3
    5e5e:	431f      	orrs	r7, r3
    5e60:	2501      	movs	r5, #1
    5e62:	4643      	mov	r3, r8
    5e64:	08e4      	lsrs	r4, r4, #3
    5e66:	401d      	ands	r5, r3
    5e68:	e793      	b.n	5d92 <__aeabi_dsub+0x182>
    5e6a:	2d00      	cmp	r5, #0
    5e6c:	d178      	bne.n	5f60 <__aeabi_dsub+0x350>
    5e6e:	1c75      	adds	r5, r6, #1
    5e70:	056d      	lsls	r5, r5, #21
    5e72:	0d6d      	lsrs	r5, r5, #21
    5e74:	2d01      	cmp	r5, #1
    5e76:	dc00      	bgt.n	5e7a <__aeabi_dsub+0x26a>
    5e78:	e0f2      	b.n	6060 <__aeabi_dsub+0x450>
    5e7a:	4650      	mov	r0, sl
    5e7c:	1a80      	subs	r0, r0, r2
    5e7e:	4582      	cmp	sl, r0
    5e80:	41bf      	sbcs	r7, r7
    5e82:	1a65      	subs	r5, r4, r1
    5e84:	427f      	negs	r7, r7
    5e86:	1bed      	subs	r5, r5, r7
    5e88:	4684      	mov	ip, r0
    5e8a:	0228      	lsls	r0, r5, #8
    5e8c:	d400      	bmi.n	5e90 <__aeabi_dsub+0x280>
    5e8e:	e08c      	b.n	5faa <__aeabi_dsub+0x39a>
    5e90:	4650      	mov	r0, sl
    5e92:	1a17      	subs	r7, r2, r0
    5e94:	42ba      	cmp	r2, r7
    5e96:	4192      	sbcs	r2, r2
    5e98:	1b0c      	subs	r4, r1, r4
    5e9a:	4255      	negs	r5, r2
    5e9c:	1b65      	subs	r5, r4, r5
    5e9e:	4698      	mov	r8, r3
    5ea0:	e714      	b.n	5ccc <__aeabi_dsub+0xbc>
    5ea2:	2501      	movs	r5, #1
    5ea4:	4643      	mov	r3, r8
    5ea6:	2400      	movs	r4, #0
    5ea8:	401d      	ands	r5, r3
    5eaa:	2700      	movs	r7, #0
    5eac:	e755      	b.n	5d5a <__aeabi_dsub+0x14a>
    5eae:	4c2a      	ldr	r4, [pc, #168]	; (5f58 <__aeabi_dsub+0x348>)
    5eb0:	1af6      	subs	r6, r6, r3
    5eb2:	402c      	ands	r4, r5
    5eb4:	e732      	b.n	5d1c <__aeabi_dsub+0x10c>
    5eb6:	003d      	movs	r5, r7
    5eb8:	3828      	subs	r0, #40	; 0x28
    5eba:	4085      	lsls	r5, r0
    5ebc:	2700      	movs	r7, #0
    5ebe:	e717      	b.n	5cf0 <__aeabi_dsub+0xe0>
    5ec0:	0038      	movs	r0, r7
    5ec2:	f000 fa45 	bl	6350 <__clzsi2>
    5ec6:	3020      	adds	r0, #32
    5ec8:	e706      	b.n	5cd8 <__aeabi_dsub+0xc8>
    5eca:	430a      	orrs	r2, r1
    5ecc:	0017      	movs	r7, r2
    5ece:	2100      	movs	r1, #0
    5ed0:	1e7a      	subs	r2, r7, #1
    5ed2:	4197      	sbcs	r7, r2
    5ed4:	e6ee      	b.n	5cb4 <__aeabi_dsub+0xa4>
    5ed6:	2b00      	cmp	r3, #0
    5ed8:	d000      	beq.n	5edc <__aeabi_dsub+0x2cc>
    5eda:	e0e5      	b.n	60a8 <__aeabi_dsub+0x498>
    5edc:	1c73      	adds	r3, r6, #1
    5ede:	469c      	mov	ip, r3
    5ee0:	055b      	lsls	r3, r3, #21
    5ee2:	0d5b      	lsrs	r3, r3, #21
    5ee4:	2b01      	cmp	r3, #1
    5ee6:	dc00      	bgt.n	5eea <__aeabi_dsub+0x2da>
    5ee8:	e09f      	b.n	602a <__aeabi_dsub+0x41a>
    5eea:	4b1a      	ldr	r3, [pc, #104]	; (5f54 <__aeabi_dsub+0x344>)
    5eec:	459c      	cmp	ip, r3
    5eee:	d100      	bne.n	5ef2 <__aeabi_dsub+0x2e2>
    5ef0:	e0c5      	b.n	607e <__aeabi_dsub+0x46e>
    5ef2:	4452      	add	r2, sl
    5ef4:	4552      	cmp	r2, sl
    5ef6:	4180      	sbcs	r0, r0
    5ef8:	1864      	adds	r4, r4, r1
    5efa:	4240      	negs	r0, r0
    5efc:	1824      	adds	r4, r4, r0
    5efe:	07e7      	lsls	r7, r4, #31
    5f00:	0852      	lsrs	r2, r2, #1
    5f02:	4317      	orrs	r7, r2
    5f04:	0864      	lsrs	r4, r4, #1
    5f06:	4666      	mov	r6, ip
    5f08:	e708      	b.n	5d1c <__aeabi_dsub+0x10c>
    5f0a:	4812      	ldr	r0, [pc, #72]	; (5f54 <__aeabi_dsub+0x344>)
    5f0c:	4285      	cmp	r5, r0
    5f0e:	d100      	bne.n	5f12 <__aeabi_dsub+0x302>
    5f10:	e085      	b.n	601e <__aeabi_dsub+0x40e>
    5f12:	001d      	movs	r5, r3
    5f14:	e6bc      	b.n	5c90 <__aeabi_dsub+0x80>
    5f16:	0029      	movs	r1, r5
    5f18:	3e1f      	subs	r6, #31
    5f1a:	40f1      	lsrs	r1, r6
    5f1c:	2b20      	cmp	r3, #32
    5f1e:	d100      	bne.n	5f22 <__aeabi_dsub+0x312>
    5f20:	e07f      	b.n	6022 <__aeabi_dsub+0x412>
    5f22:	2240      	movs	r2, #64	; 0x40
    5f24:	1ad3      	subs	r3, r2, r3
    5f26:	409d      	lsls	r5, r3
    5f28:	432f      	orrs	r7, r5
    5f2a:	1e7d      	subs	r5, r7, #1
    5f2c:	41af      	sbcs	r7, r5
    5f2e:	2400      	movs	r4, #0
    5f30:	430f      	orrs	r7, r1
    5f32:	2600      	movs	r6, #0
    5f34:	e78e      	b.n	5e54 <__aeabi_dsub+0x244>
    5f36:	002b      	movs	r3, r5
    5f38:	000f      	movs	r7, r1
    5f3a:	3b20      	subs	r3, #32
    5f3c:	40df      	lsrs	r7, r3
    5f3e:	2d20      	cmp	r5, #32
    5f40:	d071      	beq.n	6026 <__aeabi_dsub+0x416>
    5f42:	2340      	movs	r3, #64	; 0x40
    5f44:	1b5d      	subs	r5, r3, r5
    5f46:	40a9      	lsls	r1, r5
    5f48:	430a      	orrs	r2, r1
    5f4a:	1e51      	subs	r1, r2, #1
    5f4c:	418a      	sbcs	r2, r1
    5f4e:	2100      	movs	r1, #0
    5f50:	4317      	orrs	r7, r2
    5f52:	e6af      	b.n	5cb4 <__aeabi_dsub+0xa4>
    5f54:	000007ff 	.word	0x000007ff
    5f58:	ff7fffff 	.word	0xff7fffff
    5f5c:	800fffff 	.word	0x800fffff
    5f60:	2e00      	cmp	r6, #0
    5f62:	d03e      	beq.n	5fe2 <__aeabi_dsub+0x3d2>
    5f64:	4eb3      	ldr	r6, [pc, #716]	; (6234 <__aeabi_dsub+0x624>)
    5f66:	45b4      	cmp	ip, r6
    5f68:	d045      	beq.n	5ff6 <__aeabi_dsub+0x3e6>
    5f6a:	2680      	movs	r6, #128	; 0x80
    5f6c:	0436      	lsls	r6, r6, #16
    5f6e:	426d      	negs	r5, r5
    5f70:	4334      	orrs	r4, r6
    5f72:	2d38      	cmp	r5, #56	; 0x38
    5f74:	dd00      	ble.n	5f78 <__aeabi_dsub+0x368>
    5f76:	e0a8      	b.n	60ca <__aeabi_dsub+0x4ba>
    5f78:	2d1f      	cmp	r5, #31
    5f7a:	dd00      	ble.n	5f7e <__aeabi_dsub+0x36e>
    5f7c:	e11f      	b.n	61be <__aeabi_dsub+0x5ae>
    5f7e:	2620      	movs	r6, #32
    5f80:	0027      	movs	r7, r4
    5f82:	4650      	mov	r0, sl
    5f84:	1b76      	subs	r6, r6, r5
    5f86:	40b7      	lsls	r7, r6
    5f88:	40e8      	lsrs	r0, r5
    5f8a:	4307      	orrs	r7, r0
    5f8c:	4650      	mov	r0, sl
    5f8e:	40b0      	lsls	r0, r6
    5f90:	1e46      	subs	r6, r0, #1
    5f92:	41b0      	sbcs	r0, r6
    5f94:	40ec      	lsrs	r4, r5
    5f96:	4338      	orrs	r0, r7
    5f98:	1a17      	subs	r7, r2, r0
    5f9a:	42ba      	cmp	r2, r7
    5f9c:	4192      	sbcs	r2, r2
    5f9e:	1b0c      	subs	r4, r1, r4
    5fa0:	4252      	negs	r2, r2
    5fa2:	1aa4      	subs	r4, r4, r2
    5fa4:	4666      	mov	r6, ip
    5fa6:	4698      	mov	r8, r3
    5fa8:	e68b      	b.n	5cc2 <__aeabi_dsub+0xb2>
    5faa:	4664      	mov	r4, ip
    5fac:	4667      	mov	r7, ip
    5fae:	432c      	orrs	r4, r5
    5fb0:	d000      	beq.n	5fb4 <__aeabi_dsub+0x3a4>
    5fb2:	e68b      	b.n	5ccc <__aeabi_dsub+0xbc>
    5fb4:	2500      	movs	r5, #0
    5fb6:	2600      	movs	r6, #0
    5fb8:	2700      	movs	r7, #0
    5fba:	e6ea      	b.n	5d92 <__aeabi_dsub+0x182>
    5fbc:	001e      	movs	r6, r3
    5fbe:	e6ad      	b.n	5d1c <__aeabi_dsub+0x10c>
    5fc0:	2b1f      	cmp	r3, #31
    5fc2:	dc60      	bgt.n	6086 <__aeabi_dsub+0x476>
    5fc4:	2720      	movs	r7, #32
    5fc6:	1af8      	subs	r0, r7, r3
    5fc8:	000f      	movs	r7, r1
    5fca:	4684      	mov	ip, r0
    5fcc:	4087      	lsls	r7, r0
    5fce:	0010      	movs	r0, r2
    5fd0:	40d8      	lsrs	r0, r3
    5fd2:	4307      	orrs	r7, r0
    5fd4:	4660      	mov	r0, ip
    5fd6:	4082      	lsls	r2, r0
    5fd8:	1e50      	subs	r0, r2, #1
    5fda:	4182      	sbcs	r2, r0
    5fdc:	40d9      	lsrs	r1, r3
    5fde:	4317      	orrs	r7, r2
    5fe0:	e6f5      	b.n	5dce <__aeabi_dsub+0x1be>
    5fe2:	0026      	movs	r6, r4
    5fe4:	4650      	mov	r0, sl
    5fe6:	4306      	orrs	r6, r0
    5fe8:	d005      	beq.n	5ff6 <__aeabi_dsub+0x3e6>
    5fea:	43ed      	mvns	r5, r5
    5fec:	2d00      	cmp	r5, #0
    5fee:	d0d3      	beq.n	5f98 <__aeabi_dsub+0x388>
    5ff0:	4e90      	ldr	r6, [pc, #576]	; (6234 <__aeabi_dsub+0x624>)
    5ff2:	45b4      	cmp	ip, r6
    5ff4:	d1bd      	bne.n	5f72 <__aeabi_dsub+0x362>
    5ff6:	000c      	movs	r4, r1
    5ff8:	0017      	movs	r7, r2
    5ffa:	4666      	mov	r6, ip
    5ffc:	4698      	mov	r8, r3
    5ffe:	e68d      	b.n	5d1c <__aeabi_dsub+0x10c>
    6000:	488c      	ldr	r0, [pc, #560]	; (6234 <__aeabi_dsub+0x624>)
    6002:	4283      	cmp	r3, r0
    6004:	d00b      	beq.n	601e <__aeabi_dsub+0x40e>
    6006:	4663      	mov	r3, ip
    6008:	e6d9      	b.n	5dbe <__aeabi_dsub+0x1ae>
    600a:	2d00      	cmp	r5, #0
    600c:	d000      	beq.n	6010 <__aeabi_dsub+0x400>
    600e:	e096      	b.n	613e <__aeabi_dsub+0x52e>
    6010:	0008      	movs	r0, r1
    6012:	4310      	orrs	r0, r2
    6014:	d100      	bne.n	6018 <__aeabi_dsub+0x408>
    6016:	e0e2      	b.n	61de <__aeabi_dsub+0x5ce>
    6018:	000c      	movs	r4, r1
    601a:	0017      	movs	r7, r2
    601c:	4698      	mov	r8, r3
    601e:	4e85      	ldr	r6, [pc, #532]	; (6234 <__aeabi_dsub+0x624>)
    6020:	e67c      	b.n	5d1c <__aeabi_dsub+0x10c>
    6022:	2500      	movs	r5, #0
    6024:	e780      	b.n	5f28 <__aeabi_dsub+0x318>
    6026:	2100      	movs	r1, #0
    6028:	e78e      	b.n	5f48 <__aeabi_dsub+0x338>
    602a:	0023      	movs	r3, r4
    602c:	4650      	mov	r0, sl
    602e:	4303      	orrs	r3, r0
    6030:	2e00      	cmp	r6, #0
    6032:	d000      	beq.n	6036 <__aeabi_dsub+0x426>
    6034:	e0a8      	b.n	6188 <__aeabi_dsub+0x578>
    6036:	2b00      	cmp	r3, #0
    6038:	d100      	bne.n	603c <__aeabi_dsub+0x42c>
    603a:	e0de      	b.n	61fa <__aeabi_dsub+0x5ea>
    603c:	000b      	movs	r3, r1
    603e:	4313      	orrs	r3, r2
    6040:	d100      	bne.n	6044 <__aeabi_dsub+0x434>
    6042:	e66b      	b.n	5d1c <__aeabi_dsub+0x10c>
    6044:	4452      	add	r2, sl
    6046:	4552      	cmp	r2, sl
    6048:	4180      	sbcs	r0, r0
    604a:	1864      	adds	r4, r4, r1
    604c:	4240      	negs	r0, r0
    604e:	1824      	adds	r4, r4, r0
    6050:	0017      	movs	r7, r2
    6052:	0223      	lsls	r3, r4, #8
    6054:	d400      	bmi.n	6058 <__aeabi_dsub+0x448>
    6056:	e6fd      	b.n	5e54 <__aeabi_dsub+0x244>
    6058:	4b77      	ldr	r3, [pc, #476]	; (6238 <__aeabi_dsub+0x628>)
    605a:	4666      	mov	r6, ip
    605c:	401c      	ands	r4, r3
    605e:	e65d      	b.n	5d1c <__aeabi_dsub+0x10c>
    6060:	0025      	movs	r5, r4
    6062:	4650      	mov	r0, sl
    6064:	4305      	orrs	r5, r0
    6066:	2e00      	cmp	r6, #0
    6068:	d1cf      	bne.n	600a <__aeabi_dsub+0x3fa>
    606a:	2d00      	cmp	r5, #0
    606c:	d14f      	bne.n	610e <__aeabi_dsub+0x4fe>
    606e:	000c      	movs	r4, r1
    6070:	4314      	orrs	r4, r2
    6072:	d100      	bne.n	6076 <__aeabi_dsub+0x466>
    6074:	e0a0      	b.n	61b8 <__aeabi_dsub+0x5a8>
    6076:	000c      	movs	r4, r1
    6078:	0017      	movs	r7, r2
    607a:	4698      	mov	r8, r3
    607c:	e64e      	b.n	5d1c <__aeabi_dsub+0x10c>
    607e:	4666      	mov	r6, ip
    6080:	2400      	movs	r4, #0
    6082:	2700      	movs	r7, #0
    6084:	e685      	b.n	5d92 <__aeabi_dsub+0x182>
    6086:	001f      	movs	r7, r3
    6088:	0008      	movs	r0, r1
    608a:	3f20      	subs	r7, #32
    608c:	40f8      	lsrs	r0, r7
    608e:	0007      	movs	r7, r0
    6090:	2b20      	cmp	r3, #32
    6092:	d100      	bne.n	6096 <__aeabi_dsub+0x486>
    6094:	e08e      	b.n	61b4 <__aeabi_dsub+0x5a4>
    6096:	2040      	movs	r0, #64	; 0x40
    6098:	1ac3      	subs	r3, r0, r3
    609a:	4099      	lsls	r1, r3
    609c:	430a      	orrs	r2, r1
    609e:	1e51      	subs	r1, r2, #1
    60a0:	418a      	sbcs	r2, r1
    60a2:	2100      	movs	r1, #0
    60a4:	4317      	orrs	r7, r2
    60a6:	e692      	b.n	5dce <__aeabi_dsub+0x1be>
    60a8:	2e00      	cmp	r6, #0
    60aa:	d114      	bne.n	60d6 <__aeabi_dsub+0x4c6>
    60ac:	0026      	movs	r6, r4
    60ae:	4650      	mov	r0, sl
    60b0:	4306      	orrs	r6, r0
    60b2:	d062      	beq.n	617a <__aeabi_dsub+0x56a>
    60b4:	43db      	mvns	r3, r3
    60b6:	2b00      	cmp	r3, #0
    60b8:	d15c      	bne.n	6174 <__aeabi_dsub+0x564>
    60ba:	1887      	adds	r7, r0, r2
    60bc:	4297      	cmp	r7, r2
    60be:	4192      	sbcs	r2, r2
    60c0:	1864      	adds	r4, r4, r1
    60c2:	4252      	negs	r2, r2
    60c4:	18a4      	adds	r4, r4, r2
    60c6:	4666      	mov	r6, ip
    60c8:	e687      	b.n	5dda <__aeabi_dsub+0x1ca>
    60ca:	4650      	mov	r0, sl
    60cc:	4320      	orrs	r0, r4
    60ce:	1e44      	subs	r4, r0, #1
    60d0:	41a0      	sbcs	r0, r4
    60d2:	2400      	movs	r4, #0
    60d4:	e760      	b.n	5f98 <__aeabi_dsub+0x388>
    60d6:	4e57      	ldr	r6, [pc, #348]	; (6234 <__aeabi_dsub+0x624>)
    60d8:	45b4      	cmp	ip, r6
    60da:	d04e      	beq.n	617a <__aeabi_dsub+0x56a>
    60dc:	2680      	movs	r6, #128	; 0x80
    60de:	0436      	lsls	r6, r6, #16
    60e0:	425b      	negs	r3, r3
    60e2:	4334      	orrs	r4, r6
    60e4:	2b38      	cmp	r3, #56	; 0x38
    60e6:	dd00      	ble.n	60ea <__aeabi_dsub+0x4da>
    60e8:	e07f      	b.n	61ea <__aeabi_dsub+0x5da>
    60ea:	2b1f      	cmp	r3, #31
    60ec:	dd00      	ble.n	60f0 <__aeabi_dsub+0x4e0>
    60ee:	e08b      	b.n	6208 <__aeabi_dsub+0x5f8>
    60f0:	2620      	movs	r6, #32
    60f2:	0027      	movs	r7, r4
    60f4:	4650      	mov	r0, sl
    60f6:	1af6      	subs	r6, r6, r3
    60f8:	40b7      	lsls	r7, r6
    60fa:	40d8      	lsrs	r0, r3
    60fc:	4307      	orrs	r7, r0
    60fe:	4650      	mov	r0, sl
    6100:	40b0      	lsls	r0, r6
    6102:	1e46      	subs	r6, r0, #1
    6104:	41b0      	sbcs	r0, r6
    6106:	4307      	orrs	r7, r0
    6108:	40dc      	lsrs	r4, r3
    610a:	18bf      	adds	r7, r7, r2
    610c:	e7d6      	b.n	60bc <__aeabi_dsub+0x4ac>
    610e:	000d      	movs	r5, r1
    6110:	4315      	orrs	r5, r2
    6112:	d100      	bne.n	6116 <__aeabi_dsub+0x506>
    6114:	e602      	b.n	5d1c <__aeabi_dsub+0x10c>
    6116:	4650      	mov	r0, sl
    6118:	1a80      	subs	r0, r0, r2
    611a:	4582      	cmp	sl, r0
    611c:	41bf      	sbcs	r7, r7
    611e:	1a65      	subs	r5, r4, r1
    6120:	427f      	negs	r7, r7
    6122:	1bed      	subs	r5, r5, r7
    6124:	4684      	mov	ip, r0
    6126:	0228      	lsls	r0, r5, #8
    6128:	d400      	bmi.n	612c <__aeabi_dsub+0x51c>
    612a:	e68d      	b.n	5e48 <__aeabi_dsub+0x238>
    612c:	4650      	mov	r0, sl
    612e:	1a17      	subs	r7, r2, r0
    6130:	42ba      	cmp	r2, r7
    6132:	4192      	sbcs	r2, r2
    6134:	1b0c      	subs	r4, r1, r4
    6136:	4252      	negs	r2, r2
    6138:	1aa4      	subs	r4, r4, r2
    613a:	4698      	mov	r8, r3
    613c:	e5ee      	b.n	5d1c <__aeabi_dsub+0x10c>
    613e:	000d      	movs	r5, r1
    6140:	4315      	orrs	r5, r2
    6142:	d100      	bne.n	6146 <__aeabi_dsub+0x536>
    6144:	e76b      	b.n	601e <__aeabi_dsub+0x40e>
    6146:	4650      	mov	r0, sl
    6148:	0767      	lsls	r7, r4, #29
    614a:	08c0      	lsrs	r0, r0, #3
    614c:	4307      	orrs	r7, r0
    614e:	2080      	movs	r0, #128	; 0x80
    6150:	08e4      	lsrs	r4, r4, #3
    6152:	0300      	lsls	r0, r0, #12
    6154:	4204      	tst	r4, r0
    6156:	d007      	beq.n	6168 <__aeabi_dsub+0x558>
    6158:	08cd      	lsrs	r5, r1, #3
    615a:	4205      	tst	r5, r0
    615c:	d104      	bne.n	6168 <__aeabi_dsub+0x558>
    615e:	002c      	movs	r4, r5
    6160:	4698      	mov	r8, r3
    6162:	08d7      	lsrs	r7, r2, #3
    6164:	0749      	lsls	r1, r1, #29
    6166:	430f      	orrs	r7, r1
    6168:	0f7b      	lsrs	r3, r7, #29
    616a:	00e4      	lsls	r4, r4, #3
    616c:	431c      	orrs	r4, r3
    616e:	00ff      	lsls	r7, r7, #3
    6170:	4e30      	ldr	r6, [pc, #192]	; (6234 <__aeabi_dsub+0x624>)
    6172:	e5d3      	b.n	5d1c <__aeabi_dsub+0x10c>
    6174:	4e2f      	ldr	r6, [pc, #188]	; (6234 <__aeabi_dsub+0x624>)
    6176:	45b4      	cmp	ip, r6
    6178:	d1b4      	bne.n	60e4 <__aeabi_dsub+0x4d4>
    617a:	000c      	movs	r4, r1
    617c:	0017      	movs	r7, r2
    617e:	4666      	mov	r6, ip
    6180:	e5cc      	b.n	5d1c <__aeabi_dsub+0x10c>
    6182:	2700      	movs	r7, #0
    6184:	2400      	movs	r4, #0
    6186:	e5e8      	b.n	5d5a <__aeabi_dsub+0x14a>
    6188:	2b00      	cmp	r3, #0
    618a:	d039      	beq.n	6200 <__aeabi_dsub+0x5f0>
    618c:	000b      	movs	r3, r1
    618e:	4313      	orrs	r3, r2
    6190:	d100      	bne.n	6194 <__aeabi_dsub+0x584>
    6192:	e744      	b.n	601e <__aeabi_dsub+0x40e>
    6194:	08c0      	lsrs	r0, r0, #3
    6196:	0767      	lsls	r7, r4, #29
    6198:	4307      	orrs	r7, r0
    619a:	2080      	movs	r0, #128	; 0x80
    619c:	08e4      	lsrs	r4, r4, #3
    619e:	0300      	lsls	r0, r0, #12
    61a0:	4204      	tst	r4, r0
    61a2:	d0e1      	beq.n	6168 <__aeabi_dsub+0x558>
    61a4:	08cb      	lsrs	r3, r1, #3
    61a6:	4203      	tst	r3, r0
    61a8:	d1de      	bne.n	6168 <__aeabi_dsub+0x558>
    61aa:	08d7      	lsrs	r7, r2, #3
    61ac:	0749      	lsls	r1, r1, #29
    61ae:	430f      	orrs	r7, r1
    61b0:	001c      	movs	r4, r3
    61b2:	e7d9      	b.n	6168 <__aeabi_dsub+0x558>
    61b4:	2100      	movs	r1, #0
    61b6:	e771      	b.n	609c <__aeabi_dsub+0x48c>
    61b8:	2500      	movs	r5, #0
    61ba:	2700      	movs	r7, #0
    61bc:	e5e9      	b.n	5d92 <__aeabi_dsub+0x182>
    61be:	002e      	movs	r6, r5
    61c0:	0027      	movs	r7, r4
    61c2:	3e20      	subs	r6, #32
    61c4:	40f7      	lsrs	r7, r6
    61c6:	2d20      	cmp	r5, #32
    61c8:	d02f      	beq.n	622a <__aeabi_dsub+0x61a>
    61ca:	2640      	movs	r6, #64	; 0x40
    61cc:	1b75      	subs	r5, r6, r5
    61ce:	40ac      	lsls	r4, r5
    61d0:	4650      	mov	r0, sl
    61d2:	4320      	orrs	r0, r4
    61d4:	1e44      	subs	r4, r0, #1
    61d6:	41a0      	sbcs	r0, r4
    61d8:	2400      	movs	r4, #0
    61da:	4338      	orrs	r0, r7
    61dc:	e6dc      	b.n	5f98 <__aeabi_dsub+0x388>
    61de:	2480      	movs	r4, #128	; 0x80
    61e0:	2500      	movs	r5, #0
    61e2:	0324      	lsls	r4, r4, #12
    61e4:	4e13      	ldr	r6, [pc, #76]	; (6234 <__aeabi_dsub+0x624>)
    61e6:	2700      	movs	r7, #0
    61e8:	e5d3      	b.n	5d92 <__aeabi_dsub+0x182>
    61ea:	4650      	mov	r0, sl
    61ec:	4320      	orrs	r0, r4
    61ee:	0007      	movs	r7, r0
    61f0:	1e78      	subs	r0, r7, #1
    61f2:	4187      	sbcs	r7, r0
    61f4:	2400      	movs	r4, #0
    61f6:	18bf      	adds	r7, r7, r2
    61f8:	e760      	b.n	60bc <__aeabi_dsub+0x4ac>
    61fa:	000c      	movs	r4, r1
    61fc:	0017      	movs	r7, r2
    61fe:	e58d      	b.n	5d1c <__aeabi_dsub+0x10c>
    6200:	000c      	movs	r4, r1
    6202:	0017      	movs	r7, r2
    6204:	4e0b      	ldr	r6, [pc, #44]	; (6234 <__aeabi_dsub+0x624>)
    6206:	e589      	b.n	5d1c <__aeabi_dsub+0x10c>
    6208:	001e      	movs	r6, r3
    620a:	0027      	movs	r7, r4
    620c:	3e20      	subs	r6, #32
    620e:	40f7      	lsrs	r7, r6
    6210:	2b20      	cmp	r3, #32
    6212:	d00c      	beq.n	622e <__aeabi_dsub+0x61e>
    6214:	2640      	movs	r6, #64	; 0x40
    6216:	1af3      	subs	r3, r6, r3
    6218:	409c      	lsls	r4, r3
    621a:	4650      	mov	r0, sl
    621c:	4320      	orrs	r0, r4
    621e:	1e44      	subs	r4, r0, #1
    6220:	41a0      	sbcs	r0, r4
    6222:	4307      	orrs	r7, r0
    6224:	2400      	movs	r4, #0
    6226:	18bf      	adds	r7, r7, r2
    6228:	e748      	b.n	60bc <__aeabi_dsub+0x4ac>
    622a:	2400      	movs	r4, #0
    622c:	e7d0      	b.n	61d0 <__aeabi_dsub+0x5c0>
    622e:	2400      	movs	r4, #0
    6230:	e7f3      	b.n	621a <__aeabi_dsub+0x60a>
    6232:	46c0      	nop			; (mov r8, r8)
    6234:	000007ff 	.word	0x000007ff
    6238:	ff7fffff 	.word	0xff7fffff

0000623c <__aeabi_ui2d>:
    623c:	b510      	push	{r4, lr}
    623e:	1e04      	subs	r4, r0, #0
    6240:	d028      	beq.n	6294 <__aeabi_ui2d+0x58>
    6242:	f000 f885 	bl	6350 <__clzsi2>
    6246:	4b15      	ldr	r3, [pc, #84]	; (629c <__aeabi_ui2d+0x60>)
    6248:	4a15      	ldr	r2, [pc, #84]	; (62a0 <__aeabi_ui2d+0x64>)
    624a:	1a1b      	subs	r3, r3, r0
    624c:	1ad2      	subs	r2, r2, r3
    624e:	2a1f      	cmp	r2, #31
    6250:	dd15      	ble.n	627e <__aeabi_ui2d+0x42>
    6252:	4a14      	ldr	r2, [pc, #80]	; (62a4 <__aeabi_ui2d+0x68>)
    6254:	1ad2      	subs	r2, r2, r3
    6256:	4094      	lsls	r4, r2
    6258:	2200      	movs	r2, #0
    625a:	0324      	lsls	r4, r4, #12
    625c:	055b      	lsls	r3, r3, #21
    625e:	0b24      	lsrs	r4, r4, #12
    6260:	0d5b      	lsrs	r3, r3, #21
    6262:	2100      	movs	r1, #0
    6264:	0010      	movs	r0, r2
    6266:	0324      	lsls	r4, r4, #12
    6268:	0d0a      	lsrs	r2, r1, #20
    626a:	0b24      	lsrs	r4, r4, #12
    626c:	0512      	lsls	r2, r2, #20
    626e:	4322      	orrs	r2, r4
    6270:	4c0d      	ldr	r4, [pc, #52]	; (62a8 <__aeabi_ui2d+0x6c>)
    6272:	051b      	lsls	r3, r3, #20
    6274:	4022      	ands	r2, r4
    6276:	4313      	orrs	r3, r2
    6278:	005b      	lsls	r3, r3, #1
    627a:	0859      	lsrs	r1, r3, #1
    627c:	bd10      	pop	{r4, pc}
    627e:	0021      	movs	r1, r4
    6280:	4091      	lsls	r1, r2
    6282:	000a      	movs	r2, r1
    6284:	210b      	movs	r1, #11
    6286:	1a08      	subs	r0, r1, r0
    6288:	40c4      	lsrs	r4, r0
    628a:	055b      	lsls	r3, r3, #21
    628c:	0324      	lsls	r4, r4, #12
    628e:	0b24      	lsrs	r4, r4, #12
    6290:	0d5b      	lsrs	r3, r3, #21
    6292:	e7e6      	b.n	6262 <__aeabi_ui2d+0x26>
    6294:	2300      	movs	r3, #0
    6296:	2400      	movs	r4, #0
    6298:	2200      	movs	r2, #0
    629a:	e7e2      	b.n	6262 <__aeabi_ui2d+0x26>
    629c:	0000041e 	.word	0x0000041e
    62a0:	00000433 	.word	0x00000433
    62a4:	00000413 	.word	0x00000413
    62a8:	800fffff 	.word	0x800fffff

000062ac <__aeabi_f2d>:
    62ac:	0041      	lsls	r1, r0, #1
    62ae:	0e09      	lsrs	r1, r1, #24
    62b0:	1c4b      	adds	r3, r1, #1
    62b2:	b570      	push	{r4, r5, r6, lr}
    62b4:	b2db      	uxtb	r3, r3
    62b6:	0246      	lsls	r6, r0, #9
    62b8:	0a75      	lsrs	r5, r6, #9
    62ba:	0fc4      	lsrs	r4, r0, #31
    62bc:	2b01      	cmp	r3, #1
    62be:	dd14      	ble.n	62ea <__aeabi_f2d+0x3e>
    62c0:	23e0      	movs	r3, #224	; 0xe0
    62c2:	009b      	lsls	r3, r3, #2
    62c4:	076d      	lsls	r5, r5, #29
    62c6:	0b36      	lsrs	r6, r6, #12
    62c8:	18cb      	adds	r3, r1, r3
    62ca:	2100      	movs	r1, #0
    62cc:	0d0a      	lsrs	r2, r1, #20
    62ce:	0028      	movs	r0, r5
    62d0:	0512      	lsls	r2, r2, #20
    62d2:	4d1c      	ldr	r5, [pc, #112]	; (6344 <__aeabi_f2d+0x98>)
    62d4:	4332      	orrs	r2, r6
    62d6:	055b      	lsls	r3, r3, #21
    62d8:	402a      	ands	r2, r5
    62da:	085b      	lsrs	r3, r3, #1
    62dc:	4313      	orrs	r3, r2
    62de:	005b      	lsls	r3, r3, #1
    62e0:	07e4      	lsls	r4, r4, #31
    62e2:	085b      	lsrs	r3, r3, #1
    62e4:	4323      	orrs	r3, r4
    62e6:	0019      	movs	r1, r3
    62e8:	bd70      	pop	{r4, r5, r6, pc}
    62ea:	2900      	cmp	r1, #0
    62ec:	d114      	bne.n	6318 <__aeabi_f2d+0x6c>
    62ee:	2d00      	cmp	r5, #0
    62f0:	d01e      	beq.n	6330 <__aeabi_f2d+0x84>
    62f2:	0028      	movs	r0, r5
    62f4:	f000 f82c 	bl	6350 <__clzsi2>
    62f8:	280a      	cmp	r0, #10
    62fa:	dc1c      	bgt.n	6336 <__aeabi_f2d+0x8a>
    62fc:	230b      	movs	r3, #11
    62fe:	002a      	movs	r2, r5
    6300:	1a1b      	subs	r3, r3, r0
    6302:	40da      	lsrs	r2, r3
    6304:	0003      	movs	r3, r0
    6306:	3315      	adds	r3, #21
    6308:	409d      	lsls	r5, r3
    630a:	4b0f      	ldr	r3, [pc, #60]	; (6348 <__aeabi_f2d+0x9c>)
    630c:	0312      	lsls	r2, r2, #12
    630e:	1a1b      	subs	r3, r3, r0
    6310:	055b      	lsls	r3, r3, #21
    6312:	0b16      	lsrs	r6, r2, #12
    6314:	0d5b      	lsrs	r3, r3, #21
    6316:	e7d8      	b.n	62ca <__aeabi_f2d+0x1e>
    6318:	2d00      	cmp	r5, #0
    631a:	d006      	beq.n	632a <__aeabi_f2d+0x7e>
    631c:	0b32      	lsrs	r2, r6, #12
    631e:	2680      	movs	r6, #128	; 0x80
    6320:	0336      	lsls	r6, r6, #12
    6322:	076d      	lsls	r5, r5, #29
    6324:	4316      	orrs	r6, r2
    6326:	4b09      	ldr	r3, [pc, #36]	; (634c <__aeabi_f2d+0xa0>)
    6328:	e7cf      	b.n	62ca <__aeabi_f2d+0x1e>
    632a:	4b08      	ldr	r3, [pc, #32]	; (634c <__aeabi_f2d+0xa0>)
    632c:	2600      	movs	r6, #0
    632e:	e7cc      	b.n	62ca <__aeabi_f2d+0x1e>
    6330:	2300      	movs	r3, #0
    6332:	2600      	movs	r6, #0
    6334:	e7c9      	b.n	62ca <__aeabi_f2d+0x1e>
    6336:	0003      	movs	r3, r0
    6338:	002a      	movs	r2, r5
    633a:	3b0b      	subs	r3, #11
    633c:	409a      	lsls	r2, r3
    633e:	2500      	movs	r5, #0
    6340:	e7e3      	b.n	630a <__aeabi_f2d+0x5e>
    6342:	46c0      	nop			; (mov r8, r8)
    6344:	800fffff 	.word	0x800fffff
    6348:	00000389 	.word	0x00000389
    634c:	000007ff 	.word	0x000007ff

00006350 <__clzsi2>:
    6350:	211c      	movs	r1, #28
    6352:	2301      	movs	r3, #1
    6354:	041b      	lsls	r3, r3, #16
    6356:	4298      	cmp	r0, r3
    6358:	d301      	bcc.n	635e <__clzsi2+0xe>
    635a:	0c00      	lsrs	r0, r0, #16
    635c:	3910      	subs	r1, #16
    635e:	0a1b      	lsrs	r3, r3, #8
    6360:	4298      	cmp	r0, r3
    6362:	d301      	bcc.n	6368 <__clzsi2+0x18>
    6364:	0a00      	lsrs	r0, r0, #8
    6366:	3908      	subs	r1, #8
    6368:	091b      	lsrs	r3, r3, #4
    636a:	4298      	cmp	r0, r3
    636c:	d301      	bcc.n	6372 <__clzsi2+0x22>
    636e:	0900      	lsrs	r0, r0, #4
    6370:	3904      	subs	r1, #4
    6372:	a202      	add	r2, pc, #8	; (adr r2, 637c <__clzsi2+0x2c>)
    6374:	5c10      	ldrb	r0, [r2, r0]
    6376:	1840      	adds	r0, r0, r1
    6378:	4770      	bx	lr
    637a:	46c0      	nop			; (mov r8, r8)
    637c:	02020304 	.word	0x02020304
    6380:	01010101 	.word	0x01010101
	...

0000638c <__aeabi_d2uiz>:
    638c:	b570      	push	{r4, r5, r6, lr}
    638e:	2200      	movs	r2, #0
    6390:	4b0c      	ldr	r3, [pc, #48]	; (63c4 <__aeabi_d2uiz+0x38>)
    6392:	0004      	movs	r4, r0
    6394:	000d      	movs	r5, r1
    6396:	f7fe f963 	bl	4660 <__aeabi_dcmpge>
    639a:	2800      	cmp	r0, #0
    639c:	d104      	bne.n	63a8 <__aeabi_d2uiz+0x1c>
    639e:	0020      	movs	r0, r4
    63a0:	0029      	movs	r1, r5
    63a2:	f000 f811 	bl	63c8 <__aeabi_d2iz>
    63a6:	bd70      	pop	{r4, r5, r6, pc}
    63a8:	4b06      	ldr	r3, [pc, #24]	; (63c4 <__aeabi_d2uiz+0x38>)
    63aa:	2200      	movs	r2, #0
    63ac:	0020      	movs	r0, r4
    63ae:	0029      	movs	r1, r5
    63b0:	f7ff fc2e 	bl	5c10 <__aeabi_dsub>
    63b4:	f000 f808 	bl	63c8 <__aeabi_d2iz>
    63b8:	2380      	movs	r3, #128	; 0x80
    63ba:	061b      	lsls	r3, r3, #24
    63bc:	469c      	mov	ip, r3
    63be:	4460      	add	r0, ip
    63c0:	e7f1      	b.n	63a6 <__aeabi_d2uiz+0x1a>
    63c2:	46c0      	nop			; (mov r8, r8)
    63c4:	41e00000 	.word	0x41e00000

000063c8 <__aeabi_d2iz>:
    63c8:	b530      	push	{r4, r5, lr}
    63ca:	4d13      	ldr	r5, [pc, #76]	; (6418 <__aeabi_d2iz+0x50>)
    63cc:	030a      	lsls	r2, r1, #12
    63ce:	004b      	lsls	r3, r1, #1
    63d0:	0b12      	lsrs	r2, r2, #12
    63d2:	0d5b      	lsrs	r3, r3, #21
    63d4:	0fc9      	lsrs	r1, r1, #31
    63d6:	2400      	movs	r4, #0
    63d8:	42ab      	cmp	r3, r5
    63da:	dd10      	ble.n	63fe <__aeabi_d2iz+0x36>
    63dc:	4c0f      	ldr	r4, [pc, #60]	; (641c <__aeabi_d2iz+0x54>)
    63de:	42a3      	cmp	r3, r4
    63e0:	dc0f      	bgt.n	6402 <__aeabi_d2iz+0x3a>
    63e2:	2480      	movs	r4, #128	; 0x80
    63e4:	4d0e      	ldr	r5, [pc, #56]	; (6420 <__aeabi_d2iz+0x58>)
    63e6:	0364      	lsls	r4, r4, #13
    63e8:	4322      	orrs	r2, r4
    63ea:	1aed      	subs	r5, r5, r3
    63ec:	2d1f      	cmp	r5, #31
    63ee:	dd0b      	ble.n	6408 <__aeabi_d2iz+0x40>
    63f0:	480c      	ldr	r0, [pc, #48]	; (6424 <__aeabi_d2iz+0x5c>)
    63f2:	1ac3      	subs	r3, r0, r3
    63f4:	40da      	lsrs	r2, r3
    63f6:	4254      	negs	r4, r2
    63f8:	2900      	cmp	r1, #0
    63fa:	d100      	bne.n	63fe <__aeabi_d2iz+0x36>
    63fc:	0014      	movs	r4, r2
    63fe:	0020      	movs	r0, r4
    6400:	bd30      	pop	{r4, r5, pc}
    6402:	4b09      	ldr	r3, [pc, #36]	; (6428 <__aeabi_d2iz+0x60>)
    6404:	18cc      	adds	r4, r1, r3
    6406:	e7fa      	b.n	63fe <__aeabi_d2iz+0x36>
    6408:	4c08      	ldr	r4, [pc, #32]	; (642c <__aeabi_d2iz+0x64>)
    640a:	40e8      	lsrs	r0, r5
    640c:	46a4      	mov	ip, r4
    640e:	4463      	add	r3, ip
    6410:	409a      	lsls	r2, r3
    6412:	4302      	orrs	r2, r0
    6414:	e7ef      	b.n	63f6 <__aeabi_d2iz+0x2e>
    6416:	46c0      	nop			; (mov r8, r8)
    6418:	000003fe 	.word	0x000003fe
    641c:	0000041d 	.word	0x0000041d
    6420:	00000433 	.word	0x00000433
    6424:	00000413 	.word	0x00000413
    6428:	7fffffff 	.word	0x7fffffff
    642c:	fffffbed 	.word	0xfffffbed

00006430 <vtable8427>:
    6430:	00000165 00000004 00000004 000001c9     e...............
    6440:	00000177 00000181 ffffffff ffffffff     w...............

00006450 <str8456>:
    6450:	65747461 2074706d 64206f74 64697669     attempt to divid
    6460:	79622065 72657a20 8081806f                       e by zero

00006469 <ref8470>:
    6469:	22808180                                         ..

0000646b <ref8471>:
    646b:	07802280                                         ."

0000646d <ref8472>:
    646d:	72730780                                         ..

0000646f <str8474>:
    646f:	2f637273 70736964 2e79616c ffff7372     src/display.rs..
    647f:	00646fff                                         .

00006480 <panic_bounds_check_loc8481>:
    6480:	0000646f 0000000e 000000d6 ffffffff     od..............

00006490 <str8483>:
    6490:	65747461 2074706d 63206f74 75636c61     attempt to calcu
    64a0:	6574616c 65687420 6d657220 646e6961     late the remaind
    64b0:	77207265 20687469 69642061 6f736976     er with a diviso
    64c0:	666f2072 72657a20 ffffff6f              r of zero...

000064cc <panic_loc8484>:
    64cc:	00006490 00000039 0000646f 0000000e     .d..9...od......
    64dc:	000000f5                                ....

000064e0 <panic_loc8485>:
    64e0:	00006450 00000019 0000646f 0000000e     Pd......od......
    64f0:	000000f8                                ....

000064f4 <ref8486>:
    64f4:	4444447c ffffff7c                       |DDD|...

000064fc <ref8487>:
    64fc:	000064f4 00000005 00000805              .d..........

00006508 <ref8488>:
    6508:	007c0400 ffffff00                       ..|.....

00006510 <ref8489>:
    6510:	00006508 00000005 00000805              .e..........

0000651c <ref8490>:
    651c:	54545474 ffffff5c                       tTTT\...

00006524 <ref8491>:
    6524:	0000651c 00000005 00000805              .e..........

00006530 <ref8492>:
    6530:	54544444 ffffff7c                       DDTT|...

00006538 <ref8493>:
    6538:	00006530 00000005 00000805              0e..........

00006544 <ref8494>:
    6544:	1010101c ffffff7c                       ....|...

0000654c <ref8495>:
    654c:	00006544 00000005 00000805              De..........

00006558 <ref8496>:
    6558:	5454545c ffffff74                       \TTTt...

00006560 <ref8497>:
    6560:	00006558 00000005 00000805              Xe..........

0000656c <ref8498>:
    656c:	5454547c ffffff74                       |TTTt...

00006574 <ref8499>:
    6574:	0000656c 00000005 00000805              le..........

00006580 <ref8500>:
    6580:	04040404 ffffff7c                       ....|...

00006588 <ref8501>:
    6588:	00006580 00000005 00000805              .e..........

00006594 <ref8502>:
    6594:	5454547c ffffff7c                       |TTT|...

0000659c <ref8503>:
    659c:	00006594 00000005 00000805              .e..........

000065a8 <ref8504>:
    65a8:	1414141c ffffff7c                       ....|...

000065b0 <ref8505>:
    65b0:	000065a8 00000005 00000805              .e..........

000065bc <const8506>:
    65bc:	000064fc 00006510 00006524 00006538     .d...e..$e..8e..
    65cc:	0000654c 00006560 00006574 00006588     Le..`e..te...e..
    65dc:	0000659c 000065b0                       .e...e..

000065e4 <panic_bounds_check_loc8507>:
    65e4:	0000646f 0000000e 000000fa              od..........

000065f0 <panic_bounds_check_loc8508>:
    65f0:	0000646f 0000000e 0000010f              od..........

000065fc <panic_loc8509>:
    65fc:	00006490 00000039 0000646f 0000000e     .d..9...od......
    660c:	00000105                                ....

00006610 <panic_loc8510>:
    6610:	00006450 00000019 0000646f 0000000e     Pd......od......
    6620:	00000107                                ....

00006624 <panic_bounds_check_loc8511>:
    6624:	0000646f 0000000e 00000108              od..........

00006630 <vtable8513>:
    6630:	00000165 00000000 00000001 000032f9     e............2..
    6640:	00000091 00000135                       ....5...

00006648 <ref8517>:
    6648:	af80ae80                                         ..

0000664a <ref8518>:
    664a:	c880af80                                         ..

0000664c <ref8519>:
    664c:	a180c880                                         ..

0000664e <ref8520>:
    664e:	2080a180                                         ..

00006650 <ref8521>:
    6650:	00802080                                         . 

00006652 <ref8522>:
    6652:	58300080                                         ..

00006654 <ref8561>:
    6654:	d5aa5830 00127dab                       0X...}..

0000665c <ref8523>:
    665c:	7f802180                                         .!

0000665e <ref8524>:
    665e:	8d807f80                                         ..

00006660 <ref8525>:
    6660:	14808d80                                         ..

00006662 <ref8526>:
    6662:	00001480                                         ..

00006664 <ref8527>:
    6664:	00000000 000003e8 03e80000              ............

00006670 <const8528>:
    6670:	00000008 00000008 00000009 00000009     ................
    6680:	0000000a 0000000a 0000000b 0000000c     ................
    6690:	0000000c 0000000d 0000000e 0000000f     ................
    66a0:	00000010 00000011 00000012 00000013     ................
    66b0:	00000014 00000015 00000017 00000018     ................
    66c0:	00000019 0000001b 0000001d 0000001e     ................
    66d0:	00000020 00000022 00000024 00000026      ..."...$...&...
    66e0:	00000029 0000002b 0000002e 00000030     )...+.......0...
    66f0:	00000033 00000037 0000003a 0000003d     3...7...:...=...
    6700:	00000041 00000045 00000049 0000004d     A...E...I...M...
    6710:	00000052 00000057 0000005c 00000061     R...W...\...a...
    6720:	00000067 0000006e 00000074 0000007b     g...n...t...{...
    6730:	00000082 0000008a 00000092 0000009b     ................
    6740:	000000a4 000000ae 000000b8 000000c3     ................
    6750:	000000cf 000000dc 000000e9 000000f6     ................
    6760:	00000105 00000115 00000125 00000137     ........%...7...
    6770:	00000149 0000015d 00000171 00000187     I...]...q.......
    6780:	0000019f 000001b8 000001d2 000001ed     ................
    6790:	0000020b 0000022a 0000024b 0000026e     ....*...K...n...
    67a0:	00000293 000002ba 000002e3 0000030f     ................
    67b0:	0000033e 00000370 000003a4 000003db     >...p...........
    67c0:	00000416 00000454 00000496 000004dc     ....T...........
    67d0:	00000526 00000574 000005c7 0000061f     &...t...........
    67e0:	0000067d 000006e0 00000748 000007b7     }.......H.......
    67f0:	0000082d 000008a9 0000092d 000009b9     -.......-.......
    6800:	00000a4d 00000ae9 00000b8f 00000c3f     M...........?...
    6810:	00000cfa 00000dc0 00000e91 00000f6f     ............o...
    6820:	0000105a 00001152 0000125a 00001372     Z...R...Z...r...
    6830:	0000149a 000015d3 0000171f 0000187f     ................
    6840:	000019f4 00001b80 00001d22 00001ede     ........".......
    6850:	000020b4 000022a5 000024b5 000026e4     . ..."...$...&..
    6860:	00002934 00002ba7 00002e3f 000030ff     4)...+..?....0..

00006870 <str8530>:
    6870:	2f637273 6973756d 73722e63              src/music.rs

0000687c <panic_bounds_check_loc8531>:
    687c:	00006870 0000000c 00000035              ph......5...

00006888 <const8533>:
    6888:	00006664 00000002 00000001              df..........

00006894 <panic_bounds_check_loc8534>:
    6894:	00006870 0000000c 0000004f              ph......O...

000068a0 <panic_loc8535>:
    68a0:	00006450 00000019 00006870 0000000c     Pd......ph......
    68b0:	00000050                                P...

000068b4 <ref8540>:
    68b4:	81424281 14281428 81424281 14281428     .BB.(.(..BB.(.(.
    68c4:	81424281 04080408 c1828281 040000c0     .BB.............
    68d4:	01424201 84000408 01020281 14281428     .BB.........(.(.
    68e4:	81424201 14281428 81424281 04081428     .BB.(.(..BB.(...
    68f4:	c1c28201 80c0c0c0 41c28281 14000400     ...........A....
    6904:	81424281 14281428 81424281 14281428     .BB.(.(..BB.(.(.
    6914:	81424281 14281428 01020281 70e0e080     .BB.(.(........p
    6924:	31303031 30303030 81e26071 14280400     10010000q`....(.
    6934:	81424281 04081428 c1828201 848084c0     .BB.(...........
    6944:	01c2c281 e0000000 871ffff9 80c0c0c0     ................
    6954:	00000201 83c38080 80800103 f8f8e080     ................
    6964:	01808080 04080408 80800201 fefcf080     ................
    6974:	00808187 ffe18100 80031f7f 0480c0c0     ................
    6984:	81020201 040080c0 81820201 0480c0c0     ................
    6994:	81820201 0400c0c0 80c0c081 381c1f07     ...............8
    69a4:	30303333 33333030 071f1c38 14200000     330000338..... .
    69b4:	81424281 00000028 61c68702 070f1b31     .BB.(......a1...
    69c4:	00000183 3ffff8e0 c103070f 073f7fe1     .......?......?.
    69d4:	f1c20000 018f3ffd f8e00000 80031fff     .....?..........
    69e4:	00000000 03070700 f1010100 0107ffff     ................
    69f4:	e0810101 830f7ffc 03060000 ffff0f01     ................
    6a04:	3ff080f0 fce00007 103137fe 00078f1c     ...?.....71.....
    6a14:	fff9c302 03061f7f 81434101 14200020     .........AC. . .
    6a24:	80424280 14281428 81424280 14281428     .BB.(.(..BB.(.(.
    6a34:	80424281 0e000000 87070707 0d0c0e0e     .BB.............
    6a44:	83000387 0c0e0f0f 81030686 00000000     ................
    6a54:	870f0780 00010306 0f0f0780 01030606     ................
    6a64:	0e0e0000 00000006 3fffe000 0000000f     ...........?....
    6a74:	0f0f0080 01030607 00000000 1f7ff080     ................
    6a84:	8000030f 07030000 060e0e0f 00000103     ................
    6a94:	01070786 14200000 81424201 14281428     ...... ..BB.(.(.
    6aa4:	01424281 14281428 81424201 14281428     .BB.(.(..BB.(.(.
    6ab4:	81424281 14281428 81424281 14281428     .BB.(.(..BB.(.(.
    6ac4:	81424281 14281428 81424281 14281428     .BB.(.(..BB.(.(.
    6ad4:	81424281 14281428 81424281 14281428     .BB.(.(..BB.(.(.
    6ae4:	82004080 06060607 80404183 14281020     .@.......A@. .(.
    6af4:	80424281 06000000 83060686 10200001     .BB........... .
    6b04:	01424280 60800408 00000c30 60c08000     .BB....`0......`
    6b14:	04081830 0c044484 010000f8 00001428     0....D......(...
    6b24:	000438c0 00000000 8160300c 14280400     .8.......0`...(.
    6b34:	81424281 14281428 81424281 14281428     .BB.(.(..BB.(.(.
    6b44:	81424281 14281428 81424281 14281428     .BB.(.(..BB.(.(.
    6b54:	81424281 14281428 81424281 14281428     .BB.(.(..BB.(.(.
    6b64:	81424281 14281428 81424281 14281428     .BB.(.(..BB.(.(.
    6b74:	81424281 14281428 81424281 14281428     .BB.(.(..BB.(.(.
    6b84:	80404081 40301b06 00020280 06030120     .@@...0@.... ...
    6b94:	b1e3c202 0f3c68d8 00004007 0738c000     .....h<..@....8.
    6ba4:	80404001 14281428 30408000 0000061b     .@@.(.(...@0....
    6bb4:	81424281 04281428 21e20201 04c02020     .BB.(.(....!  ..
    6bc4:	81028281 84880408 01020281 84888488     ................
    6bd4:	81820201 00088488 f8080001 04808080     ................
    6be4:	01828201 04880408 0182e281 0480e080     ................
    6bf4:	81828201 04880408 01828281 04081408     ................
    6c04:	0182e281 80888408 00000301 80880400     ................
    6c14:	81018180 040080e0 80808081 00808103     ................
    6c24:	e1820280 00000080 80404183 14281428     .........A@.(.(.
    6c34:	81424281 00281428 810f0080 00200101     .BB.(.(....... .
    6c44:	80010f80 0a0a0700 89000b8a 040a0a0a     ................
    6c54:	8a0a0980 0000040a 8f004080 07080808     .........@......
    6c64:	88074080 00070808 80080780 00080700     .@..............
    6c74:	88080887 0f000007 8f004080 00200000     .........@.... .
    6c84:	80080780 08080807 80404087 0a0a0900     .........@@.....
    6c94:	8040048a 07000807 8f080888 010f0000     ..@.............
    6ca4:	87404080 00000008 81424281 14281428     .@@......BB.(.(.

00006cb4 <ref8541>:
    6cb4:	000068b4 00000400 00004080              .h.......@..

00006cc0 <ref8542>:
    6cc0:	2121c00a 140a14c0 2121c00a 140a14c0     ..!!......!!....
    6cd0:	2121c00a 040a0400 c1818082 040200c0     ..!!............
    6ce0:	0121c00a 84020400 01010082 140a1400     ..!.............
    6cf0:	2121c00a 140a14c0 2121c00a 040a1400     ..!!......!!....
    6d00:	c1c18002 80c2c0c0 41c18082 14020400     ...........A....
    6d10:	2121c00a 140a14c0 2121c00a 140a14c0     ..!!......!!....
    6d20:	2121c00a 140a14c0 0101000a 70e0e080     ..!!...........p
    6d30:	31313030 30303030 81e16070 140a0400     00110000p`......
    6d40:	2121c00a 040a14c0 c1818002 848284c0     ..!!............
    6d50:	01c1c082 e0000000 871ffff9 80c0c0c0     ................
    6d60:	00000002 83c38080 80800103 f8f8e080     ................
    6d70:	01808080 040a0400 8081000a fefcf080     ................
    6d80:	00808187 ffe18100 80031f7f 0480c0c0     ................
    6d90:	81010002 040280c0 8181000a 0482c0c0     ................
    6da0:	81810002 0402c0c0 80c0c082 381c1f07     ...............8
    6db0:	30303333 33333030 071f1c38 14000080     330000338.......
    6dc0:	2121c00a 00000040 61c68702 070f1b31     ..!!@......a1...
    6dd0:	00000183 3ffff8e0 c103070f 073f7fe1     .......?......?.
    6de0:	f1c20000 018f3ffd f8e00000 80031fff     .....?..........
    6df0:	00000000 03070700 f1010100 0107ffff     ................
    6e00:	e0810101 830f7ffc 03060000 ffff0f01     ................
    6e10:	3ff080f0 fce00007 103137fe 00078f1c     ...?.....71.....
    6e20:	fff9c302 03061f7f 2103c101 140000c0     ...........!....
    6e30:	2020c00a 140a14c0 2121c00a 140a14c0     ..  ......!!....
    6e40:	0021c00a 0e000080 07078707 0d0c0e0e     ..!.............
    6e50:	03008307 0c0e0f0f 01038606 000000c0     ................
    6e60:	070f8700 00010386 0f0f0700 01030686     ................
    6e70:	0e0e0000 00000006 3fffe000 0000000f     ...........?....
    6e80:	0f0f8000 01030607 00000000 1f7ff080     ................
    6e90:	0000030f 070300c0 060e0e0f 00000183     ................
    6ea0:	01070706 14000000 2121c00a 140a14c0     ..........!!....
    6eb0:	2121400a 140a14c0 2121c00a 140a14c0     .@!!......!!....
    6ec0:	2121c00a 140a14c0 2121c00a 140a14c0     ..!!......!!....
    6ed0:	2121c00a 140a14c0 2121c00a 140a14c0     ..!!......!!....
    6ee0:	2121c00a 140a14c0 2121c00a 140a14c0     ..!!......!!....
    6ef0:	0200c000 06060687 2000c103 140a10c0     ........... ....
    6f00:	2021c00a 060000c0 03068606 100000c1     ..! ............
    6f10:	2121c008 60820400 00000c30 60c08000     ..!!...`0......`
    6f20:	04081830 0c044484 010000f8 000214c0     0....D..........
    6f30:	000438c0 000000c0 8160300c 140a0400     .8.......0`.....
    6f40:	2121c00a 140a14c0 2121c00a 140a14c0     ..!!......!!....
    6f50:	2121c00a 140a14c0 2121c00a 140a14c0     ..!!......!!....
    6f60:	2121c00a 140a14c0 2121c00a 140a14c0     ..!!......!!....
    6f70:	2121c00a 140a14c0 2121c00a 140a14c0     ..!!......!!....
    6f80:	2121c00a 140a14c0 2121c00a 140a14c0     ..!!......!!....
    6f90:	0020c00a 40301b06 20000080 06030140     .. ...0@... @...
    6fa0:	b1e3c202 0f3c68d8 0000c007 0738c000     .....h<.......8.
    6fb0:	2020c001 140a14c0 30408002 0000061b     ..  ......@0....
    6fc0:	2121c00a 040a14c0 21e10002 04c22020     ..!!.......!  ..
    6fd0:	8101808a 848a0400 0101008a 848a8480     ................
    6fe0:	8181000a 000a8480 f8080000 04828080     ................
    6ff0:	0181800a 048a0400 0181e082 0482e080     ................
    7000:	8181800a 048a0400 0181808a 040a1400     ................
    7010:	0181e082 80888400 20000301 80880400     ........... ....
    7020:	81018180 040080e0 8080808a 00808103     ................
    7030:	e181008a 00000080 2020c103 140a14c0     ..........  ....
    7040:	2121c00a 000a14c0 010f8000 000001c1     ..!!............
    7050:	00018f00 0a0a07c0 09008b0a 040a0a8a     ................
    7060:	0a0a8900 0000048a 0f00c000 07080888     ................
    7070:	0807c000 00070888 00088700 000807c0     ................
    7080:	08088807 0f000087 0f00c000 00000080     ................
    7090:	00088700 08080887 0020c007 0a0a0980     .......... .....
    70a0:	0000840a 07000887 0f088808 010f0080     ................
    70b0:	0700c000 00000088 2121c00a 140a14c0     ..........!!....

000070c0 <ref8543>:
    70c0:	00006cc0 00000400 00004080              .l.......@..

000070cc <ref8544>:
    70cc:	9060050a 050a6090 9060050a 050a6090     ..`..`....`..`..
    70dc:	9060050a 050a0010 c0808582 050200c0     ..`.............
    70ec:	1060050a 85020000 00000582 050a6010     ..`..........`..
    70fc:	9060050a 050a6090 9060050a 050a0010     ..`..`....`.....
    710c:	c0c08102 81c2c0c0 40c08182 05020000     ...........@....
    711c:	9060050a 050a6090 9060050a 050a6090     ..`..`....`..`..
    712c:	9060050a 050a6090 0000050a 71e0e080     ..`..`.........q
    713c:	30303130 31303030 80e06170 050a0000     01000001pa......
    714c:	9060050a 050a2090 c0808502 858280c0     ..`.. ..........
    715c:	00c0c182 e0000000 871ffff9 80c0c0c0     ................
    716c:	00000502 83c38080 80800103 f8f8e080     ................
    717c:	00808080 050a0000 8080050a fefcf080     ................
    718c:	00808187 ffe18100 80031f7f 0580c0c0     ................
    719c:	80000502 050280c0 8080050a 0582c0c0     ................
    71ac:	80800502 0502c0c0 80c0c082 381c1f07     ...............8
    71bc:	30303333 33333030 071f1c38 05004080     330000338....@..
    71cc:	9060050a 00002010 61c68702 070f1b31     ..`.. .....a1...
    71dc:	00000183 3ffff8e0 c103070f 073f7fe1     .......?......?.
    71ec:	f1c20000 018f3ffd f8e00000 80031fff     .....?..........
    71fc:	00000000 03070700 f1010100 0107ffff     ................
    720c:	e0810101 830f7ffc 03060000 ffff0f01     ................
    721c:	3ff080f0 fce00007 103137fe 00078f1c     ...?.....71.....
    722c:	fff9c302 03061f7f 81430101 04006080     ..........C..`..
    723c:	9060040a 040a6090 9060040a 050a6090     ..`..`....`..`..
    724c:	8060050a 0e000080 87070707 0d0c0e0e     ..`.............
    725c:	83000307 0c0e0f0f 81030606 00006080     .............`..
    726c:	870f0700 00010386 0f0f0700 01030686     ................
    727c:	0e0e0000 00000006 3fffe000 0000000f     ...........?....
    728c:	0f0f0000 01030607 00000000 1f7ff080     ................
    729c:	8000030f 07030080 060e0e0f 00004183     .............A..
    72ac:	01070706 04006000 9060050a 050a6090     .....`....`..`..
    72bc:	1060050a 050a6090 9060050a 050a6090     ..`..`....`..`..
    72cc:	9060050a 050a6090 9060050a 050a6090     ..`..`....`..`..
    72dc:	9060050a 050a6090 9060050a 050a6090     ..`..`....`..`..
    72ec:	9060050a 050a6090 9060050a 050a6090     ..`..`....`..`..
    72fc:	82000000 06060687 80400103 050a6090     ..........@..`..
    730c:	9060050a 06004080 83060606 00004081     ..`..@.......@..
    731c:	10600408 60820000 00000c30 61c08000     ..`....`0......a
    732c:	04081830 0c044484 000000f8 00020090     0....D..........
    733c:	000438c0 00006080 8060300c 050a0000     .8...`...0`.....
    734c:	9060050a 050a6090 9060050a 050a6090     ..`..`....`..`..
    735c:	9060050a 050a6090 9060050a 050a6090     ..`..`....`..`..
    736c:	9060050a 050a6090 9060050a 050a6090     ..`..`....`..`..
    737c:	9060050a 050a6090 9060050a 050a6090     ..`..`....`..`..
    738c:	9060050a 050a6090 9060050a 050a6090     ..`..`....`..`..
    739c:	8060000a 40301b06 10000480 06036100     ..`...0@.....a..
    73ac:	b1e3c202 0f3c68d8 00000007 0738c000     .....h<.......8.
    73bc:	90600001 050a6090 30408002 0000061b     ..`..`....@0....
    73cc:	9060050a 050a6090 20e00102 05c22020     ..`..`.....   ..
    73dc:	8000858a 858a0000 0000058a 858a8080     ................
    73ec:	8080050a 010a8080 f8080000 05828080     ................
    73fc:	0080850a 058a0010 0080e182 0582e080     ................
    740c:	8080850a 058a0000 0080858a 050a2010     ............. ..
    741c:	0080e182 80888000 00000301 80880000     ................
    742c:	81018180 040080e0 8080808a 00808103     ................
    743c:	e080058a 00000080 90600103 050a6090     ..........`..`..
    744c:	9060050a 000a6090 810f0000 00006181     ..`..`.......a..
    745c:	80010f00 0a0a0780 89000b0a 040a0a8a     ................
    746c:	8a0a0900 0000048a 8f000000 07080888     ................
    747c:	88070000 00070888 80080700 00080780     ................
    748c:	88080807 0f004087 8f000000 00004080     .....@.......@..
    749c:	80080700 08080887 80600007 0a0a0980     ..........`.....
    74ac:	8040040a 07000887 8f080808 010f0080     ..@.............
    74bc:	87400000 00000088 9060050a 050a6090     ..@.......`..`..

000074cc <ref8545>:
    74cc:	000070cc 00000400 00004080              .p.......@..

000074d8 <ref8546>:
    74d8:	30820582 05304848 30820582 05304848     ...0HH0....0HH0.
    74e8:	30820582 05000808 c0828582 050000c0     ...0............
    74f8:	10820502 85000808 00020582 05304808     .............H0.
    7508:	30820502 05304848 30820582 05000808     ...0HH0....0....
    7518:	c0c28102 81c0c0c0 40c28182 05000000     ...........@....
    7528:	30820582 05304848 30820582 05304848     ...0HH0....0HH0.
    7538:	30820582 05304848 00020582 71e0e080     ...0HH0........q
    7548:	30303130 31303030 80e26170 05300800     01000001pa....0.
    7558:	30820582 05000848 c0828502 858080c0     ...0H...........
    7568:	00c2c182 e0000000 871ffff9 80c0c0c0     ................
    7578:	00000502 83c38080 80800103 f8f8e080     ................
    7588:	00808080 05000808 80800502 fefcf080     ................
    7598:	00808187 ffe18100 80031f7f 0580c0c0     ................
    75a8:	80020502 050080c0 80820502 0580c0c0     ................
    75b8:	80820502 0500c0c0 80c0c082 381c1f07     ...............8
    75c8:	30303333 33333030 071f1c38 05304000     330000338....@0.
    75d8:	30820582 00000048 61c68702 070f1b31     ...0H......a1...
    75e8:	00000183 3ffff8e0 c103070f 073f7fe1     .......?......?.
    75f8:	f1c20000 018f3ffd f8e00000 80031fff     .....?..........
    7608:	00000000 03070700 f1010100 0107ffff     ................
    7618:	e0810101 830f7ffc 03060000 ffff0f01     ................
    7628:	3ff080f0 fce00007 103137fe 00078f1c     ...?.....71.....
    7638:	fff9c302 03061f7f 21830101 04304040     ...........!@@0.
    7648:	30820482 04304848 30820482 05304848     ...0HH0....0HH0.
    7658:	00820582 0e000000 07870707 0d0c0e0e     ................
    7668:	03800387 0c0e0f0f 01830686 00004040     ............@@..
    7678:	070f0780 00010306 0f0f0780 01030606     ................
    7688:	0e0e0000 00000006 3fffe000 0000000f     ...........?....
    7698:	0f0f0080 01030607 00000000 1f7ff080     ................
    76a8:	0000030f 07030040 060e0e0f 00004103     ....@........A..
    76b8:	01070786 04304000 30820502 05304848     .....@0....0HH0.
    76c8:	30020582 05304848 30820502 05304848     ...0HH0....0HH0.
    76d8:	30820582 05304848 30820582 05304848     ...0HH0....0HH0.
    76e8:	30820582 05304848 30820582 05304848     ...0HH0....0HH0.
    76f8:	30820582 05304848 30820582 05304848     ...0HH0....0HH0.
    7708:	02800080 06060607 20800183 05304840     ........... @H0.
    7718:	30820582 06004040 03860686 00204041     ...0@@......A@ .
    7728:	30020480 60800008 00000c30 61c08000     ...0...`0......a
    7738:	04081830 0c044484 000000f8 00000848     0....D......H...
    7748:	000438c0 00004040 8060300c 05300800     .8..@@...0`...0.
    7758:	30820582 05304848 30820582 05304848     ...0HH0....0HH0.
    7768:	30820582 05304848 30820582 05304848     ...0HH0....0HH0.
    7778:	30820582 05304848 30820582 05304848     ...0HH0....0HH0.
    7788:	30820582 05304848 30820582 05304848     ...0HH0....0HH0.
    7798:	30820582 05304848 30820582 05304848     ...0HH0....0HH0.
    77a8:	00800082 40301b06 30020480 06034140     ......0@...0@A..
    77b8:	b1e3c202 0f3c68d8 00000007 0738c000     .....h<.......8.
    77c8:	30800001 05304848 30408002 0000061b     ...0HH0...@0....
    77d8:	30820582 05304848 20e20102 05c02020     ...0HH0....   ..
    77e8:	80028582 85800808 00020582 85808888     ................
    77f8:	80820502 01008888 f8080000 05808080     ................
    7808:	00828502 05800808 0082e182 0580e080     ................
    7818:	80828502 05800808 00828582 05000808     ................
    7828:	0082e182 80808808 20000301 80800800     ........... ....
    7838:	81018180 040080e0 80808082 00808103     ................
    7848:	e0820582 00000080 30800183 05304848     ...........0HH0.
    7858:	30820582 00304848 018f0080 00204141     ...0HH0.....AA .
    7868:	00810f80 0a0a0740 09800b8a 040a0a0a     ....@...........
    7878:	0a8a0980 0000040a 0f800080 07080808     ................
    7888:	08870080 00070808 00880780 00080740     ............@...
    7898:	08880887 0f004007 0f800080 00204000     .....@.......@ .
    78a8:	00880780 08080807 00800087 0a0a0900     ................
    78b8:	0080048a 07000807 0f880888 010f0000     ................
    78c8:	07800080 00000008 30820582 05304848     ...........0HH0.

000078d8 <ref8547>:
    78d8:	000074d8 00000400 00004080              .t.......@..

000078e4 <ref8548>:
    78e4:	41824182 18242418 41824182 18242418     .A.A.$$..A.A.$$.
    78f4:	41824182 08040418 c1828182 000400c0     .A.A............
    7904:	01824102 80040408 01020182 18242418     .A...........$$.
    7914:	41824102 18242418 41824182 00040418     .A.A.$$..A.A....
    7924:	c1c28102 80c0c0c0 41c28182 18040400     ...........A....
    7934:	41824182 18242418 41824182 18242418     .A.A.$$..A.A.$$.
    7944:	41824182 18242418 01020182 70e0e080     .A.A.$$........p
    7954:	31303130 30303030 81e26170 18240400     01010000pa....$.
    7964:	41824182 08042418 c1828102 808484c0     .A.A.$..........
    7974:	01c2c182 e0000000 871ffff9 80c0c0c0     ................
    7984:	00000102 83c38080 80800103 f8f8e080     ................
    7994:	01808080 08040408 80800102 fefcf080     ................
    79a4:	00808187 ffe18100 80031f7f 0080c0c0     ................
    79b4:	81020102 000480c0 81820102 0084c0c0     ................
    79c4:	81820102 0004c0c0 80c0c082 381c1f07     ...............8
    79d4:	30303333 33333030 071f1c38 18200000     330000338..... .
    79e4:	41824182 00002018 61c68702 070f1b31     .A.A. .....a1...
    79f4:	00000183 3ffff8e0 c103070f 073f7fe1     .......?......?.
    7a04:	f1c20000 018f3ffd f8e00000 80031fff     .....?..........
    7a14:	00000000 03070700 f1010100 0107ffff     ................
    7a24:	e0810101 830f7ffc 03060000 ffff0f01     ................
    7a34:	3ff080f0 fce00007 103137fe 00078f1c     ...?.....71.....
    7a44:	fff9c302 03061f7f 41834101 18202000     .........A.A.  .
    7a54:	40824082 18242418 41824082 18242418     .@.@.$$..@.A.$$.
    7a64:	40824182 0e000000 07870707 0d0c0e0e     .A.@............
    7a74:	03800387 0c0e0f0f 41830686 00002000     ...........A. ..
    7a84:	070f0780 00010306 0f0f0780 01030606     ................
    7a94:	0e0e0000 00000006 3fffe000 0000000f     ...........?....
    7aa4:	0f0f0080 01030607 00000000 1f7ff080     ................
    7ab4:	4000030f 07030000 060e0e0f 00000103     ...@............
    7ac4:	01070786 18202000 41824102 18242418     .....  ..A.A.$$.
    7ad4:	41024182 18242418 41824102 18242418     .A.A.$$..A.A.$$.
    7ae4:	41824182 18242418 41824182 18242418     .A.A.$$..A.A.$$.
    7af4:	41824182 18242418 41824182 18242418     .A.A.$$..A.A.$$.
    7b04:	41824182 18242418 41824182 18242418     .A.A.$$..A.A.$$.
    7b14:	02804080 06060607 40804183 18242010     .@.......A.@. $.
    7b24:	40824182 06000000 03860686 10200001     .A.@.......... .
    7b34:	01024080 60800408 00000c30 60c08000     .@.....`0......`
    7b44:	04081830 0c044484 010000f8 00000418     0....D..........
    7b54:	000438c0 00002000 8160300c 18240400     .8... ...0`...$.
    7b64:	41824182 18242418 41824182 18242418     .A.A.$$..A.A.$$.
    7b74:	41824182 18242418 41824182 18242418     .A.A.$$..A.A.$$.
    7b84:	41824182 18242418 41824182 18242418     .A.A.$$..A.A.$$.
    7b94:	41824182 18242418 41824182 18242418     .A.A.$$..A.A.$$.
    7ba4:	41824182 18242418 41824182 18242418     .A.A.$$..A.A.$$.
    7bb4:	00804082 40301b06 00020080 06032100     .@....0@.....!..
    7bc4:	b1e3c202 0f3c68d8 00004007 0738c000     .....h<..@....8.
    7bd4:	40804001 18242418 30408002 0000061b     .@.@.$$...@0....
    7be4:	41824182 08242418 21e20102 00c02020     .A.A.$$....!  ..
    7bf4:	81028182 88840408 01020182 88848488     ................
    7c04:	81820102 00048488 f8080000 08808080     ................
    7c14:	01828102 00840418 0182e182 0080e080     ................
    7c24:	81828102 08840408 01828182 00042418     .............$..
    7c34:	0182e182 80808408 00000301 88840400     ................
    7c44:	81018180 080080e0 80808082 08808103     ................
    7c54:	e1820182 00000080 40804183 18242418     .........A.@.$$.
    7c64:	41824182 00242418 018f0080 00202101     .A.A.$$......! .
    7c74:	40810f80 0a0a0700 09800b8a 040a0a0a     ...@............
    7c84:	0a8a0980 0000040a 0f804080 07080808     .........@......
    7c94:	08874080 00070808 00880780 00080700     .@..............
    7ca4:	08880887 0f000007 0f804080 00200000     .........@.... .
    7cb4:	00880780 08080807 40804087 0a0a0900     .........@.@....
    7cc4:	4080048a 07000807 0f880888 010f0000     ...@............
    7cd4:	07804080 00000008 41824182 18242418     .@.......A.A.$$.

00007ce4 <ref8549>:
    7ce4:	000078e4 00000400 00004080              .x.......@..

00007cf0 <ref8550>:
    7cf0:	41a0410c 12120ca0 41a0410c 12120ca0     .A.A.....A.A....
    7d00:	41a0410c 02020c00 c1808184 020200c0     .A.A............
    7d10:	01a0410c 82020c00 01000184 12120c20     .A.......... ...
    7d20:	41a0410c 12120ca0 41a0410c 02020c20     .A.A.....A.A ...
    7d30:	c1c08104 82c2c0c0 41c08180 12020400     ...........A....
    7d40:	41a0410c 12120ca0 41a0410c 12120ca0     .A.A.....A.A....
    7d50:	41a0410c 12120ca0 0100010c 70e0e080     .A.A...........p
    7d60:	31303130 30303030 81e06170 12120c00     01010000pa......
    7d70:	41a0410c 02020ca0 c1808104 828284c0     .A.A............
    7d80:	01c0c184 e0000000 871ffff9 80c0c0c0     ................
    7d90:	00000104 83c38080 80800103 f8f8e080     ................
    7da0:	01808080 02020c00 8080010c fefcf080     ................
    7db0:	00808187 ffe18100 80031f7f 0280c0c0     ................
    7dc0:	81000104 020280c0 8180010c 0282c0c0     ................
    7dd0:	81800104 0202c0c0 80c0c080 381c1f07     ...............8
    7de0:	30303333 33333030 071f1c38 12100080     330000338.......
    7df0:	41a0410c 00000020 61c68702 070f1b31     .A.A ......a1...
    7e00:	00000183 3ffff8e0 c103070f 073f7fe1     .......?......?.
    7e10:	f1c20000 018f3ffd f8e00000 80031fff     .....?..........
    7e20:	00000000 03070700 f1010100 0107ffff     ................
    7e30:	e0810101 830f7ffc 03060000 ffff0f01     ................
    7e40:	3ff080f0 fce00007 103137fe 00078f1c     ...?.....71.....
    7e50:	fff9c302 03061f7f 41834101 101000a0     .........A.A....
    7e60:	40a0400c 12120ca0 41a0400c 12120ca0     .@.@.....@.A....
    7e70:	40a0410c 0e000080 07870707 0d0c0e0e     .A.@............
    7e80:	03800307 0c0e0f0f 41830606 00000080     ...........A....
    7e90:	070f0700 00010386 0f0f0700 01030686     ................
    7ea0:	0e0e0000 00000006 3fffe000 0000000f     ...........?....
    7eb0:	0f0f0000 01030607 00000000 1f7ff080     ................
    7ec0:	4000030f 07030080 060e0e0f 00000183     ...@............
    7ed0:	01070706 12100000 41a0410c 12120ca0     .........A.A....
    7ee0:	4120410c 12120ca0 41a0410c 12120ca0     .A A.....A.A....
    7ef0:	41a0410c 12120ca0 41a0410c 12120ca0     .A.A.....A.A....
    7f00:	41a0410c 12120ca0 41a0410c 12120ca0     .A.A.....A.A....
    7f10:	41a0410c 12120ca0 41a0410c 10120ca0     .A.A.....A.A....
    7f20:	02804000 06060687 40804103 121208a0     .@.......A.@....
    7f30:	40a0410c 06000080 03860606 10000081     .A.@............
    7f40:	01204008 60820400 00000c30 60c08000     .@ ....`0......`
    7f50:	04081830 0c044484 010000f8 00020ca0     0....D..........
    7f60:	000438c0 00000080 8160300c 12120c00     .8.......0`.....
    7f70:	41a0410c 12120ca0 41a0410c 12120ca0     .A.A.....A.A....
    7f80:	41a0410c 12120ca0 41a0410c 12120ca0     .A.A.....A.A....
    7f90:	41a0410c 12120ca0 41a0410c 12120ca0     .A.A.....A.A....
    7fa0:	41a0410c 12120ca0 41a0410c 12120ca0     .A.A.....A.A....
    7fb0:	41a0410c 12120ca0 41a0410c 12120ca0     .A.A.....A.A....
    7fc0:	00a0400c 40301b06 00000080 06030120     .@....0@.... ...
    7fd0:	b1e3c202 0f3c68d8 00004007 0738c000     .....h<..@....8.
    7fe0:	40a04001 12120ca0 30408004 0000061b     .@.@......@0....
    7ff0:	41a0410c 02120ca0 21e00104 02c22020     .A.A.......!  ..
    8000:	8100818c 82820c00 0100018c 82828c80     ................
    8010:	8180010c 02028c80 f8080000 02828080     ................
    8020:	0180810c 02820c00 0180e180 0282e080     ................
    8030:	8180810c 02820c00 0180818c 02020c00     ................
    8040:	0180e180 80808c00 00000301 80800c00     ................
    8050:	81018180 020080e0 8080808c 00808103     ................
    8060:	e180018c 00000080 40a04103 12120ca0     .........A.@....
    8070:	41a0410c 00120ca0 018f0000 00000181     .A.A............
    8080:	40810f00 0a0a0780 09800b0a 040a0a8a     ...@............
    8090:	0a8a0900 0000048a 0f804000 07080888     .........@......
    80a0:	08874000 00070888 00880700 00080780     .@..............
    80b0:	08880807 0f000087 0f804000 00000080     .........@......
    80c0:	00880700 08080887 40a04007 0a0a0980     .........@.@....
    80d0:	4080040a 07000887 0f880808 010f0080     ...@............
    80e0:	07804000 02000088 41a0410c 12120ca0     .@.......A.A....

000080f0 <ref8551>:
    80f0:	00007cf0 00000400 00004080              .|.......@..

000080fc <ref8552>:
    80fc:	50a00609 090650a0 50a00609 090650a0     ...P.P.....P.P..
    810c:	50a00609 09060000 c0808681 010600c0     ...P............
    811c:	10a00609 81060000 00000681 09065020     ............ P..
    812c:	50a00609 090650a0 50a00609 01061020     ...P.P.....P ...
    813c:	c0c08201 81c2c0c0 40c08281 09060000     ...........@....
    814c:	50a00609 090650a0 50a00609 090650a0     ...P.P.....P.P..
    815c:	50a00609 090650a0 00000609 71e0e080     ...P.P.........q
    816c:	30303031 31303030 80e06071 09060000     10000001q`......
    817c:	50a00609 090610a0 c0808601 818680c0     ...P............
    818c:	00c0c281 e0000000 871ffff9 80c0c0c0     ................
    819c:	00000601 83c38080 80800103 f8f8e080     ................
    81ac:	00808080 09060000 80800609 fefcf080     ................
    81bc:	00808187 ffe18100 80031f7f 0180c0c0     ................
    81cc:	80000601 010680c0 80800609 0186c0c0     ................
    81dc:	80800601 0106c0c0 80c0c081 381c1f07     ...............8
    81ec:	30303333 33333030 071f1c38 09004080     330000338....@..
    81fc:	50a00609 00000020 61c68702 070f1b31     ...P ......a1...
    820c:	00000183 3ffff8e0 c103070f 073f7fe1     .......?......?.
    821c:	f1c20000 018f3ffd f8e00000 80031fff     .....?..........
    822c:	00000000 03070700 f1010100 0107ffff     ................
    823c:	e0810101 830f7ffc 03060000 ffff0f01     ................
    824c:	3ff080f0 fce00007 103137fe 00078f1c     ...?.....71.....
    825c:	fff9c302 03061f7f 41830101 080040a0     ...........A.@..
    826c:	50a00608 080650a0 50a00608 090650a0     ...P.P.....P.P..
    827c:	40a00609 0e000080 07870707 0d0c0e0e     ...@............
    828c:	03800307 0c0e0f0f 41830606 00004080     ...........A.@..
    829c:	070f0700 00010386 0f0f0700 01030686     ................
    82ac:	0e0e0000 00000006 3fffe000 0000000f     ...........?....
    82bc:	0f0f0000 01030607 00000000 1f7ff080     ................
    82cc:	4000030f 07030080 060e0e0f 00004183     ...@.........A..
    82dc:	01070706 08004000 50a00609 090650a0     .....@.....P.P..
    82ec:	50200609 090650a0 50a00609 090650a0     .. P.P.....P.P..
    82fc:	50a00609 090650a0 50a00609 090650a0     ...P.P.....P.P..
    830c:	50a00609 090650a0 50a00609 090650a0     ...P.P.....P.P..
    831c:	50a00609 090650a0 50a00609 090650a0     ...P.P.....P.P..
    832c:	02800000 06060687 40800103 090650a0     ...........@.P..
    833c:	50a00609 06004080 03860606 00004081     ...P.@.......@..
    834c:	10200608 60820000 00000c30 61c08000     .. ....`0......a
    835c:	04081830 0c044484 000000f8 000210a0     0....D..........
    836c:	000438c0 00004080 8060300c 09060000     .8...@...0`.....
    837c:	50a00609 090650a0 50a00609 090650a0     ...P.P.....P.P..
    838c:	50a00609 090650a0 50a00609 090650a0     ...P.P.....P.P..
    839c:	50a00609 090650a0 50a00609 090650a0     ...P.P.....P.P..
    83ac:	50a00609 090650a0 50a00609 090650a0     ...P.P.....P.P..
    83bc:	50a00609 090650a0 50a00609 090650a0     ...P.P.....P.P..
    83cc:	00a00009 40301b06 10000680 06034120     ......0@.... A..
    83dc:	b1e3c202 0f3c68d8 00000007 0738c000     .....h<.......8.
    83ec:	50a00001 090650a0 30408000 0000061b     ...P.P....@0....
    83fc:	50a00609 090650a0 20e00201 01c22020     ...P.P.....   ..
    840c:	80008689 89860000 00000689 89868080     ................
    841c:	80800609 01068080 f8080001 09828080     ................
    842c:	00808609 01860000 0080e281 0182e080     ................
    843c:	80808609 09860000 00808689 01061000     ................
    844c:	0080e281 80808000 00000301 88840000     ................
    845c:	81018180 080080e0 80808089 08808103     ................
    846c:	e0800688 00000080 50a00103 090650a0     ...........P.P..
    847c:	50a00609 000650a0 018f0000 00004181     ...P.P.......A..
    848c:	40810f00 0a0a0780 09800b0a 040a0a8a     ...@............
    849c:	0a8a0900 0000048a 0f800000 07080888     ................
    84ac:	08870000 00070888 00880700 00080780     ................
    84bc:	08880807 0f004087 0f800000 00004080     .....@.......@..
    84cc:	00880700 08080887 40a00007 0a0a0980     ...........@....
    84dc:	4080040a 07000887 0f880808 010f0080     ...@............
    84ec:	07800000 00000088 50a00609 090650a0     ...........P.P..

000084fc <ref8553>:
    84fc:	000080fc 00000400 00004080              .........@..

00008508 <ref8554>:
    8508:	50038484 03285028 50038484 03285028     ...P(P(....P(P(.
    8518:	50038484 03080008 c0838484 030000c0     ...P............
    8528:	10038404 83000008 00030484 03285028     ............(P(.
    8538:	50038404 03285028 50038484 03081028     ...P(P(....P(...
    8548:	c0c38004 83c0c0c0 40c38080 03000000     ...........@....
    8558:	50038484 03285028 50038484 03285028     ...P(P(....P(P(.
    8568:	50038484 03285028 00030484 71e0e080     ...P(P(........q
    8578:	30313030 31303030 80e36070 03280000     00100001p`....(.
    8588:	50038484 03081028 c0838404 838080c0     ...P(...........
    8598:	00c3c084 e0000000 871ffff9 80c0c0c0     ................
    85a8:	00000404 83c38080 80800103 f8f8e080     ................
    85b8:	00808080 03080008 80810404 fefcf080     ................
    85c8:	00808187 ffe18100 80031f7f 0380c0c0     ................
    85d8:	80030404 030080c0 80830404 0380c0c0     ................
    85e8:	80830404 0300c0c0 80c0c080 381c1f07     ...............8
    85f8:	30303333 33333030 071f1c38 03204000     330000338....@ .
    8608:	50038484 00000028 61c68702 070f1b31     ...P(......a1...
    8618:	00000183 3ffff8e0 c103070f 073f7fe1     .......?......?.
    8628:	f1c20000 018f3ffd f8e00000 80031fff     .....?..........
    8638:	00000000 03070700 f1010100 0107ffff     ................
    8648:	e0810101 830f7ffc 03060000 ffff0f01     ................
    8658:	3ff080f0 fce00007 103137fe 00078f1c     ...?.....71.....
    8668:	fff9c302 03061f7f 41038101 00204020     ...........A @ .
    8678:	50028484 02285028 50038484 03285028     ...P(P(....P(P(.
    8688:	40038484 0e000000 07078707 0d0c0e0e     ...@............
    8698:	03008387 0c0e0f0f 41038686 00004000     ...........A.@..
    86a8:	070f8780 00010306 0f0f0780 01030606     ................
    86b8:	0e0e0000 00000006 3fffe000 0000000f     ...........?....
    86c8:	0f0f8080 01030607 00000000 1f7ff080     ................
    86d8:	4000030f 07030000 060e0e0f 00004103     ...@.........A..
    86e8:	01070786 02204000 50038404 03285028     .....@ ....P(P(.
    86f8:	50030484 03285028 50038404 03285028     ...P(P(....P(P(.
    8708:	50038484 03285028 50038484 03285028     ...P(P(....P(P(.
    8718:	50038484 03285028 50038484 03285028     ...P(P(....P(P(.
    8728:	50038484 03285028 50038484 01285028     ...P(P(....P(P(.
    8738:	02008080 06060607 40008183 03285020     ...........@ P(.
    8748:	50038484 06004000 03068686 00204001     ...P.@.......@ .
    8758:	10038480 60800008 00000c30 61c08000     .......`0......a
    8768:	04081830 0c044484 000000f8 00001028     0....D......(...
    8778:	000438c0 00004000 8060300c 03280000     .8...@...0`...(.
    8788:	50038484 03285028 50038484 03285028     ...P(P(....P(P(.
    8798:	50038484 03285028 50038484 03285028     ...P(P(....P(P(.
    87a8:	50038484 03285028 50038484 03285028     ...P(P(....P(P(.
    87b8:	50038484 03285028 50038484 03285028     ...P(P(....P(P(.
    87c8:	50038484 03285028 50038484 03285028     ...P(P(....P(P(.
    87d8:	00008084 40301b06 10020480 06034120     ......0@.... A..
    87e8:	b1e3c202 0f3c68d8 00008007 0738c000     .....h<.......8.
    87f8:	50008001 03285028 30408004 0000061b     ...P(P(...@0....
    8808:	50038484 03285028 20e30004 03c02020     ...P(P(....   ..
    8818:	80038484 83880008 00030484 83888088     ................
    8828:	80830404 03088088 f8080000 03808080     ................
    8838:	00838404 03880008 0083e080 0380e080     ................
    8848:	80838404 03880008 00838484 03081008     ................
    8858:	0083e080 80888008 00000301 80880000     ................
    8868:	81018180 020080e0 80808084 00808103     ................
    8878:	e0830484 00000080 50008183 03285028     ...........P(P(.
    8888:	50038484 00285028 010f8080 00204101     ...P(P(......A .
    8898:	40018f80 0a0a0700 09008b8a 040a0a0a     ...@............
    88a8:	0a0a8980 0000040a 0f008080 07080808     ................
    88b8:	08078080 00070808 00088780 00080700     ................
    88c8:	08088887 0f004007 0f008080 00204000     .....@.......@ .
    88d8:	00088780 08080807 40008087 0a0a0900     ...........@....
    88e8:	4000848a 07000807 0f088888 010f0000     ...@............
    88f8:	07008080 02000008 50038484 03285028     ...........P(P(.

00008908 <ref8555>:
    8908:	00008508 00000400 00004080              .........@..

00008914 <const8556>:
    8914:	00006cb4 000070c0 000074cc 000078d8     .l...p...t...x..
    8924:	00007ce4 000080f0 000084fc 00008908     .|..............

00008934 <ref8557>:
    8934:	00000000 00540000 01000000 00000053     ......T.....S...
    8944:	00510080 01000000 00000050 004f0080     ..Q.....P.....O.
    8954:	01000000 0000004e 004d0080 01000000     ....N.....M.....
    8964:	0000004c 004a0080 00800000 0000004c     L.....J.....L...
    8974:	004d0080 00800000 0000004c 004a0100     ..M.....L.....J.
    8984:	00800000 002b004f 000000bf 01c10000     ....O.+.........
    8994:	00000043 00400080 007f0000 00000000     C.....@.........
    89a4:	00400081 00800000 00000040 003f0080     ..@.....@.....?.
    89b4:	00800000 00000040 00480080 007f0000     ....@.....H.....
    89c4:	00000000 00430081 00800000 00000043     ......C.....C...
    89d4:	0000007f 00810000 00000040 00410080     ........@.....A.
    89e4:	007f0000 00000000 00410081 00800000     ..........A.....
    89f4:	00000041 0000007f 00810000 00000043     A...........C...
    8a04:	00410080 02800045 00000045 003e0080     ..A.E...E.....>.
    8a14:	01000000 0000003e 003e0080 00800000     ....>.....>.....
    8a24:	0000003d 003e0080 00800000 00000047     =.....>.....G...
    8a34:	00450100 00800000 00000045 00410100     ..E.....E.....A.
    8a44:	00800041 003c0040 00400100 0080003c     A...@.<...@.<...
    8a54:	003c0040 00410100 00800000 00400043     @.<...A.....C.@.
    8a64:	00430280 00800000 00000040 00400100     ..C.....@.....@.
    8a74:	00800000 00000040 003f0080 00800000     ....@.....?.....
    8a84:	00000040 004c0080 007f0000 00000000     @.....L.........
    8a94:	00480081 00800000 00000048 00430100     ..H.....H.....C.
    8aa4:	00800000 00000042 004a0100 00800000     ....B.....J.....
    8ab4:	0000004a 004a0100 00800000 0042004a     J.....J.....J.B.
    8ac4:	004a0100 00800042 0042004a 004a0100     ..J.B...J.B...J.
    8ad4:	00800000 00000047 004a0100 00800000     ....G.....J.....
    8ae4:	0000004a 00490080 00800000 0000004a     J.....I.....J...
    8af4:	00450080 01000000 0000004a 004a0080     ..E.....J.....J.
    8b04:	00800000 00000049 004a0080 00800000     ....I.....J.....
    8b14:	0043003b 00420100 00800000 0043003b     ;.C...B.....;.C.
    8b24:	00420100 00800000 0043003b 00430200     ..B.....;.C...C.
    8b34:	01000000 00000040 003f0080 00800000     ....@.....?.....
    8b44:	00000040 00000066 00290000 00000045     @...f.....).E...
    8b54:	00430100 00800000 00000040 003c0180     ..C.....@.....<.
    8b64:	01800000 00350039 003e0180 01800000     ....9.5...>.....
    8b74:	0034003c 00000180 01000000 0000003c     <.4.........<...
    8b84:	003e0080 00800000 00000040 00410080     ..>.....@.....A.
    8b94:	00800000 00000047 00450100 00800000     ....G.....E.....
    8ba4:	00000043 00480180 01800000 00000047     C.....H.....G...
    8bb4:	00430100 00800000 00000045 00420100     ..C.....E.....B.
    8bc4:	00800000 003c0043 00430280 00800000     ....C.<...C.....
    8bd4:	00000045 00450100 00800000 00450045     E.....E.....E.E.
    8be4:	00440080 00800000 00000045 00470080     ..D.....E.....G.
    8bf4:	01800043 0047003e 00480180 01000040     C...>.G...H.@...
    8c04:	00400048 004a0080 00800040 00400048     H.@...J.@...H.@.
    8c14:	004a0080 00800040 004c0048 004c0280     ..J.@...H.L...L.
    8c24:	00800000 004a0045 00480100 00800000     ....E.J...H.....
    8c34:	00000045 00410100 00800000 00000040     E.....A.....@...
    8c44:	003c0180 0100003c 0000003c 003e0080     ..<.<...<.....>.
    8c54:	01800000 0000003b 003c0180 02800000     ....;.....<.....
    8c64:	0000003c 00410080 01000045 00450041     <.....A.E...A.E.
    8c74:	00430080 01000046 00460043 00440080     ..C.F...C.F...D.
    8c84:	01000047 00470044 00450080 01000048     G...D.G...E.H...
    8c94:	00480045 00510080 007f0000 00000000     E.H...Q.........
    8ca4:	00510081 00800000 00000051 00500100     ..Q.....Q.....P.
    8cb4:	00800000 00000051 00480280 00800000     ....Q.....H.....
    8cc4:	00450041 00410100 00800045 00460043     A.E...A.E...C.F.
    8cd4:	00430100 00800046 00470044 00440100     ..C.F...D.G...D.
    8ce4:	00800047 00480045 00450100 00800048     G...E.H...E.H...
    8cf4:	00000052 00000080 00800000 00000052     R...........R...
    8d04:	00520080 01000000 00000051 00520080     ..R.....Q.....R.
    8d14:	02800000 00510051 004f0080 0100004c     ....Q.Q...O.L...
    8d24:	004c004f 004e0080 0100004b 004b004e     O.L...N.K...N.K.
    8d34:	004f0080 0080004c 00000000 00480080     ..O.L.........H.
    8d44:	00800000 00000047 00480100 00800000     ....G.....H.....
    8d54:	004d0051 00510100 0080004d 004d0050     Q.M...Q.M...P.M.
    8d64:	00500100 0080004d 004d0051 00000080     ..P.M...Q.M.....
    8d74:	00800000 00000048 00470080 01000000     ....H.....G.....
    8d84:	00000048 004c0080 01800000 0000004f     H.....L.....O...
    8d94:	004d0180 01000000 0000004f 004a0080     ..M.....O.....J.
    8da4:	01000000 0000004d 004c0080 01000000     ....M.....L.....
    8db4:	0000004d 004a0080 01000000 0000004c     M.....J.....L...
    8dc4:	00480080 01000000 0000004a 00460080     ..H.....J.....F.
    8dd4:	01000000 00000048 00410080 01000045     ....H.....A.E...
    8de4:	00450041 00430080 01000046 00460043     A.E...C.F...C.F.
    8df4:	00440080 01000047 00470044 00450080     ..D.G...D.G...E.
    8e04:	01000048 00480045 00510080 007f0000     H...E.H...Q.....
    8e14:	00000000 00510081 00800000 00000051     ......Q.....Q...
    8e24:	00500100 00800000 00000051 00480280     ..P.....Q.....H.
    8e34:	00800045 00450041 00410100 00800045     E...A.E...A.E...
    8e44:	00460043 00430100 00800046 00470044     C.F...C.F...D.G.
    8e54:	00440100 00800047 00480045 00450100     ..D.G...E.H...E.
    8e64:	00800048 0052004f 00520100 0080004f     H...O.R...R.O...
    8e74:	0052004f 00510100 0080004e 0052004f     O.R...Q.N...O.R.
    8e84:	004f0100 00800052 0052004f 00510100     ..O.R...O.R...Q.
    8e94:	00800051 004f004c 004c0100 0080004f     Q...L.O...L.O...
    8ea4:	004e004b 004b0100 0080004e 004f004c     K.N...K.N...L.O.
    8eb4:	004c0080 00800000 00000048 00470080     ..L.....H.....G.
    8ec4:	01000000 00000048 004d0080 01000051     ....H.....M.Q...
    8ed4:	0051004d 004d0080 01000050 0050004d     M.Q...M.P...M.P.
    8ee4:	004d0080 00800051 0000004d 00480080     ..M.Q...M.....H.
    8ef4:	00800000 00000047 00480100 00800000     ....G.....H.....
    8f04:	0000004a 004f0180 01000052 00000052     J.....O.R...R...
    8f14:	004d0080 01000051 004d004d 004c0080     ..M.Q...M.M...L.
    8f24:	0100004f 004c004c 004d0080 01800000     O...L.L...M.....
    8f34:	0048004d 004d0100 00800045 0041004d     M.H...M.E...M.A.
    8f44:	ffff0600                                ....

00008f48 <const8558>:
    8f48:	00008934 00000103 00000003              4...........

00008f54 <ref8559>:
    8f54:	ee381010 ff101038                       ..8.8...

00008f5c <ref8560>:
    8f5c:	00008f54 00000007 00000807              T...........

00008f68 <ref8562>:
    8f68:	00006654 00000008 00000808              Tf..........

00008f74 <ref8563>:
    8f74:	ff7dd67d                                }.}.

00008f78 <ref8564>:
    8f78:	00008f74 00000003 00000803              t...........

00008f84 <ref8565>:
    8f84:	5fba5c98 985cba5f                       .\.__.\.

00008f8c <ref8567>:
    8f8c:	3e75b81e 1eb8753e                       ..u>>u..

00008f94 <ref8566>:
    8f94:	00008f84 00000008 00000808              ............

00008fa0 <ref8568>:
    8fa0:	00008f8c 00000008 00000808              ............

00008fac <const8569>:
    8fac:	00008f5c 00008f68 00008f78 00008f94     \...h...x.......
    8fbc:	00008fa0                                ....

00008fc0 <str8571>:
    8fc0:	2f637273 6e69616d ff73722e              src/main.rs.

00008fcc <panic_loc8572>:
    8fcc:	00006490 00000039 00008fc0 0000000b     .d..9...........
    8fdc:	00000069                                i...

00008fe0 <ref8573>:
    8fe0:	6448683c 22292922 3c684864              <hHd"))"dHh<

00008fec <const8574>:
    8fec:	00008fe0 0000000c 0000080c              ............

00008ff8 <ref8575>:
    8ff8:	00000000 005d0000 00400040 0040005c     ......].@.@.\.@.
    9008:	005b0040 00400000 0000005a 005b0040     @.[...@.Z...@.[.
    9018:	00400000 0000005a 00590040 00400000     ..@.Z...@.Y...@.
    9028:	00000058 00590040 00400000 00000058     X...@.Y...@.X...
    9038:	00570040 00400000 00000056 00550040     @.W...@.V...@.U.
    9048:	00400000 00000054 00530040 00400000     ..@.T...@.S...@.
    9058:	00000052 00000033 000d0000 00370051     R...3.......Q.7.
    9068:	00500040 00400037 0000004f 004e0040     @.P.7.@.O...@.N.
    9078:	00400000 0000004f 004e0040 00400000     ..@.O...@.N...@.
    9088:	0000004d 004c0040 00400000 0000004d     M...@.L...@.M...
    9098:	004c0040 00400000 0000004b 004a0040     @.L...@.K...@.J.
    90a8:	00400000 00000049 00480040 00400000     ..@.I...@.H...@.
    90b8:	00000047 00460040 00330000 00000000     G...@.F...3.....
    90c8:	0045000d 00400000 00000044 00430040     ..E...@.D...@.C.
    90d8:	00400000 00000042 00430040 00400000     ..@.B...@.C...@.
    90e8:	00000042 00410040 00400000 00000040     B...@.A...@.@...
    90f8:	00450040 00400000 00000044 00430040     @.E...@.D...@.C.
    9108:	00400000 00000042 00430040 00400000     ..@.B...@.C...@.
    9118:	00000042 00410040 00400000 00000040     B...@.A...@.@...
    9128:	00000033 000d0000 00390045 0045003f     3.......E.9.?.E.
    9138:	00010000 00000044 00430040 00400000     ....D...@.C...@.
    9148:	00000042 00410040 00400000 00000046     B...@.A...@.F...
    9158:	00450040 00400000 00000044 00450040     @.E...@.D...@.E.
    9168:	003f0039 00000045 00440001 00400000     9.?.E.....D...@.
    9178:	00000043 00420040 00400000 003b0041     C...@.B...@.A.;.
    9188:	0041003f 00010000 00000042 00430040     ?.A.....B...@.C.
    9198:	00400000 00000044 00000033 000d0000     ..@.D...3.......
    91a8:	00390045 0045003f 00010000 00000044     E.9.?.E.....D...
    91b8:	00430040 00400000 00000042 00410040     @.C...@.B...@.A.
    91c8:	00400000 00000046 00450040 00400000     ..@.F...@.E...@.
    91d8:	00000044 00450040 003f0039 00000045     D...@.E.9.?.E...
    91e8:	00440001 00400000 00000043 00420040     ..D...@.C...@.B.
    91f8:	00400000 003b0041 00420040 0040003b     ..@.A.;.@.B.;.@.
    9208:	00000043 00440040 00330000 00000000     C...@.D...3.....
    9218:	0045000d 00400039 00390044 00430040     ..E.9.@.D.9.@.C.
    9228:	00400000 00000042 00430040 0040003a     ..@.B...@.C.:.@.
    9238:	003a0042 00410040 00400000 00000040     B.:.@.A...@.@...
    9248:	00410040 00400039 00390042 00430040     @.A.9.@.B.9.@.C.
    9258:	00400000 00000044 00450040 00400039     ..@.D...@.E.9.@.
    9268:	00390046 00450040 00400000 00000044     F.9.@.E...@.D...
    9278:	00000033 000d0000 00390045 00440040     3.......E.9.@.D.
    9288:	00400039 00000043 00420040 00400000     9.@.C...@.B...@.
    9298:	003a0043 00420040 0040003a 00000041     C.:.@.B.:.@.A...
    92a8:	00400040 00400000 00390041 00420040     @.@...@.A.9.@.B.
    92b8:	00400039 00000043 00440040 00400000     9.@.C...@.D...@.
    92c8:	0045003d 003d0040 00400047 00000048     =.E.@.=.G.@.H...
    92d8:	00490040 00330000 00000000 004a000d     @.I...3.......J.
    92e8:	0040003c 003c0049 00480040 00400000     <.@.I.<.@.H...@.
    92f8:	00000047 003a0040 00400046 004b003a     G...@.:.F.@.:.K.
    9308:	004a0040 00400000 00000049 004a0040     @.J...@.I...@.J.
    9318:	0040003e 003e0049 00480040 00400000     >.@.I.>.@.H...@.
    9328:	00000047 00460040 00400040 00400047     G...@.F.@.@.G.@.
    9338:	00480040 00400000 00000049 00000033     @.H...@.I...3...
    9348:	000d0000 003e004a 00490040 0040003e     ....J.>.@.I.>.@.
    9358:	00000048 00470040 00400000 00000046     H...@.G...@.F...
    9368:	004b0040 00400000 0000004a 00490040     @.K...@.J...@.I.
    9378:	00400000 003e004a 00490040 0040003e     ..@.J.>.@.I.>.@.
    9388:	00000048 00470040 00400000 00400046     H...@.G...@.F.@.
    9398:	00470040 00400040 00000048 00490040     @.G.@.@.H...@.I.
    93a8:	00330000 00000000 004a000d 0040003e     ..3.......J.>.@.
    93b8:	003e0049 00480040 00400000 00000047     I.>.@.H...@.G...
    93c8:	00480040 0040003f 003f0047 00460040     @.H.?.@.G.?.@.F.
    93d8:	00400000 00000045 00460040 0040003e     ..@.E...@.F.>.@.
    93e8:	003e0047 00480040 00400000 00000049     G.>.@.H...@.I...
    93f8:	004a0040 0040003e 003e004b 004a0040     @.J.>.@.K.>.@.J.
    9408:	00400000 00000049 00000033 000d0000     ..@.I...3.......
    9418:	003e004a 00490040 0040003e 00000048     J.>.@.I.>.@.H...
    9428:	00470040 00400000 003f0048 00470040     @.G...@.H.?.@.G.
    9438:	0040003f 00000046 00450040 00400000     ?.@.F...@.E...@.
    9448:	003e0046 00470040 0040003e 00000048     F.>.@.G.>.@.H...
    9458:	00490040 00400000 003e004a 004b0040     @.I...@.J.>.@.K.
    9468:	0040003e 0000004a 00490040 00330000     >.@.J...@.I...3.
    9478:	00000000 004a000d 003f003a 0000004a     ......J.:.?.J...
    9488:	003e0001 00330000 00000000 003e000d     ..>...3.......>.
    9498:	001f0000 00000000 003e0021 001f0000     ........!.>.....
    94a8:	00000000 003e0021 001f0000 00000000     ....!.>.........
    94b8:	003e0021 001f0000 00000000 003e0021     !.>.........!.>.
    94c8:	001f0000 00000000 003e0021 001f0000     ........!.>.....
    94d8:	00000000 003f0021 00400000 0000003e     ....!.?...@.>...
    94e8:	003f0040 00400000 0000004b 003f0040     @.?...@.K...@.?.
    94f8:	00400000 0000003e 003f0040 00400000     ..@.>...@.?...@.
    9508:	0000004b 004a0040 001f003e 0000003e     K...@.J.>...>...
    9518:	004a0021 001f0000 00000000 004a0021     !.J.........!.J.
    9528:	001f0000 00000000 004a0021 001f0000     ........!.J.....
    9538:	00000000 004a0021 001f0000 00000000     ....!.J.........
    9548:	004a0021 001f0000 00000000 004a0021     !.J.........!.J.
    9558:	001f0000 00000000 004a0021 001f0000     ........!.J.....
    9568:	00000000 00490021 001f004b 00000000     ....!.I.K.......
    9578:	004a0021 001f0000 00000000 00490021     !.J.........!.I.
    9588:	001f004b 00000000 00490061 001f004b     K.......a.I.K...
    9598:	00000000 004a0021 001f0000 00000000     ....!.J.........
    95a8:	00490021 001f004b 00000000 004a0061     !.I.K.......a.J.
    95b8:	00400000 0000004b 004a0040 00400000     ..@.K...@.J...@.
    95c8:	00000049 004a0040 00400000 0000004b     I...@.J...@.K...
    95d8:	004a0040 00400000 00000049 004a0040     @.J...@.I...@.J.
    95e8:	003f003e 0000004a 004b0001 00400000     >.?.J.....K...@.
    95f8:	003d004a 004a003f 00010000 00000049     J.=.?.J.....I...
    9608:	004a0040 003f003c 0000004a 004b0001     @.J.<.?.J.....K.
    9618:	00400000 003b004a 004a003f 00010000     ..@.J.;.?.J.....
    9628:	00000049 00000033 000d0000 003a004a     I...3.......J.:.
    9638:	004b0040 0040003a 003a004c 004d0040     @.K.:.@.L.:.@.M.
    9648:	0040003a 003a004e 004d0040 0040003a     :.@.N.:.@.M.:.@.
    9658:	003a004c 004b0040 0040003a 003a004a     L.:.@.K.:.@.J.:.
    9668:	004b0040 0040003a 003a004c 004d0040     @.K.:.@.L.:.@.M.
    9678:	0040003a 003a004e 004d0040 0040003a     :.@.N.:.@.M.:.@.
    9688:	003a004c 004b0040 0033003a 0000003a     L.:.@.K.:.3.:...
    9698:	004a000d 003f0043 0000004a 00430001     ..J.C.?.J.....C.
    96a8:	00330000 00000000 0043000d 001f0000     ..3.......C.....
    96b8:	00000000 00430021 001f0000 00000000     ....!.C.........
    96c8:	00430021 001f0000 00000000 00430021     !.C.........!.C.
    96d8:	001f0000 00000000 00430021 001f0000     ........!.C.....
    96e8:	00000000 00430021 001f0000 00000000     ....!.C.........
    96f8:	00440021 00400000 00000043 00440040     !.D...@.C...@.D.
    9708:	00400000 00000050 00440040 00400000     ..@.P...@.D...@.
    9718:	00000043 00440040 00400000 00000050     C...@.D...@.P...
    9728:	00430040 00400043 0000004f 0000001f     @.C.C.@.O.......
    9738:	00210000 0000004f 0000001f 00210000     ..!.O.........!.
    9748:	0000004f 0000001f 00210000 0000004f     O.........!.O...
    9758:	0000001f 00210000 0000004f 0000001f     ......!.O.......
    9768:	00210000 0000004f 0000001f 00210000     ..!.O.........!.
    9778:	0000004f 0000001f 00210000 0050004e     O.........!.N.P.
    9788:	004f0040 00400000 0050004e 00000040     @.O...@.N.P.@...
    9798:	00400000 0050004e 004f0040 00400000     ..@.N.P.@.O...@.
    97a8:	0050004e 00000040 00400000 0000004f     N.P.@.....@.O...
    97b8:	00500040 00400000 0000004f 004e0040     @.P...@.O...@.N.
    97c8:	00400000 0000004f 00500040 00400000     ..@.O...@.P...@.
    97d8:	0000004f 004e0040 00330000 00000000     O...@.N...3.....
    97e8:	004f000d 00400043 00430050 004f0040     ..O.C.@.P.C.@.O.
    97f8:	00400042 0042004e 004f0040 00400041     B.@.N.B.@.O.A.@.
    9808:	00410050 004f0040 00400040 0040004e     P.A.@.O.@.@.N.@.
    9818:	00400033 000d0000 003f004f 00500040     3.@.....O.?.@.P.
    9828:	0040003f 003f0051 00520040 0040003f     ?.@.Q.?.@.R.?.@.
    9838:	003f0053 00520040 0040003f 003f0051     S.?.@.R.?.@.Q.?.
    9848:	00500040 0033003f 0000003f 004f000d     @.P.?.3.?.....O.
    9858:	0040003f 003f0050 00510040 0040003f     ?.@.P.?.@.Q.?.@.
    9868:	003f0052 00530040 0040003f 003f0052     R.?.@.S.?.@.R.?.
    9878:	00510040 0040003f 003f0050 003f0033     @.Q.?.@.P.?.3.?.
    9888:	000d0000 0043004f 004e0040 00400000     ....O.C.@.N...@.
    9898:	0000004d 004c0040 00400000 0000004b     M...@.L...@.K...
    98a8:	00500040 00400000 0000004f 004e0040     @.P...@.O...@.N.
    98b8:	00400000 0048004f 004f003f 00010000     ..@.O.H.?.O.....
    98c8:	0000004e 004d0040 00400000 0000004c     N...@.M...@.L...
    98d8:	004b0040 003f0048 0000004b 004c0001     @.K.H.?.K.....L.
    98e8:	00400000 0000004d 004e0040 00330000     ..@.M...@.N...3.
    98f8:	00000000 004f000d 00400048 0048004e     ......O.H.@.N.H.
    9908:	004d0040 00400000 0000004c 004d0040     @.M...@.L...@.M.
    9918:	00400044 0044004c 004b0040 00400000     D.@.L.D.@.K...@.
    9928:	0000004a 004b0040 00400043 0043004c     J...@.K.C.@.L.C.
    9938:	004d0040 00400000 0000004e 004d0040     @.M...@.N...@.M.
    9948:	0040003e 003e004e 004f0040 00400000     >.@.N.>.@.O...@.
    9958:	00000050 00000033 000d0000 00430051     P...3.......Q.C.
    9968:	00500040 00400043 0000004f 004e0040     @.P.C.@.O...@.N.
    9978:	00400000 0045004f 004e0040 00400045     ..@.O.E.@.N.E.@.
    9988:	0045004d 004c0040 00400045 0045004d     M.E.@.L.E.@.M.E.
    9998:	004c0040 00400045 0045004b 004a0040     @.L.E.@.K.E.@.J.
    99a8:	00400045 00450049 0049003f 00010000     E.@.I.E.?.I.....
    99b8:	00000048 00470040 00400000 00000046     H...@.G...@.F...
    99c8:	00000033 000d0000 00450045 0000003f     3.......E.E.?...
    99d8:	000b0000 00000046 00450040 00400000     ....F...@.E...@.
    99e8:	00000044 00450040 003f0045 00000000     D...@.E.E.?.....
    99f8:	0046000b 00400000 00410045 0045003f     ..F...@.E.A.?.E.
    9a08:	00010000 00000044 00450040 003f003e     ....D...@.E.>.?.
    9a18:	00000045 00460001 00400000 003a0045     E.....F...@.E.:.
    9a28:	0045003f 00010000 00000044 00450040     ?.E.....D...@.E.
    9a38:	003f003e 00000045 00460001 00400000     >.?.E.....F...@.
    9a48:	00410045 0045003f 00010000 00000044     E.A.?.E.....D...
    9a58:	00000033 000d0000 00450045 0000003f     3.......E.E.?...
    9a68:	000b0000 00000046 00450040 00400000     ....F...@.E...@.
    9a78:	00000044 00450040 003f0045 00000000     D...@.E.E.?.....
    9a88:	0046000b 00400000 00350045 0045003f     ..F...@.E.5.?.E.
    9a98:	00010000 00000044 00450040 003f0032     ....D...@.E.2.?.
    9aa8:	00000045 00460001 00400000 002e0045     E.....F...@.E...
    9ab8:	0045003f 00010000 00000044 00450040     ?.E.....D...@.E.
    9ac8:	003f0032 00000045 00460001 00400000     2.?.E.....F...@.
    9ad8:	00350045 0045003f 00010000 00000044     E.5.?.E.....D...
    9ae8:	00000033 000d0000 00450045 0000003f     3.......E.E.?...
    9af8:	000b0000 00000044 00430040 00400000     ....D...@.C...@.
    9b08:	00000042 00430040 00400000 00000042     B...@.C...@.B...
    9b18:	00410040 00400000 00000040 00410040     @.A...@.@...@.A.
    9b28:	00400000 00000040 003f0040 00400000     ..@.@...@.?...@.
    9b38:	0000003e 003d0040 00400000 0000003c     >...@.=...@.<...
    9b48:	003b0040 00400000 0000003a 00000033     @.;...@.:...3...
    9b58:	000d0000 00000039 003a0040 00400000     ....9...@.:...@.
    9b68:	00000039 00380040 00400000 00390039     9...@.8...@.9.9.
    9b78:	0000003f 000b0000 0000003a 00390040     ?.......:...@.9.
    9b88:	003f0035 00000039 00380001 00400000     5.?.9.....8...@.
    9b98:	00320039 0039003f 00010000 0000003a     9.2.?.9.....:...
    9ba8:	00390040 003f002e 00000039 00380001     @.9...?.9.....8.
    9bb8:	00400000 00320039 0039003f 00010000     ..@.9.2.?.9.....
    9bc8:	0000003a 00390040 003f0035 00000039     :...@.9.5.?.9...
    9bd8:	00380001 00330000 00000000 0039000d     ..8...3.......9.
    9be8:	00400039 0000003a 00390040 00400000     9.@.:...@.9...@.
    9bf8:	00000038 00390040 003f0045 00000039     8...@.9.E.?.9...
    9c08:	003a0001 00400000 00410039 0039003f     ..:...@.9.A.?.9.
    9c18:	00010000 00000038 00390040 003f003e     ....8...@.9.>.?.
    9c28:	00000039 003a0001 00400000 003a0039     9.....:...@.9.:.
    9c38:	0039003f 00010000 00000038 00390040     ?.9.....8...@.9.
    9c48:	003f003e 00000039 003a0001 00400000     >.?.9.....:...@.
    9c58:	00410039 0039003f 00010000 00000038     9.A.?.9.....8...
    9c68:	00000033 000d0000 00450039 003a0040     3.......9.E.@.:.
    9c78:	00400045 0045003b 003c0040 00400045     E.@.;.E.@.<.E.@.
    9c88:	0045003d 003e0040 00400045 0045003f     =.E.@.>.E.@.?.E.
    9c98:	00400040 00400045 00510041 00420040     @.@.E.@.A.Q.@.B.
    9ca8:	00400051 00510043 00440040 00400051     Q.@.C.Q.@.D.Q.@.
    9cb8:	00510045 00460040 00400051 00510047     E.Q.@.F.Q.@.G.Q.
    9cc8:	00480040 00330051 00000051 0049000d     @.H.Q.3.Q.....I.
    9cd8:	00400051 0051004a 004b0040 00400051     Q.@.J.Q.@.K.Q.@.
    9ce8:	0051004c 004d0040 00400045 0045004e     L.Q.@.M.E.@.N.E.
    9cf8:	004f0040 00400045 00450050 00510040     @.O.E.@.P.E.@.Q.
    9d08:	00400039 00390052 00510040 00400039     9.@.R.9.@.Q.9.@.
    9d18:	00390050 00510040 00400039 00390052     P.9.@.Q.9.@.R.9.
    9d28:	00510040 00330039 00000039 0050000d     @.Q.9.3.9.....P.
    9d38:	00400039 00390045 0045003f 00010000     9.@.E.9.?.E.....
    9d48:	00000044 00430040 00400000 00000042     D...@.C...@.B...
    9d58:	00410040 00400000 00000046 00450040     @.A...@.F...@.E.
    9d68:	00400000 00000044 00450040 003f0039     ..@.D...@.E.9.?.
    9d78:	00000045 00440001 00400000 00000043     E.....D...@.C...
    9d88:	00420040 00400000 003b0041 0041003f     @.B...@.A.;.?.A.
    9d98:	00010000 00000042 00430040 00400000     ....B...@.C...@.
    9da8:	00000044 00000033 000d0000 00390045     D...3.......E.9.
    9db8:	0045003f 00010000 00000044 00430040     ?.E.....D...@.C.
    9dc8:	00400000 00000042 00410040 00400000     ..@.B...@.A...@.
    9dd8:	00000046 00450040 00400000 00000044     F...@.E...@.D...
    9de8:	00450040 003f0039 00000045 00440001     @.E.9.?.E.....D.
    9df8:	00400000 00000043 00420040 00400000     ..@.C...@.B...@.
    9e08:	003b0041 00420040 0040003b 00000043     A.;.@.B.;.@.C...
    9e18:	00440040 00330000 00000000 0045000d     @.D...3.......E.
    9e28:	00400039 00390044 00430040 00400000     9.@.D.9.@.C...@.
    9e38:	00000042 00430040 0040003a 003a0042     B...@.C.:.@.B.:.
    9e48:	00410040 00400000 00000040 00410040     @.A...@.@...@.A.
    9e58:	00400039 00390042 00430040 00400000     9.@.B.9.@.C...@.
    9e68:	00000044 00450040 00400037 00370046     D...@.E.7.@.F.7.
    9e78:	00450040 00400000 00000044 00000033     @.E...@.D...3...
    9e88:	000d0000 00390045 00440040 00400039     ....E.9.@.D.9.@.
    9e98:	00000043 00420040 00400000 003a0043     C...@.B...@.C.:.
    9ea8:	00420040 0040003a 00000041 00400040     @.B.:.@.A...@.@.
    9eb8:	00400000 00390041 00420040 00400039     ..@.A.9.@.B.9.@.
    9ec8:	00000043 00440040 00400000 00390045     C...@.D...@.E.9.
    9ed8:	00470040 00400039 00000048 00490040     @.G.9.@.H...@.I.
    9ee8:	00330000 00000000 004a000d 0040003c     ..3.......J.<.@.
    9ef8:	003c0049 00480040 00400000 00000047     I.<.@.H...@.G...
    9f08:	00460040 0040003a 003a004b 004a0040     @.F.:.@.K.:.@.J.
    9f18:	00400000 00000049 004a0040 0040003e     ..@.I...@.J.>.@.
    9f28:	003e0049 00480040 00400000 00000047     I.>.@.H...@.G...
    9f38:	00460040 00400040 00400047 00480040     @.F.@.@.G.@.@.H.
    9f48:	00400000 00000049 00000033 000d0000     ..@.I...3.......
    9f58:	003e004a 00490040 0040003e 00000048     J.>.@.I.>.@.H...
    9f68:	00470040 00400000 00000046 004b0040     @.G...@.F...@.K.
    9f78:	00400000 0000004a 00490040 00400000     ..@.J...@.I...@.
    9f88:	003e004a 00490040 0040003e 00000048     J.>.@.I.>.@.H...
    9f98:	00470040 00400000 00400046 00470040     @.G...@.F.@.@.G.
    9fa8:	00400040 00000048 00490040 00330000     @.@.H...@.I...3.
    9fb8:	00000000 004a000d 0040003e 003e0049     ......J.>.@.I.>.
    9fc8:	00480040 00400000 00000047 00480040     @.H...@.G...@.H.
    9fd8:	0040003f 003f0047 00460040 00400000     ?.@.G.?.@.F...@.
    9fe8:	00000045 00460040 0040003e 003e0047     E...@.F.>.@.G.>.
    9ff8:	00480040 00400000 00000049 004a0040     @.H...@.I...@.J.
    a008:	0040003e 003e004b 004a0040 00400000     >.@.K.>.@.J...@.
    a018:	00000049 00000033 000d0000 003e004a     I...3.......J.>.
    a028:	00490040 0040003e 00000048 00470040     @.I.>.@.H...@.G.
    a038:	00400000 003f0048 00470040 0040003f     ..@.H.?.@.G.?.@.
    a048:	00000046 00450040 00400000 003e0046     F...@.E...@.F.>.
    a058:	00470040 0040003e 00000048 00490040     @.G.>.@.H...@.I.
    a068:	00400000 003e004a 004b0040 0040003e     ..@.J.>.@.K.>.@.
    a078:	0000004a 00490040 00330000 00000000     J...@.I...3.....
    a088:	003a000d 003f004a 0000004a 003e0001     ..:.J.?.J.....>.
    a098:	00330000 00000000 003e000d 001f0000     ..3.......>.....
    a0a8:	00000000 003e0021 001f0000 00000000     ....!.>.........
    a0b8:	003e0021 001f0000 00000000 003e0021     !.>.........!.>.
    a0c8:	001f0000 00000000 003e0021 001f0000     ........!.>.....
    a0d8:	00000000 003e0021 001f0000 00000000     ....!.>.........
    a0e8:	003d0021 0040003f 0000003e 003d0040     !.=.?.@.>...@.=.
    a0f8:	0040003f 0000004b 003d0040 0040003f     ?.@.K...@.=.?.@.
    a108:	0000003e 003d0040 0040003f 0000004b     >...@.=.?.@.K...
    a118:	004a0040 001f003e 0000003e 004a0021     @.J.>...>...!.J.
    a128:	001f0000 00000000 004a0021 001f0000     ........!.J.....
    a138:	00000000 004a0021 001f0000 00000000     ....!.J.........
    a148:	004a0021 001f0000 00000000 004a0021     !.J.........!.J.
    a158:	001f0000 00000000 004a0021 001f0000     ........!.J.....
    a168:	00000000 004a0021 001f0000 00000000     ....!.J.........
    a178:	00490021 001f004b 00000000 004a0021     !.I.K.......!.J.
    a188:	001f0000 00000000 00490021 001f004b     ........!.I.K...
    a198:	00000000 00570021 001f0000 00000000     ....!.W.........
    a1a8:	00490021 001f004b 00000000 004a0021     !.I.K.......!.J.
    a1b8:	001f0000 00000000 00490021 001f004b     ........!.I.K...
    a1c8:	00000000 00570021 00400000 004a0056     ....!.W...@.V.J.
    a1d8:	004b0040 00400000 0000004a 00490040     @.K...@.J...@.I.
    a1e8:	00400000 0000004a 004b0040 00400000     ..@.J...@.K...@.
    a1f8:	0000004a 00490040 00400000 003e004a     J...@.I...@.J.>.
    a208:	004a003f 00010000 0000004b 003f0040     ?.J.....K...@.?.
    a218:	003f004a 0000004a 00490001 00400000     J.?.J.....I...@.
    a228:	004a0040 004a003f 00010000 0000004b     @.J.?.J.....K...
    a238:	00410040 003f004a 0000004a 00490001     @.A.J.?.J.....I.
    a248:	00330000 00000000 004a000d 00400042     ..3.......J.B.@.
    a258:	003e004b 004c0040 00400042 003e004d     K.>.@.L.B.@.M.>.
    a268:	004e0040 00400042 003e004d 004c0040     @.N.B.@.M.>.@.L.
    a278:	00400042 003e004b 004a0040 00400042     B.@.K.>.@.J.B.@.
    a288:	003e004b 004c0040 00400042 003e004d     K.>.@.L.B.@.M.>.
    a298:	004e0040 00400042 003e004d 004c0040     @.N.B.@.M.>.@.L.
    a2a8:	00400042 003e004b 003e0033 000d0000     B.@.K.>.3.>.....
    a2b8:	0043004a 004a003f 00010000 00000043     J.C.?.J.....C...
    a2c8:	00000033 000d0000 00000043 0000001f     3.......C.......
    a2d8:	00210000 00000043 0000001f 00210000     ..!.C.........!.
    a2e8:	00000043 0000001f 00210000 00000043     C.........!.C...
    a2f8:	0000001f 00210000 00000043 0000001f     ......!.C.......
    a308:	00210000 00000043 0000001f 00210000     ..!.C.........!.
    a318:	00440042 00430040 00400000 00440042     B.D.@.C...@.B.D.
    a328:	00500040 00400000 00440042 00430040     @.P...@.B.D.@.C.
    a338:	00400000 00440042 00500040 00400000     ..@.B.D.@.P...@.
    a348:	00430043 004f0040 001f0000 00000000     C.C.@.O.........
    a358:	004f0021 001f0000 00000000 004f0021     !.O.........!.O.
    a368:	001f0000 00000000 004f0021 001f0000     ........!.O.....
    a378:	00000000 004f0021 001f0000 00000000     ....!.O.........
    a388:	004f0021 001f0000 00000000 004f0021     !.O.........!.O.
    a398:	001f0000 00000000 004e0021 00400050     ........!.N.P.@.
    a3a8:	0000004f 004e0040 00400050 0000005c     O...@.N.P.@.\...
    a3b8:	004e0040 00400050 0000004f 004e0040     @.N.P.@.O...@.N.
    a3c8:	00400050 0000005c 005b0040 0040004f     P.@.\...@.[.O.@.
    a3d8:	00000050 004f0040 00400000 0000004e     P...@.O...@.N...
    a3e8:	004f0040 00400000 00000050 004f0040     @.O...@.P...@.O.
    a3f8:	00400000 0000004e 00000033 000d0000     ..@.N...3.......
    a408:	0043004f 00500040 00400043 004f0044     O.C.@.P.C.@.D.O.
    a418:	004f003f 00010000 0000004e 00450040     ?.O.....N...@.E.
    a428:	003f004f 0000004f 00500001 00400000     O.?.O.....P...@.
    a438:	004f0046 004f003f 00010000 0000004e     F.O.?.O.....N...
    a448:	00000033 000d0000 0047004f 00500040     3.......O.G.@.P.
    a458:	00400043 00470051 00520040 00400043     C.@.Q.G.@.R.C.@.
    a468:	00470053 00520040 00400043 00470051     S.G.@.R.C.@.Q.G.
    a478:	00500040 00330043 00000043 004f000d     @.P.C.3.C.....O.
    a488:	00400047 00430050 00510040 00400047     G.@.P.C.@.Q.G.@.
    a498:	00430052 00530040 00400047 00430052     R.C.@.S.G.@.R.C.
    a4a8:	00510040 00400047 00430050 00430033     @.Q.G.@.P.C.3.C.
    a4b8:	000d0000 0043004f 004e0040 00400000     ....O.C.@.N...@.
    a4c8:	0000004d 004c0040 00400000 0000004b     M...@.L...@.K...
    a4d8:	00500040 00400000 0000004f 004e0040     @.P...@.O...@.N.
    a4e8:	00400000 0048004f 004f003f 00010000     ..@.O.H.?.O.....
    a4f8:	0000004e 004d0040 00400000 0000004c     N...@.M...@.L...
    a508:	004b0040 003f0048 0000004b 004c0001     @.K.H.?.K.....L.
    a518:	00400000 0000004d 004e0040 00330000     ..@.M...@.N...3.
    a528:	00000000 004f000d 00400048 0048004e     ......O.H.@.N.H.
    a538:	004d0040 00400000 0000004c 004d0040     @.M...@.L...@.M.
    a548:	00400044 0044004c 004b0040 00400000     D.@.L.D.@.K...@.
    a558:	0000004a 004b0040 00400043 0043004c     J...@.K.C.@.L.C.
    a568:	004d0040 00400000 0000004e 003e0040     @.M...@.N...@.>.
    a578:	0040004d 004e003e 004f0040 00400000     M.@.>.N.@.O...@.
    a588:	00000050 00000033 000d0000 00430051     P...3.......Q.C.
    a598:	00500040 00400043 0000004f 004e0040     @.P.C.@.O...@.N.
    a5a8:	00400000 0000004f 004e0040 00400000     ..@.O...@.N...@.
    a5b8:	0000004d 004c0040 00400000 0000004d     M...@.L...@.M...
    a5c8:	004c0040 00400000 0000004b 004a0040     @.L...@.K...@.J.
    a5d8:	00400000 00000049 00480040 00400000     ..@.I...@.H...@.
    a5e8:	00000047 00460040 00330000 00000000     G...@.F...3.....
    a5f8:	0045000d 003f0045 00000000 0046000b     ..E.E.?.......F.
    a608:	00400000 00000045 00440040 00400000     ..@.E...@.D...@.
    a618:	00450045 0000003f 000b0000 00000046     E.E.?.......F...
    a628:	00450040 003f0041 00000045 00440001     @.E.A.?.E.....D.
    a638:	00400000 003e0045 0045003f 00010000     ..@.E.>.?.E.....
    a648:	00000046 00450040 003f003a 00000045     F...@.E.:.?.E...
    a658:	00440001 00400000 003e0045 0045003f     ..D...@.E.>.?.E.
    a668:	00010000 00000046 00450040 003f0041     ....F...@.E.A.?.
    a678:	00000045 00440001 00330000 00000000     E.....D...3.....
    a688:	0045000d 003f0045 00000000 0046000b     ..E.E.?.......F.
    a698:	00400000 00000045 00440040 00400000     ..@.E...@.D...@.
    a6a8:	00450045 0000003f 000b0000 00000046     E.E.?.......F...
    a6b8:	00410040 003f0045 00000045 00440001     @.A.E.?.E.....D.
    a6c8:	00400000 0045003e 0045003f 00010000     ..@.>.E.?.E.....
    a6d8:	00000046 003a0040 003f0045 00000045     F...@.:.E.?.E...
    a6e8:	00440001 00400000 0045003e 0045003f     ..D...@.>.E.?.E.
    a6f8:	00010000 00000046 00410040 003f0045     ....F...@.A.E.?.
    a708:	00000045 00440001 00330000 00000000     E.....D...3.....
    a718:	0045000d 003f0045 00000000 0044000b     ..E.E.?.......D.
    a728:	00400000 00000043 00420040 00400000     ..@.C...@.B...@.
    a738:	00000043 00420040 00400000 00000041     C...@.B...@.A...
    a748:	00400040 00400000 00000041 00400040     @.@...@.A...@.@.
    a758:	00400000 0000003f 003e0040 00400000     ..@.?...@.>...@.
    a768:	0000003d 003c0040 00400000 0000003b     =...@.<...@.;...
    a778:	003a0040 00330000 00000000 0039000d     @.:...3.......9.
    a788:	00400000 0000003a 00390040 00400000     ..@.:...@.9...@.
    a798:	00000038 00390040 003f0039 00000000     8...@.9.9.?.....
    a7a8:	003a000b 00400000 00390035 0039003f     ..:...@.5.9.?.9.
    a7b8:	00010000 00000038 00320040 003f0039     ....8...@.2.9.?.
    a7c8:	00000039 003a0001 00400000 0039002e     9.....:...@...9.
    a7d8:	0039003f 00010000 00000038 00320040     ?.9.....8...@.2.
    a7e8:	003f0039 00000039 003a0001 00400000     9.?.9.....:...@.
    a7f8:	00390035 0039003f 00010000 00000038     5.9.?.9.....8...
    a808:	00000033 000d0000 00390039 003a0040     3.......9.9.@.:.
    a818:	00400000 00000039 00380040 00400000     ..@.9...@.8...@.
    a828:	00450039 0039003f 00010000 0000003a     9.E.?.9.....:...
    a838:	00390040 003f0041 00000039 00380001     @.9.A.?.9.....8.
    a848:	00400000 003e0039 0039003f 00010000     ..@.9.>.?.9.....
    a858:	0000003a 00390040 003f003a 00000039     :...@.9.:.?.9...
    a868:	00380001 00400000 003e0039 0039003f     ..8...@.9.>.?.9.
    a878:	00010000 0000003a 00390040 003f0041     ....:...@.9.A.?.
    a888:	00000039 00380001 00330000 00000000     9.....8...3.....
    a898:	0039000d 00400045 0045003a 003b0040     ..9.E.@.:.E.@.;.
    a8a8:	00400045 0045003c 003d0040 00400045     E.@.<.E.@.=.E.@.
    a8b8:	0045003e 003f0040 00400045 00450040     >.E.@.?.E.@.@.E.
    a8c8:	00410040 00400051 00510042 00430040     @.A.Q.@.B.Q.@.C.
    a8d8:	00400051 00510044 00450040 00400051     Q.@.D.Q.@.E.Q.@.
    a8e8:	00510046 00470040 00400051 00510048     F.Q.@.G.Q.@.H.Q.
    a8f8:	00510033 000d0000 00510049 004a0040     3.Q.....I.Q.@.J.
    a908:	00400051 0051004b 004c0040 00400051     Q.@.K.Q.@.L.Q.@.
    a918:	0045004d 004e0040 00400045 0045004f     M.E.@.N.E.@.O.E.
    a928:	00500040 00400045 00390051 00520040     @.P.E.@.Q.9.@.R.
    a938:	00400039 00390051 00500040 00400039     9.@.Q.9.@.P.9.@.
    a948:	00390051 00520040 00400039 00390051     Q.9.@.R.9.@.Q.9.
    a958:	00390033 000d0000 00390050 00510040     3.9.....P.9.@.Q.
    a968:	00400032 00320050 004f0040 00400000     2.@.P.2.@.O...@.
    a978:	0000004e 004d0040 00400000 00000052     N...@.M...@.R...
    a988:	00510040 00400000 00000050 00510040     @.Q...@.P...@.Q.
    a998:	00400032 00320050 004f0040 00400000     2.@.P.2.@.O...@.
    a9a8:	0000004e 004d0040 0040003e 003e004e     N...@.M.>.@.N.>.
    a9b8:	004f0040 00400000 00000050 00000033     @.O...@.P...3...
    a9c8:	000d0000 00320051 00500040 00400032     ....Q.2.@.P.2.@.
    a9d8:	0000004f 004e0040 00400000 0000004d     O...@.N...@.M...
    a9e8:	00520040 00400000 00000051 00500040     @.R...@.Q...@.P.
    a9f8:	00400000 00320051 00500040 00400032     ..@.Q.2.@.P.2.@.
    aa08:	0000004f 004e0040 00400000 003e004d     O...@.N...@.M.>.
    aa18:	004e0040 0040003e 0000004f 00500040     @.N.>.@.O...@.P.
    aa28:	00330000 00000000 0051000d 00400039     ..3.......Q.9.@.
    aa38:	00390050 004f0040 00400000 0000004e     P.9.@.O...@.N...
    aa48:	004f0040 00400037 0037004e 004d0040     @.O.7.@.N.7.@.M.
    aa58:	00400000 0000004c 004d0040 00400035     ..@.L...@.M.5.@.
    aa68:	0035004e 004f0040 00400000 00000050     N.5.@.O...@.P...
    aa78:	00510040 00400037 00370052 00510040     @.Q.7.@.R.7.@.Q.
    aa88:	00400000 00000050 00000033 000d0000     ..@.P...3.......
    aa98:	00390051 00500040 00400039 0000004f     Q.9.@.P.9.@.O...
    aaa8:	004e0040 00400000 0037004f 004e0040     @.N...@.O.7.@.N.
    aab8:	00400037 0000004d 004c0040 00400000     7.@.M...@.L...@.
    aac8:	0035004d 004e0040 00400035 0000004f     M.5.@.N.5.@.O...
    aad8:	00500040 00400000 00370051 00530040     @.P...@.Q.7.@.S.
    aae8:	00400037 00000054 00550040 00330000     7.@.T...@.U...3.
    aaf8:	00000000 0056000d 0040003c 003c0055     ......V.<.@.U.<.
    ab08:	00540040 00400000 00000053 003e0040     @.T...@.S...@.>.
    ab18:	00400052 0057003e 00560040 00400000     R.@.>.W.@.V...@.
    ab28:	00000055 00560040 0040003e 003e0055     U...@.V.>.@.U.>.
    ab38:	00540040 00400000 00000053 00520040     @.T...@.S...@.R.
    ab48:	0040003c 003c0053 00540040 00400000     <.@.S.<.@.T...@.
    ab58:	00000055 00000033 000d0000 003e0056     U...3.......V.>.
    ab68:	00550040 0040003e 00000054 00530040     @.U.>.@.T...@.S.
    ab78:	00400000 00000052 00570040 00400000     ..@.R...@.W...@.
    ab88:	00000056 00550040 00400000 003e0056     V...@.U...@.V.>.
    ab98:	00550040 0040003e 00000054 00530040     @.U.>.@.T...@.S.
    aba8:	00400000 003c0052 00530040 0040003c     ..@.R.<.@.S.<.@.
    abb8:	00000054 00550040 00330000 00000000     T...@.U...3.....
    abc8:	0056000d 0040003e 003e0055 00540040     ..V.>.@.U.>.@.T.
    abd8:	00400000 00000053 00540040 0040003c     ..@.S...@.T.<.@.
    abe8:	003c0053 00520040 00400000 00000051     S.<.@.R...@.Q...
    abf8:	00520040 0040003a 003a0053 00540040     @.R.:.@.S.:.@.T.
    ac08:	00400000 00000055 00560040 00400036     ..@.U...@.V.6.@.
    ac18:	00360057 00560040 00400000 00000055     W.6.@.V...@.U...
    ac28:	00000033 000d0000 00370056 00550040     3.......V.7.@.U.
    ac38:	00400037 00000054 00530040 00400000     7.@.T...@.S...@.
    ac48:	003e0052 00530040 0040003e 00000054     R.>.@.S.>.@.T...
    ac58:	00550040 00400000 003e0056 00580040     @.U...@.V.>.@.X.
    ac68:	0040003e 00000059 005b0040 00400000     >.@.Y...@.[...@.
    ac78:	003d005d 005e0040 0040003d 0000005d     ].=.@.^.=.@.]...
    ac88:	005c0040 00330000 00000000 005d000d     @.\...3.......].
    ac98:	003f0039 0000005d 005c0001 00400000     9.?.].....\...@.
    aca8:	003e005b 005b003f 00010000 0000005a     [.>.?.[.....Z...
    acb8:	00590040 00400000 0000005e 005d0040     @.Y...@.^...@.].
    acc8:	00400000 0000005c 005d0040 00400039     ..@.\...@.].9.@.
    acd8:	0039005c 005b0040 00400000 0000005a     \.9.@.[...@.Z...
    ace8:	00590040 00400037 0037005a 005b0040     @.Y.7.@.Z.7.@.[.
    acf8:	00400000 0000005c 00000033 000d0000     ..@.\...3.......
    ad08:	0039005d 005d003f 00010000 0000005c     ].9.?.].....\...
    ad18:	005b0040 003f003e 0000005b 005a0001     @.[.>.?.[.....Z.
    ad28:	00400000 00000059 005e0040 00400000     ..@.Y...@.^...@.
    ad38:	0000005d 005c0040 00400000 0039005d     ]...@.\...@.].9.
    ad48:	005c0040 00400039 0000005b 005a0040     @.\.9.@.[...@.Z.
    ad58:	00400000 00370059 005a0040 00400037     ..@.Y.7.@.Z.7.@.
    ad68:	0000005b 005c0040 00400000 0039005d     [...@.\...@.].9.
    ad78:	00390066 001a0000 00000055 00560040     f.9.....U...@.V.
    ad88:	00400000 004a0057 0057003f 00010000     ..@.W.J.?.W.....
    ad98:	00000058 00590040 003f0046 00000059     X...@.Y.F.?.Y...
    ada8:	005a0001 00400000 0043005b 005b003f     ..Z...@.[.C.?.[.
    adb8:	00010000 0000005a 00590040 003f0040     ....Z...@.Y.@.?.
    adc8:	00000059 00580001 00400000 00430059     Y.....X...@.Y.C.
    add8:	0059003f 00010000 00000058 00570040     ?.Y.....X...@.W.
    ade8:	003f0046 00000057 00560001 00330000     F.?.W.....V...3.
    adf8:	00000000 0055000d 003f004a 00000055     ......U.J.?.U...
    ae08:	00560001 00400000 00000057 00580040     ..V...@.W...@.X.
    ae18:	00400000 00000059 005a0040 00400000     ..@.Y...@.Z...@.
    ae28:	0000005b 005c0040 00400000 0043005d     [...@.\...@.].C.
    ae38:	005d003f 00010000 0000005e 005d0040     ?.].....^...@.].
    ae48:	00400000 0000005c 005d0040 00400000     ..@.\...@.]...@.
    ae58:	0000005e 005d0040 00400000 0000005c     ^...@.]...@.\...
    ae68:	00410040 00660069 00000041 0049001a     @.A.i.f.A.....I.
    ae78:	00400000 0000004a 004b0040 003f0062     ..@.J...@.K.b.?.
    ae88:	0000004b 004c0001 00400000 005e004d     K.....L...@.M.^.
    ae98:	004d003f 00010000 0000004e 004f0040     ?.M.....N...@.O.
    aea8:	003f005b 0000004f 004e0001 00400000     [.?.O.....N...@.
    aeb8:	0058004d 004d003f 00010000 0000004c     M.X.?.M.....L...
    aec8:	004d0040 003f005b 0000004d 004c0001     @.M.[.?.M.....L.
    aed8:	00400000 005e004b 004b003f 00010000     ..@.K.^.?.K.....
    aee8:	0000004a 00000033 000d0000 00620049     J...3.......I.b.
    aef8:	0049003f 00010000 0000004a 004b0040     ?.I.....J...@.K.
    af08:	00400000 0000004c 004d0040 00400000     ..@.L...@.M...@.
    af18:	0000004e 004f0040 00400000 00000050     N...@.O...@.P...
    af28:	00510040 003f0043 00000051 00520001     @.Q.C.?.Q.....R.
    af38:	00400000 00000051 00500040 00400000     ..@.Q...@.P...@.
    af48:	00000051 00530040 00400000 00000054     Q...@.S...@.T...
    af58:	00550040 00330000 00000000 0056000d     @.U...3.......V.
    af68:	00400045 00450055 00540040 00400000     E.@.U.E.@.T...@.
    af78:	00000053 00540040 00400048 00480053     S...@.T.H.@.S.H.
    af88:	00520040 00400000 00000051 00520040     @.R...@.Q...@.R.
    af98:	00400046 00460051 00500040 00400000     F.@.Q.F.@.P...@.
    afa8:	0000004f 00000033 000d0000 0000004e     O...3.......N...
    afb8:	004d0040 00400000 0000004c 004b0040     @.M...@.L...@.K.
    afc8:	00400000 0039004a 00490040 00400039     ..@.J.9.@.I.9.@.
    afd8:	00000048 00470040 00400000 00390048     H...@.G...@.H.9.
    afe8:	00470040 00400039 00000046 00450040     @.G.9.@.F...@.E.
    aff8:	00330000 00000000 0046000d 0040003a     ..3.......F.:.@.
    b008:	003a0045 00440040 00400000 00000043     E.:.@.D...@.C...
    b018:	00420040 00400000 00000041 00400040     @.B...@.A...@.@.
    b028:	00400000 0000003f 003e0040 00400039     ..@.?...@.>.9.@.
    b038:	0039003f 003e0040 00400000 0000003d     ?.9.@.>...@.=...
    b048:	003d0040 0040003f 0000003e 003d0040     @.=.?.@.>...@.=.
    b058:	0040003f 0000004b 003e0040 00400000     ?.@.K...@.>...@.
    b068:	0000003f 003d0040 0040003e 00000040     ?...@.=.>.@.@...
    b078:	003c0040 0040003e 00000041 003a0040     @.<.>.@.A...@.:.
    b088:	0040003e 00000043 00450040 00400039     >.@.C...@.E.9.@.
    b098:	00000046 00450040 00400000 00000044     F...@.E...@.D...
    b0a8:	00440040 00400046 00510045 00440040     @.D.F.@.E.Q.@.D.
    b0b8:	00400046 00000052 00510040 00400045     F.@.R...@.Q.E.@.
    b0c8:	00000046 00430040 00400045 00530047     F...@.C.E.@.G.S.
    b0d8:	00410040 00400045 00540048 00450040     @.A.E.@.H.T.@.E.
    b0e8:	00400040 00550049 00560040 00800041     @.@.I.U.@.V.A...
    b0f8:	00000000 00390080 00400000 0000003a     ......9...@.:...
    b108:	003b0040 00400000 0000003c 003d0040     @.;...@.<...@.=.
    b118:	00400000 0000003e 003f0040 00400000     ..@.>...@.?...@.
    b128:	00000040 00410040 00400000 00000042     @...@.A...@.B...
    b138:	00430040 00400000 00000044 00000033     @.C...@.D...3...
    b148:	000d0000 00450045 00460040 00400000     ....E.E.@.F...@.
    b158:	00000047 00480040 00400000 00000049     G...@.H...@.I...
    b168:	004a0040 00400000 0000004b 004c0040     @.J...@.K...@.L.
    b178:	00400000 004a004d 004e0040 0040004a     ..@.M.J.@.N.J.@.
    b188:	0000004f 00500040 00400000 00000051     O...@.P...@.Q...
    b198:	00530040 00400000 00000054 00550040     @.S...@.T...@.U.
    b1a8:	00330000 00000000 0056000d 02000000     ..3.......V.....
    b1b8:	00000062 004a0200 02000032              b.....J.2...

0000b1c4 <const8576>:
    b1c4:	00008ff8 000005a2 00000004              ............

0000b1d0 <ref8577>:
    b1d0:	00000000 003b0000 00600000 0000003f     ......;...`.?...
    b1e0:	00430060 00660000 00470043 00470001     `.C...f.C.G...G.
    b1f0:	01c70000 00000000 00470040 00370000     ........@.G...7.
    b200:	00000000 00470017 00970000 00000000     ......G.........
    b210:	00450014 00920040 00000000 00430014     ..E.@.........C.
    b220:	00400000 00000000 00450014 003f0000     ..@.......E...?.
    b230:	00470045 00470005 003e0000 00000000     E.G...G...>.....
    b240:	00450014 013e003f 00000000 00470014     ..E.?.>.......G.
    b250:	00350000 00000000 00450014 00450000     ..5.......E...E.
    b260:	00000000 003f0014 007d0043 00000000     ......?.C.}.....
    b270:	00430021 00300000 00000000 0043001a     !.C...0.......C.
    b280:	00370000 00000000 00420014 003c0000     ..7.......B...<.
    b290:	00000000 003c0014 01050040 00000040     ......<.@...@...
    b2a0:	000000a8 001d0000 00000040 00000052     ........@...R...
    b2b0:	00140000 00000045 00450003 007f003c     ....E.....E.<...
    b2c0:	0000003c 00450019 003f003c 0000003c     <.....E.<.?.<...
    b2d0:	00450013 0070003c 0000003c 0045001b     ..E.<.p.<.....E.
    b2e0:	003e003c 0000003c 00450017 0080003c     <.>.<.....E.<...
    b2f0:	0000003c 0045001d 0049003c 0000003c     <.....E.<.I.<...
    b300:	00470011 0093003c 0000003c 00450006     ..G.<...<.....E.
    b310:	004e003c 00000045 00000008 00140000     <.N.E...........
    b320:	0000003e 003e0006 03040038 00000038     >.....>.8...8...
    b330:	00000006 00140000 00000047 00000041     ........G...A...
    b340:	00140000 00000047 00000047 00140000     ....G...G.......
    b350:	00450040 0000008d 00140000 00000043     @.E.........C...
    b360:	00000041 00140000 00000045 0000003f     A.......E...?...
    b370:	00140000 00000047 00000041 00140000     ....G...A.......
    b380:	0045003f 0000014a 00140000 00000047     ?.E.J.......G...
    b390:	00000039 00140000 00000045 00450044     9.......E...D.E.
    b3a0:	00010043 00000043 0000006c 00190000     C...C...l.......
    b3b0:	00000043 00000029 00190000 00000043     C...).......C...
    b3c0:	0000003c 00140000 00000042 0000003d     <.......B...=...
    b3d0:	00140000 00380040 0000019a 00540000     ....@.8.......T.
    b3e0:	003d0045 003d0078 00170000 003d0045     E.=.x.=.....E.=.
    b3f0:	00450001 00020000 00390045 00390039     ..E.....E.9.9.9.
    b400:	00140000 00390045 00450007 006d0034     ....E.9...E.4.m.
    b410:	00000000 00400014 000c0000 00450040     ......@.....@.E.
    b420:	00400034 00170000 00450040 00450016     4.@.....@.E...E.
    b430:	00040000 0045003d 003d0056 000d0000     ....=.E.V.=.....
    b440:	00000000 00400014 00090000 00390040     ......@.....@.9.
    b450:	00390044 00080000 00390042 00420003     D.9.....B.9...B.
    b460:	000a0000 00340042 0042006d 00060000     ....B.4.m.B.....
    b470:	00000000 00390014 00060000 00430039     ......9.....9.C.
    b480:	0039004d 000d0000 00450039 00450005     M.9.....9.E...E.
    b490:	00ca0000 00450032 0045007d 000a0000     ....2.E.}.E.....
    b4a0:	00450039 00450061 000d0000 0045003e     9.E.a.E.....>.E.
    b4b0:	004500b4 00100000 00450042 000000d8     ..E.....B.E.....
    b4c0:	00140000 00000047 00470191 00010043     ....G.....G.C...
    b4d0:	00000043 00000082 003b0000 00000043     C.........;.C...
    b4e0:	00000094 002d0000 00000043 00000064     ......-.C...d...
    b4f0:	00140000 00000043 000000b6 00140000     ....C...........
    b500:	00000040 00000030 00140000 00000043     @...0.......C...
    b510:	000000f6 003b0000 00000043 0000002a     ......;.C...*...
    b520:	00190000 00000040 0000006c 00140000     ....@...l.......
    b530:	0000003e 0000002c 00220000 00000040     >...,.....".@...
    b540:	0000005d 00220000 00000043 00000072     ].....".C...r...
    b550:	00e80000 0000005a 00580048 00600058     ....Z...H.X.X.`.
    b560:	00000000 005300a8 00480053 00510051     ......S.S.H.Q.Q.
    b570:	00000090 00180000 00530053 00540048     ........S.S.H.T.
    b580:	00900054 00000000 00580018 00480058     T.........X.X.H.
    b590:	00560056 00000090 00de0000 00000043     V.V.........C...
    b5a0:	00000086 003b0000 00000043 00000093     ......;.C.......
    b5b0:	00260000 00000040 00000068 00190000     ..&.@...h.......
    b5c0:	00000043 000000aa 00140000 00000040     C...........@...
    b5d0:	0000002f 001b0000 00000043 0000008b     /.......C.......
    b5e0:	00340000 00000043 0000008d 002a0000     ..4.C.........*.
    b5f0:	00000040 00000068 00140000 0000003e     @...h.......>...
    b600:	0000003a 00140000 00000040 00000068     :.......@...h...
    b610:	00170000 00000043 00000072 00f20000     ....C...r.......
    b620:	00000066 00630048 00600000 00000000     f...H.c...`.....
    b630:	005f00a8 00480000 0000005d 00000090     .._...H.].......
    b640:	00180000 0000005f 00600048 00900000     ...._...H.`.....
    b650:	00000000 00640018 00480000 00000062     ......d...H.b...
    b660:	00000090 008f0000 00000043 00000030     ........C...0...
    b670:	00230000 00400045 0000005b 001d0000     ..#.E.@.[.......
    b680:	00000045 00000026 001f0000 00000045     E...&.......E...
    b690:	00000023 00170000 00000045 0000002c     #.......E...,...
    b6a0:	00180000 003f0045 0000012a 001c0000     ....E.?.*.......
    b6b0:	00000047 00000029 00140000 00000045     G...).......E...
    b6c0:	0000002b 00140000 0043003f 0000005d     +.......?.C.]...
    b6d0:	001f0000 00000043 00000025 00260000     ....C...%.....&.
    b6e0:	00000043 0000002b 00140000 00000047     C...+.......G...
    b6f0:	00000031 00140000 0040003c 00000142     1.......<.@.B...
    b700:	00340000 0000003b 0000002b 00190000     ..4.;...+.......
    b710:	0000003c 00000061 00240000 0000003c     <...a.....$.<...
    b720:	00000023 00210000 0000003c 0000005e     #.....!.<...^...
    b730:	001b0000 00000045 00000030 001a0000     ....E...0.......
    b740:	00000047 00000051 001b0000 00000045     G...Q.......E...
    b750:	00000034 00150000 00000047 00000069     4.......G...i...
    b760:	001a0000 00000045 00000033 00260000     ....E...3.....&.
    b770:	0038003e 00000278 00300000 00000047     >.8.x.....0.G...
    b780:	0000002d 001b0000 00400045 00000055     -.......E.@.U...
    b790:	00200000 00000045 00000026 00210000     .. .E...&.....!.
    b7a0:	00000045 00000024 00170000 00000045     E...$.......E...
    b7b0:	00000026 001d0000 003f0045 00000116     &.......E.?.....
    b7c0:	00250000 00000047 0000002c 00160000     ..%.G...,.......
    b7d0:	00000045 00000026 00140000 003f0043     E...&.......C.?.
    b7e0:	0000006b 001a0000 00000043 00000022     k.......C..."...
    b7f0:	00240000 00000043 00000049 00300000     ..$.C...I.....0.
    b800:	00000042 00000038 00140000 003c0040     B...8.......@.<.
    b810:	000000ef 00380000 00000040 0000002e     ......8.@.......
    b820:	00190000 00000045 00000064 00220000     ....E...d.....".
    b830:	00000045 0000002d 001d0000 00000045     E...-.......E...
    b840:	0000005e 00210000 00000045 00000024     ^.....!.E...$...
    b850:	001d0000 00000045 00000062 00190000     ....E...b.......
    b860:	00000040 0000002d 00190000 00000042     @...-.......B...
    b870:	00000056 001e0000 00000043 0000002a     V.......C...*...
    b880:	00210000 00450038 000001d3 002e0000     ..!.8.E.........
    b890:	00000047 000000a6 00140000 00000043     G...........C...
    b8a0:	00000027 00210000 00000043 00000095     '.....!.C.......
    b8b0:	002a0000 00000043 000000a5 001c0000     ..*.C...........
    b8c0:	00000040 0000005c 00180000 00000043     @...\.......C...
    b8d0:	000000b5 00140000 00000040 0000002f     ........@.../...
    b8e0:	001c0000 00000043 000000fc 00330000     ....C.........3.
    b8f0:	00000043 00000035 001b0000 00000040     C...5.......@...
    b900:	00000066 00140000 0000003e 00000035     f.......>...5...
    b910:	001b0000 00000040 0000005d 00220000     ....@...].....".
    b920:	00000043 00000072 00740000 0000004f     C...r.....t.O...
    b930:	004c0048 00600000 00000000 004700a8     H.L...`.......G.
    b940:	00480000 00000045 00000090 00300000     ..H.E.........0.
    b950:	00000047 00480048 00900000 00000000     G...H.H.........
    b960:	004c0030 00480000 0000004a 00000090     0.L...H.J.......
    b970:	007d0000 00000047 000000a3 003e0000     ..}.G.........>.
    b980:	00000043 0000008e 002a0000 00000043     C.........*.C...
    b990:	000000b1 00190000 00000040 0000005f     ........@..._...
    b9a0:	001c0000 00000043 000000af 00140000     ....C...........
    b9b0:	00000040 00000030 001c0000 00000043     @...0.......C...
    b9c0:	000000f9 00360000 00000043 0000002f     ......6.C.../...
    b9d0:	00210000 00000040 00000064 00140000     ..!.@...d.......
    b9e0:	0000003e 00000033 00180000 00000040     >...3.......@...
    b9f0:	00000065 001a0000 00000043 0000006a     e.......C...j...
    ba00:	00c00000 00000066 00630048 00600000     ....f...H.c...`.
    ba10:	00000000 005f00a8 00480000 0000005d     ......_...H.]...
    ba20:	00000090 00180000 0000005f 00600048     ........_...H.`.
    ba30:	00900000 00000000 00640018 00480000     ..........d...H.
    ba40:	00000062 00000090 00c40000 00000043     b...........C...
    ba50:	00000030 001e0000 00450040 00000058     0.......@.E.X...
    ba60:	001b0000 00000045 0000002a 00200000     ....E...*..... .
    ba70:	00000045 00000023 00140000 00000045     E...#.......E...
    ba80:	0000002d 00180000 0045003f 00000129     -.......?.E.)...
    ba90:	001c0000 00000047 0000002d 00140000     ....G...-.......
    baa0:	00000045 00000031 00140000 0043003f     E...1.......?.C.
    bab0:	00000055 001e0000 00000043 00000026     U.......C...&...
    bac0:	00240000 00000043 00000026 00140000     ..$.C...&.......
    bad0:	00000042 00000034 00140000 0040003c     B...4.......<.@.
    bae0:	00000158 00270000 0000003b 0000002c     X.....'.;...,...
    baf0:	00200000 0000003c 00000054 00220000     .. .<...T.....".
    bb00:	0000003c 00000024 00230000 0000003c     <...$.....#.<...
    bb10:	0000005b 00210000 00000045 00000031     [.....!.E...1...
    bb20:	00160000 00000047 00000050 00200000     ....G...P..... .
    bb30:	00000045 00000035 001a0000 00000047     E...5.......G...
    bb40:	00000059 001a0000 00000045 00000031     Y.......E...1...
    bb50:	00140000 0039003e 00000175 01460000     ....>.9.u.....F.
    bb60:	00000047 00000039 00180000 00000045     G...9.......E...
    bb70:	00000057 00240000 00000045 00000022     W.....$.E..."...
    bb80:	00200000 00000045 00000023 001c0000     .. .E...#.......
    bb90:	00000045 00000028 001d0000 00000045     E...(.......E...
    bba0:	0000011d 00240000 00000047 0000002a     ......$.G...*...
    bbb0:	00140000 00000045 0000002b 00160000     ....E...+.......
    bbc0:	00000043 0000005c 001d0000 00000043     C...\.......C...
    bbd0:	00000021 00230000 00000043 00000024     !.....#.C...$...
    bbe0:	00140000 00000042 00000033 00140000     ....B...3.......
    bbf0:	00000040 00000147 002c0000 00000040     @...G.....,.@...
    bc00:	00000038 00140000 00000045 0000005c     8.......E...\...
    bc10:	00220000 00000045 0000002e 00160000     ..".E...........
    bc20:	00000045 00000066 001d0000 00000045     E...f.......E...
    bc30:	00000026 001e0000 00000045 0000005f     &.......E..._...
    bc40:	00200000 00000040 0000002d 00140000     .. .@...-.......
    bc50:	00000042 00000060 00180000 00000043     B...`.......C...
    bc60:	0000002e 00140000 00000045 00000221     ........E...!...
    bc70:	001b0000 00000047 000000af 00150000     ....G...........
    bc80:	00000043 00000096 002a0000 00000043     C.........*.C...
    bc90:	000000a9 00220000 00000040 00000064     ......".@...d...
    bca0:	00140000 00000043 000000b4 00140000     ....C...........
    bcb0:	00000040 00000033 00140000 00000043     @...3.......C...
    bcc0:	000000ff 002f0000 00000043 00000033     ....../.C...3...
    bcd0:	001e0000 00000040 00000066 00140000     ....@...f.......
    bce0:	0000003e 0000002c 00140000 00000040     >...,.......@...
    bcf0:	00000065 001b0000 00000043 00000099     e.......C.......
    bd00:	04af0000 00000047 000000ac 00140000     ....G...........
    bd10:	00000043 0000002b 001f0000 00000043     C...+.......C...
    bd20:	0000008c 002e0000 00000043 000000ad     ........C.......
    bd30:	00140000 00000040 0000005f 001c0000     ....@..._.......
    bd40:	00000043 000000ae 00140000 00000040     C...........@...
    bd50:	00000037 00140000 00000043 00000095     7.......C.......
    bd60:	00280000 00000043 0000009b 00260000     ..(.C.........&.
    bd70:	00000040 00000068 00140000 0000003e     @...h.......>...
    bd80:	0000002a 001a0000 00000040 00000061     *.......@...a...
    bd90:	00160000 00000043 0000009d 010d0000     ....C...........
    bda0:	0000005a 00580048 00600000 00000000     Z...H.X...`.....
    bdb0:	005300a8 00480000 00000051 00000090     ..S...H.Q.......
    bdc0:	00300000 00000053 00540048 00900000     ..0.S...H.T.....
    bdd0:	00000000 00580030 00480000 00000056     ....0.X...H.V...
    bde0:	00000090 00610000 00000043 00000032     ......a.C...2...
    bdf0:	001f0000 00000045 00000055 001c0000     ....E...U.......
    be00:	00000045 00000026 001c0000 00000045     E...&.......E...
    be10:	0000002a 00160000 00000045 00000029     *.......E...)...
    be20:	00180000 00000045 00000127 001b0000     ....E...'.......
    be30:	00000047 00000030 00140000 00000045     G...0.......E...
    be40:	00000037 00140000 00000043 00000065     7.......C...e...
    be50:	001e0000 00000043 00000026 00210000     ....C...&.....!.
    be60:	00000043 00000028 00140000 00000042     C...(.......B...
    be70:	00000034 00140000 00000040 0000014b     4.......@...K...
    be80:	002a0000 0000003b 0000003e 00140000     ..*.;...>.......
    be90:	0000003c 0000004c 00290000 0000003c     <...L.....).<...
    bea0:	0000002a 001e0000 0000003c 0000005e     *.......<...^...
    beb0:	00190000 00000045 00000030 001c0000     ....E...0.......
    bec0:	00000047 00000060 00180000 00000045     G...`.......E...
    bed0:	00000030 00170000 00000047 00000053     0.......G...S...
    bee0:	001c0000 00000045 0000003f 00140000     ....E...?.......
    bef0:	0000003e 00000294 00280000 00000047     >.........(.G...
    bf00:	0000003a 00160000 00000045 00000055     :.......E...U...
    bf10:	001f0000 00000045 00000025 00240000     ....E...%.....$.
    bf20:	00000045 00000023 00170000 00000045     E...#.......E...
    bf30:	00000028 001a0000 00000045 0000012d     (.......E...-...
    bf40:	001f0000 00000047 00000029 00140000     ....G...).......
    bf50:	00000045 0000002f 00140000 00000043     E.../.......C...
    bf60:	00000058 00190000 00000043 00000022     X.......C..."...
    bf70:	00200000 00000043 00000029 00140000     .. .C...).......
    bf80:	00000042 00000033 00140000 00000040     B...3.......@...
    bf90:	00000143 00330000 00000040 00000041     C.....3.@...A...
    bfa0:	00140000 00000045 00000062 00240000     ....E...b.....$.
    bfb0:	00000045 0000002a 001b0000 00000045     E...*.......E...
    bfc0:	00000059 00210000 00000045 00000025     Y.....!.E...%...
    bfd0:	001f0000 00000045 0000005f 00200000     ....E..._..... .
    bfe0:	00000040 0000002f 00140000 00000042     @.../.......B...
    bff0:	00000065 00160000 00000043 00000033     e.......C...3...
    c000:	00140000 00000045 000001c7 00350000     ....E.........5.
    c010:	00000046 00460008 00020047 00000047     F.....F.G...G...
    c020:	000000ac 00140000 00000043 0000001f     ........C.......
    c030:	00190000 00000043 0000009e 002f0000     ....C........./.
    c040:	00000043 000000a8 00180000 00000040     C...........@...
    c050:	00000064 00150000 00000043 000000b9     d.......C.......
    c060:	00140000 00000040 00430047 00980000     ....@...G.C.....
    c070:	00000000 00430025 00a20000 00000000     ....%.C.........
    c080:	00400020 006e0000 00000000 003e0014      .@...n.......>.
    c090:	002b0000 00000000 00400019 00620000     ..+.......@...b.
    c0a0:	00000000 0043001d 007f0000 00000000     ......C.........
    c0b0:	005a0091 00480000 00000058 00000060     ..Z...H.X...`...
    c0c0:	00a80000 00000053 00510048 00900000     ....S...H.Q.....
    c0d0:	00000000 00530030 00480000 00000054     ....0.S...H.T...
    c0e0:	00000090 00300000 00000058 00560048     ......0.X...H.V.
    c0f0:	00900000 00000000 0047009a 00b90000     ..........G.....
    c100:	00000000 00430014 001f0000 00000000     ......C.........
    c110:	00430024 00990000 00000000 00430028     $.C.........(.C.
    c120:	00ab0000 00000000 00400017 005c0000     ..........@...\.
    c130:	00000000 0043001c 00ab0000 00000000     ......C.........
    c140:	00400014 002f0000 00000000 00430014     ..@.../.......C.
    c150:	00960000 00000000 00430033 008a0000     ........3.C.....
    c160:	00000000 00400037 006b0000 00000000     ....7.@...k.....
    c170:	003e0014 002d0000 00000000 00400014     ..>...-.......@.
    c180:	006c0000 00000000 00430014 007e0000     ..l.......C...~.
    c190:	00000000 005a0173 00480000 00000058     ....s.Z...H.X...
    c1a0:	00000060 00a80000 00000053 00510048     `.......S...H.Q.
    c1b0:	00900000 00000000 00530048 00480000     ........H.S...H.
    c1c0:	00000054 00000090 00360000 00000048     T.........6.H...
    c1d0:	00000180 00140000 00000045 000000a4     ........E.......
    c1e0:	00280000 00000045 000000ab 00150000     ..(.E...........
    c1f0:	00000042 00000071 00140000 00000045     B...q.......E...
    c200:	000000af 00140000 00000042 00000038     ........B...8...
    c210:	00140000 00000045 00000096 00270000     ....E.........'.
    c220:	00000045 0000009e 00230000 00000042     E.........#.B...
    c230:	0000006d 00140000 00000040 00000036     m.......@...6...
    c240:	00140000 00000042 00000066 00190000     ....B...f.......
    c250:	00000045 00000065 00db0000 0000005d     E...e.......]...
    c260:	005a0048 00600000 00000000 005500a8     H.Z...`.......U.
    c270:	00480000 00000053 00000090 00300000     ..H.S.........0.
    c280:	00000055 00560048 00900000 00000000     U...H.V.........
    c290:	005a0030 00480000 00000058 00000090     0.Z...H.X.......
    c2a0:	00fb0000 00000049 0000009d 00230000     ....I.........#.
    c2b0:	00000045 00000020 001b0000 00000045     E... .......E...
    c2c0:	000000a5 00260000 00000045 000000a3     ......&.E.......
    c2d0:	001e0000 00000042 00000066 00140000     ....B...f.......
    c2e0:	00000045 000000b6 00140000 00000042     E...........B...
    c2f0:	00000029 001c0000 00000045 00000092     ).......E.......
    c300:	00220000 00000045 000000a8 00180000     ..".E...........
    c310:	00000042 00000077 00140000 00000040     B...w.......@...
    c320:	00000031 00140000 00000042 00000066     1.......B...f...
    c330:	00190000 00000045 0000006b 00ef0000     ....E...k.......
    c340:	0000005d 005a0048 00600000 00000000     ]...H.Z...`.....
    c350:	005500a8 00480000 00000053 00000090     ..U...H.S.......
    c360:	00300000 00000055 00560048 00900000     ..0.U...H.V.....
    c370:	00000000 005a0030 00480000 00000058     ....0.Z...H.X...
    c380:	00000090 01440000 00000049 0000009e     ......D.I.......
    c390:	00230000 00000045 00000022 00230000     ..#.E...".....#.
    c3a0:	00000045 00000091 00220000 00000045     E.........".E...
    c3b0:	000000ae 001f0000 00000042 00000054     ........B...T...
    c3c0:	001d0000 00000045 000000ab 00210000     ....E.........!.
    c3d0:	00000042 00000027 001d0000 00000045     B...'.......E...
    c3e0:	0000008c 00310000 00000045 0000009b     ......1.E.......
    c3f0:	00150000 00000042 0000006e 001a0000     ....B...n.......
    c400:	00000040 00000030 00190000 00000042     @...0.......B...
    c410:	0000005c 00230000 00000045 ffff0081     \.....#.E.......

0000c420 <const8578>:
    c420:	0000b1d0 0000030d 00000002              ............

0000c42c <ref8579>:
	...
    c54c:	447c0000 00745454 14147c00 00007c14     ..|DTTt..|...|..
    c55c:	0810087c 547c007c 00444454 00000000     |...|.|TTDD.....
    c56c:	00000000 4444447c 1c00007c 1c204020     ....|DDD|... @ .
    c57c:	54547c00 00004444 3414147c 00000058     .|TTDD..|..4X...
	...
    c6b8:	545c0000 00745454 44447c00 00004444     ..\TTTt..|DDDD..
    c6c8:	4444447c 147c007c 00583414 54547c00     |DDD|.|..4X..|TT
    c6d8:	00004444 00000000 00000000 00000000     DD..............
	...

0000c82c <const8580>:
    c82c:	0000c42c 00000400 00004080              ,........@..

0000c838 <ref8581>:
    c838:	14147c00 7c001814 5c341414 54547c00     .|.....|..4\.|TT
    c848:	5c004444 74545454 54545c00 00007454     DD.\TTTt.\TTTt..
    c858:	00000000 14147c00 00007c14 08102040     .....|...|..@ ..
    c868:	547c0004 00385454 00000000 04040000     ..|TTT8.........
    c878:	0004047c 4444447c 0000007c 00000000     |...|DDD|.......
    c888:	3414147c 547c0058 00444454 5454545c     |..4X.|TTDD.\TTT
    c898:	04040074 0004047c 14147c00 7c007c14     t...|....|...|.|
    c8a8:	58341414 7c040400 ff000404              ..4X...|....

0000c8b4 <const8582>:
    c8b4:	0000c838 0000007b 0000087b              8...{...{...

0000c8c0 <str8584>:
    c8c0:	20746f4e 6c706d69 6e656d65 ff646574     Not implemented.

0000c8d0 <ref8585>:
    c8d0:	0000c8c0 0000000f                       ........

0000c8d8 <str8586>:
    c8d8:	696e6150 74612063 202c3a20                       Panic at 

0000c8e1 <str8587>:
    c8e1:	d8202c3a                                         :

0000c8e2 <str8588>:
    c8e2:	c8d8202c                                         , 

0000c8e4 <ref8589>:
    c8e4:	0000c8d8 00000009 0000c8e1 00000001     ................
    c8f4:	0000c8e2 00000002                       ........

0000c8fc <ref8591>:
    c8fc:	00000000 00410005 00640028 00290040     ......A.(.d.@.).
    c90c:	003f006e 0078002a 002b003e 003d008c     n.?.*.x.>.+...=.
    c91c:	00b4002c 002d003c 003d0104 0258002c     ,...<.-...=.,.X.

0000c92c <const8592>:
    c92c:	0000c8fc 00000008 00000003              ............

0000c938 <_ZN4zinc3hal8nrf518223pin3Pin3new14_MSG_FILE_LINE17h0b8c3c02742a6bf2E>:
    c938:	0000ca10 00000020 0000c9d0 0000002e     .... ...........
    c948:	0000004c ffffffff                       L.......

0000c950 <str16681>:
    c950:	6573552f 732f7372 67617473 722e2f67     /Users/sstagg/.r
    c960:	75747375 6f742f70 68636c6f 736e6961     ustup/toolchains
    c970:	67696e2f 796c7468 3130322d 39302d36     /nightly-2016-09
    c980:	2d37312d 5f363878 612d3436 656c7070     -17-x86_64-apple
    c990:	7261642d 2f6e6977 2f62696c 74737572     -darwin/lib/rust
    c9a0:	2f62696c 2f637273 74737572 6372732f     lib/src/rust/src
    c9b0:	62696c2f 65726f63 696c732f 722e6563     /libcore/slice.r
    c9c0:	ffffff73                                s...

0000c9c4 <panic_bounds_check_loc16682>:
    c9c4:	0000c950 00000071 0000020c              P...q.......

0000c9d0 <str16686>:
    c9d0:	6573552f 732f7372 67617473 72732f67     /Users/sstagg/sr
    c9e0:	697a2f63 732f636e 682f6372 6e2f6c61     c/zinc/src/hal/n
    c9f0:	31356672 2f323238 2e6e6970 ffff7372     rf51822/pin.rs..

0000ca00 <panic_bounds_check_loc16687>:
    ca00:	0000c9d0 0000002e 00000061 ffffffff     ........a.......

0000ca10 <str16708>:
    ca10:	65737361 6f697472 6166206e 64656c69     assertion failed
    ca20:	6970203a 6e695f6e 20786564 3233203c     : pin_index < 32
    ca30:	00000000 00000002 00000006 00000001     ................
    ca40:	00000003 00000007 00000004 00000005     ................
    ca50:	00000000                                ....

0000ca54 <_ZN38_$LT$core..option..Option$LT$T$GT$$GT$6unwrap14_MSG_FILE_LINE17hf3e93d6afc0cbef4E>:
    ca54:	0000cc80 0000002b 0000ccb0 00000072     ....+.......r...
    ca64:	00000145 0000caa0 00000071 0000021d     E.......q.......
    ca74:	0000caa0 00000071 00000223 0000cb20     ....q...#... ...
    ca84:	00000073 000006b7 0000cb20 00000073     s....... ...s...
    ca94:	000006b9                                ....

0000ca98 <byte_str14404>:
    ca98:	ffffffff ffffffff                       ........

0000caa0 <str14486>:
    caa0:	6573552f 732f7372 67617473 722e2f67     /Users/sstagg/.r
    cab0:	75747375 6f742f70 68636c6f 736e6961     ustup/toolchains
    cac0:	67696e2f 796c7468 3130322d 39302d36     /nightly-2016-09
    cad0:	2d37312d 5f363878 612d3436 656c7070     -17-x86_64-apple
    cae0:	7261642d 2f6e6977 2f62696c 74737572     -darwin/lib/rust
    caf0:	2f62696c 2f637273 74737572 6372732f     lib/src/rust/src
    cb00:	62696c2f 65726f63 696c732f 722e6563     /libcore/slice.r
    cb10:	ffffff73 ffffffff ffffffff ffffffff     s...............

0000cb20 <str14510>:
    cb20:	6573552f 732f7372 67617473 722e2f67     /Users/sstagg/.r
    cb30:	75747375 6f742f70 68636c6f 736e6961     ustup/toolchains
    cb40:	67696e2f 796c7468 3130322d 39302d36     /nightly-2016-09
    cb50:	2d37312d 5f363878 612d3436 656c7070     -17-x86_64-apple
    cb60:	7261642d 2f6e6977 2f62696c 74737572     -darwin/lib/rust
    cb70:	2f62696c 2f637273 74737572 6372732f     lib/src/rust/src
    cb80:	62696c2f 65726f63 7274732f 646f6d2f     /libcore/str/mod
    cb90:	5b73722e                                         .rs

0000cb93 <str14516>:
    cb93:	2e2e2e5b ffffff5d ffffffff 73552fff              [...]........

0000cba0 <str14535>:
    cba0:	6573552f 732f7372 67617473 722e2f67     /Users/sstagg/.r
    cbb0:	75747375 6f742f70 68636c6f 736e6961     ustup/toolchains
    cbc0:	67696e2f 796c7468 3130322d 39302d36     /nightly-2016-09
    cbd0:	2d37312d 5f363878 612d3436 656c7070     -17-x86_64-apple
    cbe0:	7261642d 2f6e6977 2f62696c 74737572     -darwin/lib/rust
    cbf0:	2f62696c 2f637273 74737572 6372732f     lib/src/rust/src
    cc00:	62696c2f 65726f63 746d662f 646f6d2f     /libcore/fmt/mod
    cc10:	ff73722e                                .rs.

0000cc14 <panic_bounds_check_loc14536>:
    cc14:	0000cba0 00000073 00000360              ....s...`...

0000cc20 <panic_bounds_check_loc14537>:
    cc20:	0000cba0 00000073 0000036c ffffffff     ....s...l.......

0000cc30 <str14800>:
    cc30:	65646e69 756f2078 666f2074 756f6220     index out of bou
    cc40:	3a73646e 65687420 6e656c20 20736920     nds: the len is 

0000cc50 <str14801>:
    cc50:	74756220 65687420 646e6920 69207865      but the index i
    cc60:	ffff2073                                s ..

0000cc64 <ref14802>:
    cc64:	0000cc30 00000020 0000cc50 00000012     0... ...P.......
    cc74:	ffffffff ffffffff ffffffff              ............

0000cc80 <str14828>:
    cc80:	6c6c6163 60206465 6974704f 3a3a6e6f     called `Option::
    cc90:	72776e75 29287061 6e6f2060 60206120     unwrap()` on a `
    cca0:	656e6f4e 61762060 ff65756c ffffffff     None` value.....

0000ccb0 <str14829>:
    ccb0:	6573552f 732f7372 67617473 722e2f67     /Users/sstagg/.r
    ccc0:	75747375 6f742f70 68636c6f 736e6961     ustup/toolchains
    ccd0:	67696e2f 796c7468 3130322d 39302d36     /nightly-2016-09
    cce0:	2d37312d 5f363878 612d3436 656c7070     -17-x86_64-apple
    ccf0:	7261642d 2f6e6977 2f62696c 74737572     -darwin/lib/rust
    cd00:	2f62696c 2f637273 74737572 6372732f     lib/src/rust/src
    cd10:	62696c2f 65726f63 74706f2f 2e6e6f69     /libcore/option.
    cd20:	6e697372                                         rs

0000cd22 <str14837>:
    cd22:	65646e69 ffff2078 ffffffff 6f20ffff              index ........

0000cd30 <str14838>:
    cd30:	74756f20 20666f20 676e6172 6f662065      out of range fo
    cd40:	6c732072 20656369 6c20666f 74676e65     r slice of lengt
    cd50:	ffff2068                                h ..

0000cd54 <ref14839>:
    cd54:	0000cd22 00000006 0000cd30 00000022     ".......0..."...
    cd64:	ffffffff ffffffff ffffffff              ............

0000cd70 <str14840>:
    cd70:	63696c73 6e692065 20786564 72617473     slice index star
    cd80:	61207374 62202074                                ts at 

0000cd86 <str14841>:
    cd86:	74756220 646e6520 74612073 cd70ff20               but ends at .

0000cd94 <ref14842>:
    cd94:	0000cd70 00000016 0000cd86 0000000d     p...............

0000cda4 <str14897>:
    cda4:	69676562 3d3c206e 646e6520 3c202820              begin <= end (

0000cdb2 <str14898>:
    cdb2:	203d3c20                                 <= 

0000cdb6 <str14899>:
    cdb6:	68772029 73206e65 6963696c 6020676e     ) when slicing `

0000cdc6 <str14900>:
    cdc6:	cda4ff60                                         `.

0000cdc8 <ref14901>:
    cdc8:	0000cda4 0000000e 0000cdb2 00000004     ................
    cdd8:	0000cdb6 00000010 0000cdc6 00000001     ................

0000cde8 <str14902>:
    cde8:	646e6120 20726f2f                        and/or 

0000cdf0 <str14903>:
    cdf0:	206e6920 ffffff60 ffffffff ffffffff      in `...........

0000ce00 <str14904>:
    ce00:	206f6420 20746f6e 2065696c 63206e6f      do not lie on c
    ce10:	61726168 72657463 756f6220 7261646e     haracter boundar
    ce20:	ffffff79                                y...

0000ce24 <ref14905>:
    ce24:	0000cd22 00000006 0000cde8 00000008     "...............
    ce34:	0000cdf0 00000005 0000cdc6 00000001     ................
    ce44:	0000ce00 00000021                       ....!...

0000ce4c <byte_str14942>:
    ce4c:	31303030 33303230 35303430 37303630     0001020304050607
    ce5c:	39303830 31313031 33313231 35313431     0809101112131415
    ce6c:	37313631 39313831 31323032 33323232     1617181920212223
    ce7c:	35323432 37323632 39323832 31333033     2425262728293031
    ce8c:	33333233 35333433 37333633 39333833     3233343536373839
    ce9c:	31343034 33343234 35343434 37343634     4041424344454647
    ceac:	39343834 31353035 33353235 35353435     4849505152535455
    cebc:	37353635 39353835 31363036 33363236     5657585960616263
    cecc:	35363436 37363636 39363836 31373037     6465666768697071
    cedc:	33373237 35373437 37373637 39373837     7273747576777879
    ceec:	31383038 33383238 35383438 37383638     8081828384858687
    cefc:	39383838 31393039 33393239 35393439     8889909192939495
    cf0c:	37393639 39393839 00004bd8 00004ba8     96979899.K...K..
    cf1c:	00004bba 00004afc 00004bba 00004b9e     .K...J...K...K..
    cf2c:	00004bba 00004afc 00004ba8 00004ba8     .K...J...K...K..
    cf3c:	00004b9e 00004afc 00004b04 00004b04     .K...J...K...K..
    cf4c:	00004b04 00004bc0 00004ba8 00004ba8     .K...K...K...K..
    cf5c:	00004b7c 00004c60 00004b7c 00004b9e     |K..`L..|K...K..
    cf6c:	00004b7c 00004c60 00004ba8 00004ba8     |K..`L...K...K..
    cf7c:	00004b9e 00004c60 00004b04 00004b04     .K..`L...K...K..
    cf8c:	00004b04 00004c6a 00004f58 00004ea8     .K..jL..XO...N..
    cf9c:	00004ea8 00004ea6 00004f4a 00004f4a     .N...N..JO..JO..
    cfac:	00004f40 00004ea6 00004f4a 00004f40     @O...N..JO..@O..
    cfbc:	00004f4a 00004ea6 00004f50 00004f50     JO...N..PO..PO..
    cfcc:	00004f50 00004fe0 00005900 000057c0     PO...O...Y...W..
    cfdc:	000057c0 000057bc 000058d8 000058d8     .W...W...X...X..
    cfec:	000058ca 000057bc 000058d8 000058ca     .X...W...X...X..
    cffc:	000058d8 000057bc 000058e0 000058e0     .X...W...X...X..
    d00c:	000058e0 00005ae4                       .X...Z..

Disassembly of section .init:

0000d014 <_init>:
    d014:	b5f8      	push	{r3, r4, r5, r6, r7, lr}
    d016:	46c0      	nop			; (mov r8, r8)

Disassembly of section .fini:

0000d018 <_fini>:
    d018:	b5f8      	push	{r3, r4, r5, r6, r7, lr}
    d01a:	46c0      	nop			; (mov r8, r8)
